dd:_glClearStencil
yHf:_Array_InternalArray__ICollection_Add_TisMark_t2724874473_m1613484179_gshared
WFc:__ZN5physx2Gu19gjkLocalPenetrationINS0_8CapsuleVENS0_17ShrunkConvexHullVEEEjRKT_RKT0_RKNS_6shdfnd3aos6FloatVERNSB_5Vec3VESG_SG_RSC_PhSI_Rhb
kdj:__ZL80Graphic_t2426225576_CustomAttributesCacheGenerator_Graphic_OnFillVBO_m1723985607P21CustomAttributesCache
Fkh:_RuntimeTypeHandle_GetObjectData_m3567098501
HPb:__ZN18StreamedBinaryReadILb1EE21TransferSTLStyleArrayIN4core12basic_stringIcNS2_20StringStorageDefaultIcEEEEEEvRT_17TransferMetaFlags
Ijl:__ZN6il2cpp2vm5Array13GetByteLengthEP11Il2CppArray
qzj:_Raycast3DCallback_BeginInvoke_m3028685017
gEh:__Z79RuntimeInvoker_RuntimeObject_Int64_t909078037_Int64_t909078037_Int64_t909078037PFvvEPK10MethodInfoPvPS4_
Vtk:_TextGenerator_get_lineCount_m4287181941
vLk:_Comparison_1_Invoke_m353639462_gshared
iyh:_UInt64_System_IConvertible_ToDecimal_m4205696037
p0e:_GraphicRegistry_RegisterGraphicForCanvas_m2284226562
KHa:__Z21SourceMipLevelForBlitiiii
Flb:__ZN31CanvasBatchIntermediateRenderer15AddAsRenderNodeER15RenderNodeQueueRK20DeprecatedSourceData
Mkf:_Enumerator_get_Key_m2908810861
HJj:_AnimatorControllerPlayable_SetBool_m1780824884_AdjustorThunk
Hwd:__ZNK5physx2Sc5Scene24getContactModifyCallbackEv
zG:__ZN23AnimationOffsetPlayable11SetRotationE11Quaternionf
dt:__ZN11UnityEngine9Animation28GenericAnimationBindingCacheD2Ev
Nzd:__ZN5physx2Sq10AABBPruner10addObjectsEPjPKNS_9PxBounds3EPKNS0_13PrunerPayloadEj
jIj:_AnimationOffsetPlayable_op_Explicit_m363086289
jwj:_EqualityComparer_1__cctor_m968537130_gshared
hmg:_List_1_System_Collections_IList_IndexOf_m39706221_gshared
gqj:_Dictionary_2_Remove_m1849931834_gshared
pnf:_Decimal_op_Implicit_m2971610317
gc:invoke_viiiifiiiiif
R7a:__Z18RestoreRenderStateR20CameraRenderOldStateR17ShaderPassContext
rgf:_SynchronizedArrayListWrapper_get_Item_m3309425850
UOb:__Z18Transfer_BlittableI18StreamedBinaryReadILb1EELb1E5RectTIfEEvRK29SerializationCommandArgumentsR31RuntimeSerializationCommandInfo
iLb:__Z18Transfer_BlittableI24GenerateTypeTreeTransferLb0E11ColorRGBA32EvRK29SerializationCommandArgumentsR31RuntimeSerializationCommandInfo
U3:__Z25scripting_class_from_name17ScriptingImagePtrPKcS1_
n6k:__ZN14dense_hash_mapI10KeyWrapperINSt3__24pairIPK12PropertyInfoP11Il2CppClassEEEj17ReflectionMapHashIS8_ENS9_14EqualsComparerINS1_8equal_toIS8_EEEENS1_9allocatorINS2_IKS9_jEEEEE15set_deleted_keyERSH_
cEb:__Z29scripting_class_enum_basetype17ScriptingClassPtr
aPc:__ZN5physx6shdfnd8PoolBaseINS_2Sc10NPhaseCore16ClothListElementENS0_19ReflectionAllocatorIS4_EEE17releaseEmptySlabsEv
IPh:__Z111RuntimeInvoker_Void_t1841601450_Vector4_t2243707581_Vector4_t2243707581_Vector4_t2243707581_Vector4_t2243707581PFvvEPK10MethodInfoPvPS4_
KSd:__ZN5physx2Sc14ConstraintCore10breakApartEv
Y9h:_GenericTypeParameterBuilder_GetHashCode_m867619899
$Xd:__ZN5physx2Gu15EdgeListBuilderC2Ev
Cvj:_EqualityComparer_1__cctor_m3397254040_gshared
bea:__ZNK20LocalFileSystemPosix6ParentERK13FileEntryDataRN4core12basic_stringIcNS3_20StringStorageDefaultIcEEEE
yZd:__ZN5physx7Cooking20loadTriangleMeshDescERKNS_18PxTriangleMeshDescERNS_19TriangleMeshBuilderE
Ptk:_TextGenerator_get_verts_m3124035267
dSc:__ZN5physx9NpFactory21releaseConnectorArrayEPNS_16NpConnectorArrayE
kwk:_Vector2_get_one_m3174311904
SMf:_Array_Sort_TisVector2_t2243707579_m1307634946_gshared
pxa:__ZN17PersistentManager22CheckInstanceIDsLoadedEPii
EFa:__ZN7ApiGLES17CopyBufferSubDataEjjlll
Iob:__ZNK20ScriptPlayableOutput7GetTypeEv
rMk:_U3CCreateWhereIteratorU3Ec__Iterator1D_1_Reset_m1773515612_gshared
m$a:__ZN25CameraStackRenderingState20GetOrCreateBuiltinRTE24BuiltinRenderTextureTypeii17DepthBufferFormat19RenderTextureFormatj22RenderTextureReadWrite14VRTextureUsagei
FS:__ZN11AudioModule26SetDefaultMicrophoneDriverEPv
HDk:_AesManaged_CreateEncryptor_m1729287824
S3a:__ZN17PrePassRenderLoop14RenderBasePassEP13RenderTextureRK14LightingLayersR13dynamic_arrayI16RenderObjectDataLj4EERbR10MinMaxAABB
wdf:_Char_System_IConvertible_ToInt16_m2741348777_AdjustorThunk
Onc:__ZN5IMGUI18RepaintModalWindowER8GUIState
vJg:_ReadOnlyCollection_1_System_Collections_Generic_IListU3CTU3E_set_Item_m1547026160_gshared
vBi:__ZL61MarshalAsAttribute_t2900773360_CustomAttributesCacheGeneratorP21CustomAttributesCache
mub:__Z23SetSpriteMeshIndexCountP14SharedMeshDataj
uha:__ZN7Texture13SetFilterModeEi
Tdc:__Z46Register_UnityEngine_Application_get_isPlayingv
kll:__ZN6il2cpp8metadata13GenericMethod9GetMethodEPK19Il2CppGenericMethod
Jr:__ZNSt3__26vectorIN4core12basic_stringIcNS1_20StringStorageDefaultIcEEEENS_9allocatorIS5_EEE7reserveEj
Jpf:_Convert_ToUInt16_m2130758075
v2k:__ZN15dense_hashtableINSt3__24pairIK10KeyWrapperINS1_IPK11Il2CppImageP11Il2CppClassEEEjEES9_17ReflectionMapHashIS8_EN14dense_hash_mapIS9_jSD_NS9_14EqualsComparerINS0_8equal_toIS8_EEEENS0_9allocatorISB_EEE9SelectKeyESI_SK_E3endEv
NRh:__Z132RuntimeInvoker_Void_t1841601450_RuntimeObject_AnimatorStateInfo_t2577870592_Int32_t2071877448_AnimatorControllerPlayable_t1744083903PFvvEPK10MethodInfoPvPS4_
p7g:_X509BasicConstraintsExtension_Encode_m3505127076
vAa:__ZN13GfxDeviceGLES11SetViewportERK5RectTIiE
L2e:_Image_get_pixelsPerUnit_m4104195799
NFj:_Toggle_InternalToggle_m2323729210
Atf:_Decimal_System_IConvertible_ToInt64_m2504363272
Yb:invoke_vifiiii
E8e:_Array_GetValue_m3182152438
we:_emscripten_glDepthRange
Fmh:_DESTransform_CipherFunct_m3559419566
UAc:__ZN5physx2Gu24contactConvexHeightfieldERKNS0_13GeometryUnionES3_RKNS_11PxTransformES6_RKfRNS0_5CacheERNS0_13ContactBufferE
GTc:__ZN5physx6shdfnd5ArrayIPvNS0_19ReflectionAllocatorINS_2Cm5BlockIS2_Lj8EEEEEE15growAndPushBackERKS2_
PUe:_StandaloneInputModule_get_repeatDelay_m3025279
kji:_GUILayoutGroup_CalcWidth_m4107152934
wUb:__Z14resize_trimmedINSt3__26vectorIN9ShaderLab20SerializedSubProgram12UAVParameterENS0_9allocatorIS4_EEEEEvRT_j
ydh:_SerializationInfo_AddValue_m1781549036
PHj:_AnimationLayerMixerPlayable_SetLayerMaskFromAvatarMask_m2582039992_AdjustorThunk
dXg:_TlsServerKeyExchange_verifySignature_m3641534563
wac:__ZN13BuildSettings34ConvertScenePathToDisplayScenePathERKN4core12basic_stringIcNS0_20StringStorageDefaultIcEEEE
$Dj:_Slider_FindSelectableOnLeft_m3136767885
iHa:__ZN4crndL20crnd_default_reallocEPvjPjbS0_
sEf:_Array_BinarySearch_TisInt32_t2071877448_m51233948_gshared
hAl:__ZNSt3__212basic_stringIcNS_11char_traitsIcEENS_9allocatorIcEEEC2ERKS5_
QHd:__ZN5physx24PxsComputeAABBLocalSpaceERKNS_18PxcAABBDataDynamicERNS_9PxBounds3E
igh:_ProviderData_CopyFrom_m431414335
dvb:__ZN18SpriteAtlasManager19AddRequestingSpriteE4PPtrI6SpriteE
aqh:_UTF32Encoding_GetPreamble_m767706727
_kc:__Z33Texture_CUSTOM_Internal_GetHeightP12Il2CppObject
a7e:_LayoutGroup_get_preferredHeight_m3901163825
Q6a:__ZN23ScriptableRenderContextC2Ev
wdc:__Z22InverseTransformVector23TransformAccessReadOnlyRKN4math7_float3E
$mf:_DateTime_AbsoluteDays_m3061694073
mpe:_UNITY_FT_Stream_GetChar
rPb:__Z18Transfer_BlittableI18StreamedBinaryReadILb1EELb1EdEvRK29SerializationCommandArgumentsR31RuntimeSerializationCommandInfo
ekj:_Enumerator_System_Collections_IEnumerator_get_Current_m229223308_gshared
pAd:__ZN5physx6shdfnd8internal8HashBaseINS0_4PairIKNS_2Sq13PrunerPayloadEjEES5_NS0_4HashIS5_EENS1_11HashMapBaseIS5_jS9_NS0_9AllocatorEE6GetKeyESB_Lb1EE5eraseERS6_
lEb:__Z26BuildSerializationCacheFor17ScriptingClassPtrRb
SJa:__ZN7ApiGLES15BlitFramebufferEN2gl6HandleILNS0_10ObjectTypeE9EEENS0_15FramebufferReadES3_S3_iiiiiiiiNS0_15FramebufferTypeE
hUd:__ZN5physx13GuMeshFactory16createConvexMeshERNS_13PxInputStreamE
N3d:__ZN5physx6shdfnd8internal8HashBaseINS0_4PairIKPKcjEES5_NS0_4HashIS5_EENS1_11HashMapBaseIS5_jS9_NS_7profile26WrapperReflectionAllocatorIjEEE6GetKeyESD_Lb1EE6createERS6_Rb
nNh:__Z112RuntimeInvoker_RuntimeObject_RuntimeObject_RuntimeObject_RuntimeObject_RuntimeObject_RuntimeObject_RuntimeObjectPFvvEPK10MethodInfoPvPS4_
xWj:_Event_Init_m3901382626
agf:_FixedSizeArrayListWrapper_AddRange_m2071800418
OE:__ZN13ProduceHelperI8AnimatorLb0EE7ProduceE18MemLabelIdentifier18ObjectCreationMode
sfa:__Z9InitInputv
SJh:__Z85RuntimeInvoker_Boolean_t3825574718_Int64_t909078037_Int64_t909078037_SByte_t454417549PFvvEPK10MethodInfoPvPS4_
Wkg:_Enumerator_VerifyState_m2358705882_AdjustorThunk
gMb:__Z29Transfer_Blittable_ArrayFieldI24GenerateTypeTreeTransfer11ColorRGBA32EvRT_R9ArrayInfoRK23StaticTransferFieldInfo
fUd:__ZNK5physx13GuMeshFactory15getConvexMeshesEPPNS_12PxConvexMeshEjj
pAj:_Selectable_Navigate_m915280351
deb:__ZN16MemoryFileSystem6DeleteER13FileEntryDatab
Dwk:_Vector3_get_normalized_m936072361
Tua:__ZL21BlitScaleStbImageImplRK14ImageReferenceRS_NS_10ColorSpaceE
I6c:__ZN5physx10NpMaterial17setStaticFrictionEf
K1g:_TlsStream_set_Position_m378064217
frd:__ZNK5physx7NpScene19getFilterShaderDataEv
DHb:__Z29Transfer_Blittable_ArrayFieldI14SafeBinaryReadyEvRT_R9ArrayInfoRK23StaticTransferFieldInfo
eP:__ZN20SoundChannelInstance15setChannelGroupEPN4FMOD12ChannelGroupE
L1c:__ZN5physx2Sc19ShapeInstancePairLL26onPoseChangedWhileSleepingEv
OJe:_Evidence_Equals_m2325859915
YBd:__ZN5physx22PxcSweepCapsuleCapsuleERKNS_11PxsCCDShapeES2_PKNS_12PxsRigidBodyES5_RKNS_11PxTransformES8_S8_S8_fRNS_6PxVec3ESA_RNS_10PxcNpCacheERNS_18PxcNpThreadContextEf
g5h:_Default__ctor_m172834064
Sc:invoke_vifffii
xUj:_Component_GetComponents_m637589504
ojk:_Regex_IsMatch_m2159202025
XKc:__ZNK5physx3Cct17CapsuleController21getHalfHeightInternalEv
vQa:__ZNK25MultiBlocksMemoryFileData5CloneEv
Pql:_GC_add_ext_descriptor
$ch:_RemotingServices_GetMethodBaseFromName_m3271095947
lRc:__ZL30GeomOverlapCallback_CapsuleBoxRKN5physx10PxGeometryERKNS_11PxTransformES2_S5_PNS_2Gu12TriggerCacheE
nCl:dynCall_iiiiiiiiiiii
UOe:_ASCIIEncoding_GetBytes_m3617160053
hWg:_CipherSuiteCollection_System_Collections_IList_RemoveAt_m143866082
v0j:_Context_get_HasGlobalDynamicSinks_m3205328884
KF:__ZN26AnimatorControllerPlayable26ParameterControlledByCurveEi
MYb:__ZL26KeywordSetToStringDontSortRKNSt3__26vectorIN4core12basic_stringIcNS1_20StringStorageDefaultIcEEEENS_9allocatorIS5_EEEERS5_
Wpa:__ZN6prcoreL17RemapGenericFloatI16TexFormatRGFloat17TexFormatRGBAHalfEEvPKNS_9InnerInfoE
iK:__ZN12AudioManager22CreateFMODSoundFromWWWEP10IWWWStream15FMOD_SOUND_TYPE17FMOD_SOUND_FORMATjjbbP10SampleClip
o3b:__ZNK32RendererMaterialAnimationBinding15GenerateBindingERKN4core12basic_stringIcNS0_20StringStorageDefaultIcEEEEbRN11UnityEngine9Animation14GenericBindingE
i3:__ZN8Remapper23GetOrGenerateInstanceIDERK26SerializedObjectIdentifier
h2f:_StreamWriter_Flush_m3426120024
rSa:__ZN17FileSystemHandler10AtomicMoveER13FileEntryDataS1_
ib:invoke_iiiiiifffiiifii
M$f:_MemoryStream__ctor_m1489366847
hKe:_SecurityElement_IsValidTag_m64902195
hkj:_Enumerator_System_Collections_IEnumerator_get_Current_m229223308_AdjustorThunk
Zfi:_PropertyInfo_SetValue_m2961483868
zii:_GUILayoutEntry_set_style_m70917293
YVi:__ZL115TouchScreenKeyboard_t601950206_CustomAttributesCacheGenerator_TouchScreenKeyboard_Open_m3410222954____keyboardType1P21CustomAttributesCache
Org:_List_1_System_Collections_IList_Contains_m4193366963_gshared
rBk:_UnityEvent_3_FindMethod_Impl_m1889846153_gshared
E5h:_ConstructorInfo_Invoke_m2144827141
zub:__ZN6Sprite8TransferI24GenerateTypeTreeTransferEEvRT_
emc:__Z48Register_UnityEngine_Transform_SetAsFirstSiblingv
Ngi:_Font_get_fontSize_m1732593415
Cub:__ZN7SubMesh8TransferI24GenerateTypeTreeTransferEEvRT_
afi:_MonoProperty_get_CanWrite_m2124922514
Uzc:__ZN5physx3Cct10Controller6setPosERKNS_14PxExtendedVec3E
NWk:__ZN6il2cpp6icalls8mscorlib6SystemL16CheckMemberMatchI9FieldInfoNS_5utils10functional6FilterINSt3__212basic_stringIcNS8_11char_traitsIcEENS8_9allocatorIcEEEENS5_13VmStringUtils23CaseInsensitiveComparerEEEEEbPKT_PK11Il2CppClassSN_iRKT0_
$Bc:__ZN5physx2GuL14testFaceNormalERKNS0_13PolygonalDataES3_PNS0_12SupportLocalES5_RKNS_6shdfnd3aos15PsMatTransformVESA_RKNS7_6FloatVERSB_RjRNS7_5Vec3VENS0_13FeatureStatusERSI_
kzl:_poll
y$f:_Stream_BeginRead_m1985960185
NZe:_Graphic_UnregisterDirtyVerticesCallback_m1526739224
u1b:__ZN13ProduceHelperI14Texture2DArrayLb0EE7ProduceE18MemLabelIdentifier18ObjectCreationMode
xTg:_MD4Managed_GG_m1462438360
gic:__Z46Mesh_CUSTOM_PrintErrorCantAccessMeshForIndicesP12Il2CppObject
RLf:_Array_Resize_TisColor32_t874517518_m2219502085_gshared
kdc:__ZN9Transform23SetSiblingIndexInternalEib
f9f:_SimpleCollator_LastIndexOfOrdinal_m45234497
rRc:__ZL32GeomOverlapCallback_ConvexConvexRKN5physx10PxGeometryERKNS_11PxTransformES2_S5_PNS_2Gu12TriggerCacheE
JAa:__ZN13GfxDeviceGLES17DestroySubProgramEPN9ShaderLab10SubProgramE
Vu:__ZN7mecanim5human12HumanPoseSubERNS0_9HumanPoseERKS1_S4_
jTg:_MD4_Create_m2582504069
lfl:__ZN6il2cpp8metadata15GenericMetadata15GetGenericClassEiPK17Il2CppGenericInst
hbf:_Boolean_System_IConvertible_ToInt16_m977801621
rGb:__Z18Transfer_BlittableI14SafeBinaryReadLb0E10Matrix4x4fEvRK29SerializationCommandArgumentsR31RuntimeSerializationCommandInfo
gUa:__Z24GetFixedBehaviourManagerv
yYa:__ZN12FlareManager9UpdateJobEP25FlareManagerUpdateJobData
qWk:__ZN6il2cpp2vm10ThreadPool4WaitEP17Il2CppAsyncResultPPv
vxl:_vfprintf
jZa:__ZN20DynamicPropertySheetD0Ev
Ebb:__ZN14SafeBinaryRead17RegisterConverterEPKcS1_PFbPvRS_E
EZ:__ZN35RegisterRuntimeInitializeAndCleanup8RegisterEPFvPvES2_iS0_
q1d:__ZN14PhysicMaterial8TransferI18StreamedBinaryReadILb0EEEEvRT_
cPg:_ReadOnlyCollection_1_System_Collections_IList_Clear_m2600246370_gshared
cob:__ZN20SphericalHarmonicsL215AddAmbientLightERK10ColorRGBAf
nbe:__Z47Register_UnityEngine_MeshCollider_get_skinWidthv
aCd:__ZN5physx25PxcSweepConvexHeightfieldERKNS_11PxsCCDShapeES2_PKNS_12PxsRigidBodyES5_RKNS_11PxTransformES8_S8_S8_fRNS_6PxVec3ESA_RNS_10PxcNpCacheERNS_18PxcNpThreadContextEf
xcg:_DSAManaged_NormalizeArray_m2287089393
ndk:_InternalEnumerator_1_System_Collections_IEnumerator_get_Current_m2389982234_AdjustorThunk
kUa:__ZN8Material26ResetAllCachedMaterialDataEP6Shader
xpe:_UNITY_TT_Get_MM_Var
nNk:__ZN6il2cpp6icalls8mscorlib6System7Decimal13decimal2Int64EP19il2cpp_decimal_reprPx
aa:invoke_diddi
RSe:_ExecuteEvents__cctor_m288775360
lre:__ZNK2UI6Canvas13GetRenderModeEv
dof:_Double_TryParseStringConstant_m2585405703
LFb:__Z18Transfer_BlittableI14SafeBinaryReadLb0EiEvRK29SerializationCommandArgumentsR31RuntimeSerializationCommandInfo
cVk:__ZN6il2cpp2vm13MetadataCache30GetPropertyDefinitionFromIndexEi
jYj:_ResourceEnumerator__ctor_m1679839941
MEe:_RijndaelTransform_Clear_m1652144089
Ojd:__ZN5physx14NpRigidDynamic7releaseEv
a_f:_MonoIO_GetException_m2577367044
dze:__ZN22BaseUnityConnectClient17InitializeSessionERKN4core12basic_stringIcNS0_20StringStorageDefaultIcEEEES6_N19CloudServiceHandler13InitModeFlagsE
Imj:_Enumerator_MoveNext_m1404007384_gshared
S6f:_NumberFormatter_get_IsZero_m1325357749
qyd:__ZN5physx6shdfnd8PoolBaseINS_21PxsBodyTransformVault13PxsBody2WorldENS0_19ReflectionAllocatorIS3_EEE15disposeElementsEv
VIl:_emscripten_glDeleteBuffers__wrapper
RTh:__Z121RuntimeInvoker_Void_t1841601450_Single_t2076509932_Single_t2076509932_Single_t2076509932_Single_t2076509932_RuntimeObjectPFvvEPK10MethodInfoPvPS4_
oxf:_Enum_ToObject_m322320225
xbc:__ZN13MonoBehaviour34StopCoroutineFromEnumeratorManagedE18ScriptingObjectPtr
tIe:_X509Certificate__ctor_m3860837120
eIj:_AnimationOffsetPlayable_CreateHandle_m1204489623
Tgi:_GameObject_Internal_CreateGameObject_m3428198595
CXh:__Z109RuntimeInvoker_RuntimeObject_Ray_t2469606224_Single_t2076509932_Int32_t2071877448_RuntimeObject_RuntimeObjectPFvvEPK10MethodInfoPvPS4_
zRj:_Camera_RaycastTry2D_m755036866
ZOg:_ReadOnlyCollection_1_System_Collections_Generic_IListU3CTU3E_set_Item_m3663361643_gshared
bIc:__ZN5physx2Gu30computeCapsule_TriangleMeshMTDERKNS_22PxTriangleMeshGeometryERKNS_11PxTransformERNS0_8CapsuleVEffbRNS_10PxSweepHitE
_Re:_EventTrigger_OnScroll_m626934407
NCb:__ZN30RuntimeInitializeOnLoadManager8TransferI18StreamedBinaryReadILb0EEEEvRT_
g8h:_TypeBuilder_not_supported_m3178173643
Che:_UNITY_tt_face_load_pclt
hcc:__ZL34GetComponentsImplementationRecurseILb1ELi0ELi2EEbR10GameObjectbRK17CompareParametersRK39GetComponentsImplementation_ReturnValue
Dpd:__ZThn8_N5physx2Sc19ShapeInstancePairLL10onActivateEj
mtl:__ZN6il2cpp6icalls8mscorlib6System9Threading5Mutex20CreateMutex_internalEbP12Il2CppStringPb
Jff:_ArrayListWrapper_Remove_m1105489978
zYa:__ZNK6Camera18WorldToScreenPointERK8Vector3fPb
gId:__ZN5physx2Cm12DelegateTaskINS_10PxsContextEXadL_ZNS2_28mergeCMDiscreteUpdateResultsEPNS_10PxBaseTaskEEEE11runInternalEv
Wvk:_Vector2_ToString_m775491729
VYd:__ZN5physx19TriangleMeshBuilder10importMeshERKNS_18PxTriangleMeshDescERKNS_15PxCookingParamsEb
Bjf:_HashKeys_CopyTo_m3566668422
Gza:__Z18IsCompressedFormat14GraphicsFormat
mv:__ZN7mecanim9animation19AdjustPoseForMotionERKNS0_14AvatarConstantERKNS0_14SkeletonTQSMapERKN4math4trsXERNS_10ValueArrayERNS_8skeleton13SkeletonPoseTIS8_EESG_
Edf:_Convert_ToSByte_m2665932200
y2:__ZNSt3__227__insertion_sort_incompleteIRPFbRKN18AwakeFromLoadQueue4ItemES4_EPS2_EEbT0_S9_T_
b7h:_ILGenerator_label_fixup_m1325994348
gTk:__ZN14dense_hash_mapI10KeyWrapperIN6il2cpp5utils13dynamic_arrayIPK10Il2CppTypeLj4EEEEPFvvENS1_8metadata19Il2CppSignatureHashENS8_14EqualsComparerINSB_22Il2CppSignatureCompareEEENSt3__29allocatorINSG_4pairIKS8_SA_EEEEE15set_deleted_keyERSJ_
uyj:_Navigation_Equals_m4214630671_AdjustorThunk
jMg:_ReadOnlyCollection_1_System_Collections_Generic_IListU3CTU3E_set_Item_m257196015_gshared
Pcd:__ZN5physx6shdfnd5ArrayINS_18PxClothFabricPhaseENS0_19ReflectionAllocatorIS2_EEE8recreateEj
Drb:__ZN26EnlightenSystemInformation8TransferI14SafeBinaryReadEEvRT_
_Of:_Array_InternalArray__get_Item_TisLink_t2723257478_m2281261655_gshared
UOj:_AudioClipPlayable_INTERNAL_CALL_GetIsPlayingInternal_m4246314919
qsd:__ZN5physx2Sq17SceneQueryManager11shiftOriginERKNS_6PxVec3E
cyb:__ZN12MeshRendererD0Ev
fGc:__ZN5physx2Gu16sweepBoxTriangleERKNS_10PxTriangleERKNS_9PxBounds3ERKNS_6PxVec3ES9_RS7_SA_Rf
Cif:_Hashtable__ctor_m2702360557
ei:_utime
FZd:__ZN5physx10writeChunkEaaaaRNS_14PxOutputStreamE
vWk:__ZN6il2cpp6icalls8mscorlib6System8MonoType18IsGenericParameterEPK10Il2CppType
XRg:_PrimalityTest_Invoke_m4058801829
An:FUNCTION_TABLE_viiiiif
Sgh:_RemotingConfiguration_SetCustomErrorsMode_m1844153208
ko:FUNCTION_TABLE_viiiiii
C3c:__ZN5physx2Sc9RigidCore13onShapeChangeERNS0_9ShapeCoreENS_7PxFlagsINS0_21ShapeChangeNotifyFlag4EnumEjEENS4_INS_11PxShapeFlag4EnumEhEE
SOf:_Array_InternalArray__get_Item_TisChar_t3454481338_m3646615547_gshared
KD:__ZN7mecanim9animation22DestroyAvatarWorkspaceEPNS0_15AvatarWorkspaceERNS_6memory9AllocatorE
JDl:dynCall_viddi
zrk:_ScriptableObject_CreateInstance_m3271154163
mhd:__ZN5physx6shdfnd5ArrayIPvNS0_15InlineAllocatorILj256ENS0_19ReflectionAllocatorINS_2Sc19ParticlePacketShapeEEEEEE15growAndPushBackERKS2_
FEd:__ZN5physx17solveContactBlockEPKNS_23PxcSolverConstraintDescEjRNS_16PxcSolverContextE
OZd:__ZN5physx6shdfnd10FoundationD2Ev
cGf:_Array_InternalArray__IndexOf_TisResourceCacheItem_t333236149_m761772858_gshared
Jnc:__ZNSt3__210__list_impIN10GUIManager12SortedScriptE11memory_poolIS2_EE5clearEv
Gob:__ZN14PlayableOutput17SetSourcePlayableEP8Playable
eRh:__Z68RuntimeInvoker_RuntimeObject_Vector3_t2243707580_Vector3_t2243707580PFvvEPK10MethodInfoPvPS4_
hhh:_TrackingServices__cctor_m3639412334
mqc:__Z32GUIStyle_Set_Custom_PropRichTextP12Il2CppObjecth
cD:__ZN7mecanim9animation29MotionOutputGetDeltaTransformEPKNS0_12MotionOutputE
zJe:_StrongNamePublicKeyBlob_Equals_m2407250401
vF:__ZN8Animator14OnAddComponentEPN5Unity9ComponentE
Uni:_Input_GetAxis_m2098048324
Txg:_List_1_CheckMatch_m1184924052_gshared
Blc:__Z43Transform_CUSTOM_INTERNAL_get_localRotationP12Il2CppObjectP11Quaternionf
Nyd:__ZN5physx2Sc10NPhaseCoreD2Ev
oTc:__ZN5physx2Sc7BodySim18onConstraintDetachEv
j4b:__ZZL23RegisterLightPropertiesR22GenericPropertyBindingEN20Wrapper_LightColorr013SetFloatValueEPvf
Ii:_emscripten_glGetTexParameteriv
lrd:__ZN5physx7NpScene8simulateEfPNS_10PxBaseTaskEPvjb
c8j:_InternalEnumerator_1_get_Current_m3206960238_gshared
sUg:_RSAManaged_ImportParameters_m3060955884
L_j:_ChannelData_CopyFrom_m4049054607
u$b:__Z13RegisterClassI4MeshEvv
eob:__ZN8PlayableD0Ev
CT:__Z84Register_UnityEngine_Audio_AudioMixerPlayable_INTERNAL_CALL_SetAutoNormalizeInternalv
zL:__ZN12AudioManager8TransferI19StreamedBinaryWriteILb0EEEEvRT_
d0f:_WriteDelegate_Invoke_m2103848735
hQb:__ZN18StreamedBinaryReadILb1EE21TransferSTLStyleArrayI13dynamic_arrayI11ColorRGBA32Lj4EEEEvRT_17TransferMetaFlags
WCk:_Locale_GetText_m512920887
ZQb:__Z18Transfer_BlittableI18StreamedBinaryReadILb0EELb0E8Vector2fEvRK29SerializationCommandArgumentsR31RuntimeSerializationCommandInfo
q0c:__ZN5physx18NpArticulationLink10clearForceENS_11PxForceMode4EnumE
Agh:_RemotingConfiguration_get_ProcessId_m3870172209
RCc:__ZN5physx2Gu30distanceSegmentTriangleSquaredERKNS_6PxVec3ES3_S3_S3_S3_PfS4_S4_
lrk:_SceneManager_LoadScene_m1386820036
eUf:_SortKey_ToString_m2406913228
tea:__ZN22LocalFileSystemHandler9MakeLocalER13FileEntryDatab
Uml:__ZN6il2cpp2vm8Profiler10AllocationEP12Il2CppObjectP11Il2CppClass
knf:_Convert_ToDateTime_m1020507389
Hee:__ZNSt3__23mapIN20TextRenderingPrivate7FontRefENS1_6OSFontENS_4lessIS2_EENS_9allocatorINS_4pairIKS2_S3_EEEEEixERS8_
eca:__Z13FormatOrderedPKcz
_Zf:_Path_IsPathRooted_m1347207448
tih:_ObjectManager_RegisterObjectInternal_m879109503
dAf:_Array_get_swapper_TisVector4_t2243707581_m97441823_gshared
rxa:__ZNSt3__26__sortIRNS_4lessIiEEPiEEvT0_S5_T_
Tbe:__ZN14SafeBinaryRead21TransferSTLStyleArrayI10vector_mapINSt3__24pairIttEEfN20TextRenderingPrivate8FontImpl14KerningCompareENS2_9allocatorINS3_IS4_fEEEEEEEvRT_17TransferMetaFlags
Q$b:__Z13RegisterClassI15QualitySettingsEvv
Bll:__ZN6il2cpp2vm6String21InitializeEmptyStringEP11Il2CppClass
H3a:__ZN25DeferredRenderLoopScratchD0Ev
hx:__ZN27AnimationLayerMixerPlayable14SetInputWeightEif
Ru:__ZN7mecanim9animation17EvaluateHumanPoseERKNS0_18ClipMuscleConstantERKNS0_15ClipMuscleInputEPKfRKNS0_12MotionOutputERNS_5human9HumanPoseE
eUb:__ZN15dense_hashtableINSt3__24pairIKiN4core17string_with_labelILi1EEEEEi18SInt32HashFunctionN14dense_hash_mapIiS5_S7_NS0_8equal_toIiEE13stl_allocatorIS6_L18MemLabelIdentifier1ELi16EEE9SelectKeyESA_SD_E9copy_fromERKSG_j
Vja:__ZN6Camera11ResetAspectEv
Tvh:_Type_get_IsGenericType_m3396841573
r7g:_X509BasicConstraintsExtension_get_HasPathLengthConstraint_m3788532759
Clb:__ZNK17InstancedPropInfo22FillInstancePropertiesER19ShaderPropertySheetjPK17BatchInstanceDatajRK15RenderNodeQueue
ula:__ZN22CreateGpuProgramOutputD2Ev
aHi:__ZL58_AssemblyBuilder_t418776366_CustomAttributesCacheGeneratorP21CustomAttributesCache
XLc:__ZNK5physx3Cct15ObstacleContext14getNbObstaclesEv
bcl:__ZN6il2cpp6icalls8mscorlib6System2IO6MonoIO9SetLengthE12Il2CppIntPtrxPi
FWd:__ZN5physx6shdfnd8PoolBaseINS_11NpAggregateENS0_19ReflectionAllocatorIS2_EEE12allocateSlabEv
gid:__ZN5physx7NpScene26removeFromParticleBaseListERNS_14PxParticleBaseE
PQf:_DateTimeFormatInfo_GetInstance_m3133223810
pRg:_ModulusRing_BarrettReduction_m2802101099
xdd:__ZN5physx2Sc9ClothCore23setSelfCollisionIndicesEPKjj
YQa:__ZN12HandlerChain4OpenER13FileEntryData14FilePermission16FileAutoBehavior
S1k:__ZN15dense_hashtableINSt3__24pairIK10KeyWrapperINS1_IPK10MethodInfoP11Il2CppClassEEEjEES9_17ReflectionMapHashIS8_EN14dense_hash_mapIS9_jSD_NS9_14EqualsComparerINS0_8equal_toIS8_EEEENS0_9allocatorISB_EEE9SelectKeyESI_SK_E6insertERKSB_
Vra:__ZN18AssetBundleManager55CollectPreloadObjectsFromAssetBundleLoadAssetOperationsER13dynamic_arrayIiLj4EE
m5:__ZN14FileCacherReadD2Ev
Kwa:__ZN13RendererScene23UpdatePreviousFrameDataEii
oGe:_RSAPKCS1SignatureDeformatter_VerifySignature_m1825067195
Efc:__Z50Register_UnityEngine_CullingGroup_FinalizerFailurev
njg:_KeyValuePair_2_ToString_m2613351884_gshared
Mmb:__ZN14SafeBinaryRead21TransferSTLStyleArrayI10vector_mapI7Hash128iNSt3__24lessIS2_EE13stl_allocatorINS3_4pairIS2_iEEL18MemLabelIdentifier80ELi16EEEEEvRT_17TransferMetaFlags
Dra:__ZN27UnloadUnusedAssetsOperationD0Ev
Mjb:__ZN6Camera15ThreadedCleanupEv
qcj:__ZL69ColorBlock_t2652774230_CustomAttributesCacheGenerator_m_DisabledColorP21CustomAttributesCache
wzj:_Scrollbar__ctor_m2244981801
Zbl:__ZN6il2cpp6icalls8mscorlib6System2IO6MonoIO9GetLengthE12Il2CppIntPtrPi
FBd:__ZN5physx10PxsCCDPair12updateShapesEv
SGe:_SHA256Managed_HashCore_m4111458495
Bzf:_CultureInfo_get_CompareInfo_m3085280862
Jsb:__ZN15StaticBatchInfo8TransferI14SafeBinaryReadEEvRT_
rZj:_DllImportAttribute__ctor_m1165454237
ujh:_ObjectManager_RecordDelayedFixup_m1895730844
BJ:__ZN9AudioClip23VirtualRedirectTransferER18StreamedBinaryReadILb0EE
JXg:_ClientSessionInfo_CheckDisposed_m1394638186
ulh:_SByte_Parse_m2544167007
Xdd:__ZN5physx2Sc9ClothCore22removeCollisionCapsuleEj
M9f:_BigInteger__ctor_m2945783161
tZg:_TlsClientHello_Update_m1723542631
jVf:_IndexOutOfRangeException__ctor_m3497760912
wUc:__ZN5physx16PxsIslandManager25setArticulationLinkHandleEjPvRKNS_20PxsIslandManagerHookIjLj4294967295EEE
fk:_glCopyTexSubImage2D
sgh:_RealProxy_InternalGetTransparentProxy_m3415358600
cMl:_glActiveTexture__wrapper
nyk:_Predicate_1_Invoke_m3001657933_gshared
oda:__ZN18ScreenManagerWebGL13SetShowCursorEb
Sml:__ZN6il2cpp6icalls8mscorlib6System7Convert24InternalFromBase64StringEP12Il2CppStringb
VHe:_SymmetricAlgorithm_CreateDecryptor_m4240570785
jFj:_Text_get_preferredWidth_m3352156860
Xte:__ZN2UI13CanvasManager14GetRenderOrderEPKNS_6CanvasE
l2c:__ZN5physx6shdfnd5ArrayIPNS_3Scb5ShapeENS0_15InlineAllocatorILj16ENS0_19ReflectionAllocatorIS4_EEEEE15growAndPushBackERKS4_
pGb:__Z18Transfer_BlittableI14SafeBinaryReadLb0E5RectTIfEEvRK29SerializationCommandArgumentsR31RuntimeSerializationCommandInfo
gDa:__ZN9GfxDevice18InsertCustomMarkerEi
nNg:_ReadOnlyCollection_1_System_Collections_Generic_IListU3CTU3E_RemoveAt_m878653284_gshared
VQf:_DateTimeFormatInfo_GetFormat_m3676195179
ZFa:__ZN14GfxContextGLES14GetFramebufferEv
Hoa:__ZN6prcoreL21CreateRemapAnyBlitterE13TextureFormatS0_
cac:__ZN17AnimationCurveTplIfE16StripInvalidKeysEv
$Gf:_Array_InternalArray__ICollection_Add_TisKeyValuePair_2_t3716250094_m2381539361_gshared
Xgg:_X509Extension_WriteLine_m2850991173
Qse:__ZNK2UI6Canvas17GetSortingLayerIDEv
LZk:_il2cpp_method_has_attribute
V5b:__Z13RegisterClassI17GlobalGameManagerEvv
m6a:__ZN8Renderer24SetupNewRendererForSceneEv
c_k:_il2cpp_type_get_class_or_element_class
DBf:_Array_InternalArray__ICollection_Remove_TisInt64_t909078037_m2653583130_gshared
krh:_Thread_get_ExecutionContext_m922067206
awc:__Z35Transfer_Blittable_FixedBufferFieldI8JSONReadtEvRK29SerializationCommandArgumentsR31RuntimeSerializationCommandInfo
aNd:__ZN5physx2Sc8ClothSim16addCollisionMeshEPKNS0_8ShapeSimE
S6b:__ZN14PlayableOutput6HandleEv
Wtb:__ZNK6Sprite22GetTypeVirtualInternalEv
eo:FUNCTION_TABLE_iiiiiiiiiiiiii
wNh:__Z100RuntimeInvoker_Void_t1841601450_SByte_t454417549_SByte_t454417549_Int32_t2071877448_SByte_t454417549PFvvEPK10MethodInfoPvPS4_
dSd:__ZN5physx6shdfnd5ArrayIPKNS_10PxsCCDBodyENS0_19ReflectionAllocatorIS4_EEE8recreateEj
f2c:__ZN5physx6shdfnd4sortINS_2Cm19PreallocatingRegionENS0_4LessIS3_EENS0_19ReflectionAllocatorIS3_EEEEvPT_jRKT0_RKT1_j
_mb:__ZN11Tetrahedron8TransferI24GenerateTypeTreeTransferEEvRT_
sie:_UNITY_tt_get_cmap_info
O9a:__ZN16ReflectionProbes8ScheduleEN18ReflectionProbeJob7JobTypeEP15ReflectionProbei
CGg:_Collection_1_IsFixedSize_m3675221982_gshared
Zlg:_Enumerator_MoveNext_m3293920409_AdjustorThunk
Kea:__Z18IsDirectoryCreatedRKN4core12basic_stringIcNS_20StringStorageDefaultIcEEEE
G$h:__Z68RuntimeInvoker_Void_t1841601450_Int32_t2071877448_Double_t4078015681PFvvEPK10MethodInfoPvPS4_
Wre:__ZN2UI13CanvasManagerD2Ev
Nfk:_Comparer_1__cctor_m3112251759_gshared
B6g:_X509KeyUsageExtension_ToString_m1992050580
mee:_UNITY_FT_GlyphLoader_Done
bkk:_BalancingGroup__ctor_m2474435406
u_j:_ConstructionCall__ctor_m1143766850
qni:_GUIStyleState_Init_m2434147050
m0d:__ZN19CharacterController12SetIsTriggerEb
Ofk:_Comparer_1_System_Collections_IComparer_Compare_m3203078743_gshared
Mti:_PlayableHandle_IsValid_m1005197654_AdjustorThunk
mFd:__ZN5physx18ComputeSortedListsEPNS_2Cm10BitMapBaseINS_6shdfnd9AllocatorEEEjjPKjPPNS_8SapBox1DES7_PjSB_jRKNS_2Gu4AxesESB_RjSB_SG_RbSH_
AG:__ZN17AnimationPlayable8OwnAssetEP11NamedObject
gje:_tt_cmap14_char_var_index
pRj:_Camera_INTERNAL_CALL_ScreenPointToRay_m2752248646
Fke:_psh_globals_new
T$f:_FileStream_Seek_m950719389
vnf:_Decimal_stripStyles_m294582157
KMj:_AnimatorControllerPlayable_Play_m614561002
Qza:__ZN9GfxDevice20SetMaxBufferedFramesEi
dfe:__ZNK20TextRenderingPrivate8TextMesh22GetTypeVirtualInternalEv
BFh:__Z98RuntimeInvoker_Void_t1841601450_Int32_t2071877448_Int32_t2071877448_RuntimeObject_SByte_t454417549PFvvEPK10MethodInfoPvPS4_
FCl:dynCall_vdd
tte:__ZN2UIL17UnloadAllCanvasesEv
Zcb:__Z23ConvertIntegerToTypePtrIsEbPvR14SafeBinaryRead
jHi:__ZL54_MethodBase_t1935530873_CustomAttributesCacheGeneratorP21CustomAttributesCache
uZc:__ZNK5physx14NpArticulation17releaseDriveCacheERNS_24PxArticulationDriveCacheE
gIh:__Z96RuntimeInvoker_Void_t1841601450_SByte_t454417549_RuntimeObject_SByte_t454417549_SByte_t454417549PFvvEPK10MethodInfoPvPS4_
egf:_FixedSizeArrayListWrapper_Remove_m1359458911
Poa:__ZN6prcoreL29inner_stretch_rgb565_bilinearEPKNS_9InnerInfoE
ydd:__ZNK5physx2Sc9ClothCore25getSelfCollisionStiffnessEv
Ive:__Z33Canvas_Get_Custom_PropWorldCameraP12Il2CppObject
xEj:_Text_get_mainTexture_m813502234
Vul:__ZN6il2cpp8metadata19Il2CppSignatureHash4HashERKNS_5utils13dynamic_arrayIPK10Il2CppTypeLj4EEE
ESk:__ZNK15dense_hashtableINSt3__24pairIK10KeyWrapperIN6il2cpp5utils13dynamic_arrayIPK10Il2CppTypeLj4EEEEPFvvEEESA_NS3_8metadata19Il2CppSignatureHashEN14dense_hash_mapISA_SD_SG_NSA_14EqualsComparerINSF_22Il2CppSignatureCompareEEENS0_9allocatorISE_EEE9SelectKeyESK_SM_E12test_deletedEj
O2a:__ZNK14RenderSettings19GetFlatAmbientColorEv
Xua:__ZN6prcoreL10inner_flipILj4EEEvPhS1_j
mAb:__ZN18StreamedBinaryReadILb0EE21TransferSTLStyleArrayI10vector_mapIPKN5Unity4TypeE7Hash128NSt3__24lessIS6_EENS8_9allocatorINS8_4pairIS6_S7_EEEEEEEvRT_17TransferMetaFlags
fz:__ZNK27StateMachineBehaviourPlayer15IsSenderEnabledEv
UJj:_AnimatorControllerPlayable_SetInteger_m881630854
v3e:_InputField_get_shouldHideMobileInput_m3694613599
$lc:__Z40Register_UnityEngine_Transform_SetParentv
gQj:_AudioConfigurationChangeHandler_Invoke_m635374412
pMh:__Z56RuntimeInvoker_TimeSpan_t3430258949_TimeSpan_t3430258949PFvvEPK10MethodInfoPvPS4_
Pvb:__ZN14Texture2DArray17UploadToGfxDeviceEv
JMg:_ReadOnlyCollection_1_System_Collections_Generic_IListU3CTU3E_Insert_m4216310986_gshared
TIg:_ReadOnlyCollection_1_System_Collections_Generic_IListU3CTU3E_set_Item_m1532495847_gshared
eN:__Z14FMODMemoryFreePvjPKc
xie:_tt_cmap0_validate
Y2e:_Image_AddQuad_m1600600902
Yle:_cf2_glyphpath_moveTo
hvd:__ZN5physx3Scb4Body9syncStateEv
isf:_DateTimeOffset__ctor_m1796624924
nji:_GUILayoutUtility_get_spaceStyle_m1918520192
E1c:__ZN5physx12PxsRigidBody23updatePoseDependenciesVERNS_10PxsContextE
kRe:_BaseRaycaster_OnDisable_m1716508791
Ov:__ZN7mecanim23TransformValueArrayLoopEiiiRKN4math4trsXES3_RNS_10ValueArrayEf
JVd:__ZN5physx2Gu12TriangleMesh4loadERNS_13PxInputStreamE
Xql:_GC_is_heap_ptr
rEg:_Collection_1_IsValidItem_m429993695_gshared
M9k:__GLOBAL__sub_I_Assembly_cpp
nra:__Z21PlayerStartFirstSceneb
qC:__ZN7mecanim5human10RetargetToEPKNS0_5HumanEPKNS0_9HumanPoseES6_RKN4math4trsXEPS4_PNS_8skeleton13SkeletonPoseTIS8_EESF_
Hv:__ZN7mecanim9animation8SeekClipERKNS0_12StreamedClipERNS0_18StreamedClipMemoryEf
Mm:_emscripten_glIsTexture
xpi:_Mathf_Clamp_m3542052159
Mff:_ArrayListWrapper_CopyTo_m793444109
rl:_emscripten_glHint
kpe:_ft_var_readpackeddeltas
Brf:_DateTime_AddMilliseconds_m1813199744_AdjustorThunk
Hjc:__Z65PlayableOutputHandle_CUSTOM_INTERNAL_CALL_GetPlayableOutputTypeOfR15HPlayableOutput
R9g:_X509ChainStatus_t4278378721_marshal_pinvoke
iUg:_RSAManaged__ctor_m1680944437
Pm:_SDL_UpperBlit
umi:_GUIStyle_op_Implicit_m781448948
u3a:__Z35GetTextureDecodeValuesWithIntensity16TextureUsageMode17TextureColorSpace10ColorSpacef
Qcf:_Byte_GetHashCode_m2885528842_AdjustorThunk
m9c:__ZNK5physx7NpShape16getContactOffsetEv
hHd:__ZN5physx14PxsAABBManager21processAggregatePairsEPKNS_19AggregateSortedDataE
opj:_Dictionary_2_OnDeserialization_m2092139626_gshared
T6d:_PxCreateCooking
FDb:__ZN14SafeBinaryRead20OverrideRootTypeNameEPKc
q5:__ZN14FileCacherRead16UnlockCacheBlockEj
Xyh:_UIntPtr_get_Size_m537421489
$fg:_X509Certificate_GetUnsignedBigInteger_m3491353542
fce:__ZNSt3__26vectorIN4core12basic_stringIcNS1_20StringStorageDefaultIcEEEE13stl_allocatorIS5_L18MemLabelIdentifier34ELi16EEE6assignINS_11__wrap_iterIPS5_EEEENS_9enable_ifIXaasr21__is_forward_iteratorIT_EE5valuesr16is_constructibleIS5_NS_15iterator_traitsISF_E9referenceEEE5valueEvE4typeESF_SF_
ACl:dynCall_iifii
pd:_emscripten_glUniform1f
Nee:__Z20ParseImageParametersR11UTF16StringRiRN20TextRenderingPrivate16TextFormatChangeE
ud:_emscripten_glUniform1i
xDb:__ZN13MonoBehaviour9CallAwakeEv
_6:__Z33UnregisterDeviceEventCallbackImplPFv23UnityGfxDeviceEventTypeE
NQd:__ZN5physx2Sc19ShapeInstancePairLL23postIslandGenSecondPassEv
gMj:_AnimatorControllerPlayable_CrossFade_m3391147919
y1d:__ZN14PhysicsManager23VirtualRedirectTransferER19StreamedBinaryWriteILb0EE
GVb:__ZN9ShaderLab16SerializedTagMapaSERKS0_
sV:__ZN11UnityEngine15CloudWebService16SessionContainer20RestoreSessionHeaderERKN4core12basic_stringIcNS2_20StringStorageDefaultIcEEEES8_RNS0_13SessionHeaderE
wAd:__ZN5physx2Sq16BucketPrunerCore12updateObjectERKNS_9PxBounds3ERKNS0_13PrunerPayloadE
_Pd:__ZN5physx18PxsDynamicsContext23atomIntegrationParallelEfPKPNS_11PxsBodyCoreEPKPNS_12PxsRigidBodyEjPKNS_2Cm13SpatialVectorEPNS_13PxcSolverBodyEPNS_17PxcSolverBodyDataEPSA_RjSI_RNS_10PxBaseTaskE
yD:__ZN11UnityEngine9Animation27CreateAvatarBindingConstantER9TransformPKN7mecanim9animation14AvatarConstantERNS3_6memory9AllocatorE
kCb:__ZN14SafeBinaryRead21TransferSTLStyleArrayINSt3__26vectorIN30RuntimeInitializeOnLoadManager9ClassInfoE13stl_allocatorIS4_L18MemLabelIdentifier12ELi16EEEEEEvRT_17TransferMetaFlags
Gzh:_UnitySerializationHolder_GetObjectData_m2280028722
gyh:_UInt64_System_IConvertible_ToDateTime_m2412118561
Pcc:__ZN9BlobWriteC2ER13dynamic_arrayIhLj16EE24TransferInstructionFlags19BuildTargetPlatform
H3:__ZN14MessageHandler3GetEv
Mki:_GUISkin_set_verticalScrollbarThumb_m2647835739
Id:_emscripten_glAttachShader
ALg:_ReadOnlyCollection_1__ctor_m1539890895_gshared
Pza:__ZN9GfxDevice13SetActiveTierE12GraphicsTier
Jkg:_Enumerator_System_Collections_IEnumerator_get_Current_m3079057684_AdjustorThunk
RBf:_Array_InternalArray__ICollection_Remove_TisSingle_t2076509932_m2568053761_gshared
Wyb:__ZNSt3__26vectorIN4core12basic_stringIcNS1_20StringStorageDefaultIcEEEENS_9allocatorIS5_EEE6assignIPS5_EENS_9enable_ifIXaasr21__is_forward_iteratorIT_EE5valuesr16is_constructibleIS5_NS_15iterator_traitsISC_E9referenceEEE5valueEvE4typeESC_SC_
Rcg:_KeyPairPersistence_get_UserPath_m3433052783
CJc:__ZN5physx2Gu19GetRaycastFuncTableEv
lbe:__Z49Register_UnityEngine_MeshCollider_get_inflateMeshv
Hyi:__ZL58Decimal_t724701077_CustomAttributesCacheGenerator_MinusOneP21CustomAttributesCache
_Fb:__Z18Transfer_BlittableI14SafeBinaryReadLb0E11QuaternionfEvRK29SerializationCommandArgumentsR31RuntimeSerializationCommandInfo
FQd:__ZN5physx17EdgeChangeManager23cleanupBrokenEdgeEventsEPKNS_4EdgeE
zRb:__Z18Transfer_BlittableI18StreamedBinaryReadILb0EELb1E12PropertyNameEvRK29SerializationCommandArgumentsR31RuntimeSerializationCommandInfo
n_:_tlsf_walk_heap
zfg:_PKCS12_Decode_m731190390
fYk:__ZN6il2cpp2vm7Runtime6InvokeEPK10MethodInfoPvPS5_PP15Il2CppException
eak:_InternalEnumerator_1_get_Current_m1550231132_gshared
Tzh:_Version_CheckedSet_m76493673
Bb:invoke_vif
Cb:invoke_vid
yAl:__ZNSt3__212basic_stringIcNS_11char_traitsIcEENS_9allocatorIcEEE6insertEjPKc
uLi:__ZL67UnverifiableCodeAttribute_t765455733_CustomAttributesCacheGeneratorP21CustomAttributesCache
Db:invoke_vii
Atd:__ZN5physx13NpVolumeCacheD2Ev
NVf:_Int16_System_IConvertible_ToUInt32_m883204517_AdjustorThunk
kfb:__ZN12TLSAllocatorI14StackAllocatorE16ThreadInitializeEP13BaseAllocator
iff:_ArrayList_Sort_m2778059513
nZe:_FloatTween_TweenValue_m3881535116_AdjustorThunk
ANd:__ZThn8_N5physx2Sc35ParticleElementRbElementInteraction12onDeactivateEj
P1e:_LayoutGroup_SetChildAlongAxis_m2732017156
Pue:__Z41CanvasRenderer_CUSTOM_DisableRectClippingP12Il2CppObject
$Sg:_MD2_Create_m539024737
rDd:__ZN5physx16PxsThreadContextC2EPNS_10PxsContextE
yOh:__Z112RuntimeInvoker_Void_t1841601450_RuntimeObject_Int32_t2071877448_Int32_t2071877448_RuntimeObject_SByte_t454417549PFvvEPK10MethodInfoPvPS4_
LQa:__ZN25SingleBlockMemoryFileDataD0Ev
ihb:__ZNSt3__26vectorI14ConstantStringNS_9allocatorIS1_EEE6assignINS_11__wrap_iterIPS1_EEEENS_9enable_ifIXaasr21__is_forward_iteratorIT_EE5valuesr16is_constructibleIS1_NS_15iterator_traitsISA_E9referenceEEE5valueEvE4typeESA_SA_
Vzc:__ZN5physx3Cct10Controller4moveERNS0_11SweptVolumeERKNS_6PxVec3EffRKNS_19PxControllerFiltersEPKNS_17PxObstacleContextEb
nV:__ZN11UnityEngine15CloudWebService16SessionContainer21ConvertFromFolderTimeERKN4core12basic_stringIcNS2_20StringStorageDefaultIcEEEEPjPt
Tkd:__ZN5physx14NpRigidDynamic17setAngularDampingEf
uHb:__ZNSt3__26vectorI8GUIStyle13stl_allocatorIS1_L18MemLabelIdentifier1ELi16EEE7reserveEj
I9k:__ZN6il2cpp6icalls8mscorlib6System9Threading6Thread27GetSerializedCurrentCultureEP12Il2CppThread
lGf:_Array_InternalArray__IndexOf_TisUInt32_t2149682021_m3231515987_gshared
n1b:__Z31CalculateHierarchyTransformType23TransformAccessReadOnly
J$b:__Z13RegisterClassI11TimeManagerEvv
WM:__ZN4FMOD8ChannelI11setPositionEjj
ZGh:__Z136RuntimeInvoker_IntPtr_t_RuntimeObject_Int32_t2071877448_Int32_t2071877448_Int32_t2071877448_Int32_t2071877448_MonoIOErrorU26_t1029615899PFvvEPK10MethodInfoPvPS4_
alg:_Enumerator_VerifyState_m4188527104_gshared
cWc:__ZN5physx6shdfnd8PoolBaseINS_2Sc12SimStateDataENS0_19ReflectionAllocatorIS3_EEE17releaseEmptySlabsEv
fba:__ZN17BaseObjectManager13StaticDestroyEPv
ktk:_TextGenerationSettings_CompareVector2_m592645251
Lsf:_DBNull_System_IConvertible_ToChar_m3344298044
KDc:__ZN5physx2Gu22closestPtPointTriangleEPNS_6shdfnd3aos5Vec3VES4_S4_Rj
Mgg:_X509Certificate_GetObjectData_m3888130484
GBb:__ZNSt3__26vectorIN15ResourceManager10DependencyE13stl_allocatorIS2_L18MemLabelIdentifier51ELi16EEEC2INS_11__wrap_iterIPS2_EEEET_SB_RKS5_PNS_9enable_ifIXaasr21__is_forward_iteratorISB_EE5valuesr16is_constructibleIS2_NS_15iterator_traitsISB_E9referenceEEE5valueEvE4typeE
Z3c:__ZN5physx2Cm8PtrTableC2Ev
zgk:_LinkStack_Push_m2660199875
QL:__ZN4FMOD6Reverb13setPropertiesEPK22FMOD_REVERB_PROPERTIES
TZa:__ZN9DepthPass13PrepareSubsetEjRK10RenderNodeifRK17ShaderReplaceData
BGd:__ZN5physx16PxsBroadPhaseMBP6updateEjjRKNS_23PxcBroadPhaseUpdateDataEPNS_10PxBaseTaskE
N7c:__ZN5physx9NpPhysics18createRigidDynamicERKNS_11PxTransformE
TQc:__ZN5physx6shdfnd5ArrayIPvNS0_19ReflectionAllocatorINS_2Sc18TriggerInteractionEEEE15growAndPushBackERKS2_
Fnk:_X509CertificateCollection_Add_m4008705157
E8b:__Z35SetMeshComponentFromArrayFromScriptR4Mesh30InternalScriptingShaderChannel34InternalScriptingVertexChannelTypei17ScriptingArrayPtri
tNg:_ReadOnlyCollection_1_System_Collections_IList_Add_m3806843030_gshared
KDg:_Collection_1_IsFixedSize_m1816795498_gshared
cHc:__ZN5physx2Gu17intersectRayAABB2ERKNS_6shdfnd3aos5Vec3VES5_S5_S5_RKNS2_6FloatVERS6_S9_
Cr:__ZN4core20StringStorageDefaultIcE6assignEPKcj
V8c:__ZNK5physx7NpShape17getSphereGeometryERNS_16PxSphereGeometryE
eJc:__ZL18intersectAnyVsMeshILi1EEbPKN5physx2Gu6SphereEPKNS1_7CapsuleEPKNS1_3BoxERKNS1_13RTreeMidphaseERKNS0_11PxTransformERKNS0_11PxMeshScaleEP14LimitedResults
lgl:__ZN15dense_hashtableINSt3__24pairIK10KeyWrapperIP12Il2CppObjectEN6il2cpp2gc9CachedCCWEEES5_NS7_5utils11PointerHashIS3_EEN14dense_hash_mapIS5_S9_SD_NS5_14EqualsComparerINS0_8equal_toIS4_EEEENS0_9allocatorISA_EEE9SelectKeyESI_SK_E3endEv
nCb:__Z14resize_trimmedINSt3__26vectorIi13stl_allocatorIiL18MemLabelIdentifier12ELi16EEEEEvRT_j
uUe:_MouseButtonEventData_ReleasedThisFrame_m482758300
_6k:__ZN15dense_hashtableINSt3__24pairIK10KeyWrapperINS1_IP11Il2CppClassjEEES4_EES6_N6il2cpp8metadata14ArrayClassHashEN14dense_hash_mapIS6_S4_SB_NS6_14EqualsComparerINSA_17ArrayClassCompareEEENS0_9allocatorIS8_EEE9SelectKeyESF_SH_E9copy_fromERKSK_j
kUc:__ZN5physx6shdfnd5ArrayIPvNS0_15InlineAllocatorILj256ENS0_19ReflectionAllocatorINS_2Cm5BlockIhLj128EEEEEEEE15growAndPushBackERKS2_
jgf:_ReadOnlyArrayListWrapper_set_Item_m2199017141
C7a:__ZN6Camera6SetFarEf
Ank:_DeriveBytes_DeriveIV_m3343375195
Yfe:_UNITY_FT_Init_Class_ft_bitmap_glyph_class
CFe:_RNGCryptoServiceProvider_GetBytes_m167497991
xpa:__ZN6prcoreL12RemapGenericI17TexFormatABGR888817TexFormatARGB8888EEvPKNS_9InnerInfoE
Hhb:__ZN11GameManager17MainThreadCleanupEv
uwe:__Z50Register_UnityEngine_UISystemProfilerApi_EndSamplev
Q7h:_TypeBuilder_get_Assembly_m492491492
xbd:__ZNK5physx7NpCloth24getParticleAccelerationsEPNS_6PxVec4E
Zne:_UNITY_tt_slot_init
STa:__ZZ23InitPlayerLoopCallbacksvEN41PostLateUpdateUpdateResolutionRegistrator7ForwardEv
ADe:_HMACSHA512__cctor_m1167457383
QSb:__Z25scripting_array_class_get17ScriptingClassPtrj
nuc:__ZL22Transfer_ManagedObjectI9JSONWriteLb1EEvRK29SerializationCommandArgumentsR31RuntimeSerializationCommandInfo
jJ:__ZNK10SampleClip22GetTypeVirtualInternalEv
kBa:__ZN9GfxDevice20DestroyRenderSurfaceER12ObjectHandleI17RenderSurface_TagP17RenderSurfaceBaseE
Wba:__ZN18SpriteAtlasManagerC2Ev
AOa:__ZN9GfxDevice22UpdateComputeResourcesEjPK9TextureIDPK16TextureDimensionPKijPKjjPK15ComputeBufferIDS7_PK20ComputeBufferCounterjSC_S2_S5_S9_SF_
D5b:__ZN12_GLOBAL__N_15qAsinEff
DNf:_Dictionary_2_Do_ICollectionCopyTo_TisKeyValuePair_2_t3749587448_m2536766696_gshared
lfb:__ZN12TLSAllocatorI14StackAllocatorE13ThreadCleanupEv
nFf:_Array_IndexOf_TisRuntimeObject_m1815604637_gshared
Bml:__ZThn4_N6il2cpp2vm13ComObjectBase16MarshalInterfaceEP13Il2CppIStreamRK10Il2CppGuidPvjS7_j
Cwb:__ZN4Mesh27SwizzleVertexColorsIfNeededEb
Tfb:__Z27FindActiveTransformWithPathPKc
eSj:_CanvasGroup_get_alpha_m1304564441
mpd:__ZN5physx16PxsIslandManager14setEdgeRigidCMERKNS_20PxsIslandManagerHookIjLj4294967295EEEPNS_17PxsContactManagerE
aia:__ZN7Texture5ResetEv
iOj:_AsyncOperation_Finalize_m67522446
ehg:_SecurityParser_OnEndElement_m2909940377
aVd:__ZN5physx2Gu11HeightField7releaseEv
P$a:__ZNK6Camera7GetNearEv
pJa:__ZN7ApiGLES11UnmapBufferEjN2gl12BufferTargetE
Mml:__ZN6il2cpp5utilsL24Utf32CharToSurrogatePairEjRA2_Ds
tqb:__Z25GetNextAllowedTextureSizeib13TextureFormat
qea:__ZN20LocalFileSystemWebGL4CopyER13FileEntryDataS1_
ltg:_List_1_CheckIndex_m4231572822_gshared
OX:__ZN19CloudServiceHandler6RetainEv
oKe:_StrongName_Equals_m67226644
_ib:__ZN12BaseRenderer20FlattenToRenderQueueER15RenderNodeQueueRK20DeprecatedSourceData
bNd:__ZN5physx2Sc8ClothSim23addCollisionHeightfieldEPKNS0_8ShapeSimE
E3f:_UnmanagedMemoryStream_get_Length_m587008850
csa:__Z34scripting_liveness_calculation_endPv
pil:__ZN6il2cpp2os6ThreadC2Ev
dLe:_SecurityFrame_InitFromRuntimeFrame_m45195821
cv:__ZN21AnimationClipPlayable22ProcessAnimationNoClipEPK35AnimationPlayableEvaluationConstantPK32AnimationPlayableEvaluationInputP33AnimationPlayableEvaluationOutput
yBf:_Array_InternalArray__ICollection_Remove_TisDateTime_t693205669_m1275668216_gshared
lqe:__ZNK19TextRenderingModule8TMGenGetERK11UTF16StringPN13TextRendering4FontE10TextAnchor13TextAlignmentfffbb11ColorRGBA32fii
Kvc:__Z18Transfer_BlittableI8JSONReadLb0E8Vector3fEvRK29SerializationCommandArgumentsR31RuntimeSerializationCommandInfo
P_j:_ChannelServices__cctor_m3534779830
B8k:__ZN6il2cpp2vm6Thread6DetachEP12Il2CppThread
Pje:_Render_Single_Pass
nof:_Convert_ToInt16_m416789348
fFk:_EqualityComparer_1__cctor_m2666196678_gshared
cjj:_Enumerator_get_CurrentValue_m3147984131_AdjustorThunk
Zhi:_GUIStyle_Init_m3872198731
ED:__ZN7mecanim8skeleton30SkeletonBuildReverseIndexArrayEPiPKiPKNS0_8SkeletonES6_
bnc:__Z19GetGUIBlendMaterialv
kTh:__Z69RuntimeInvoker_Boolean_t3825574718_TextGenerationSettings_t2543476768PFvvEPK10MethodInfoPvPS4_
bjl:__ZN6il2cpp2os10ThreadImpl5SleepEjb
PFd:__ZN5physx14SapPairManager12shrinkMemoryEv
pGg:_Collection_1_InsertItem_m1073626529_gshared
oZd:__ZN5physx6shdfnd8internal7median3IjKNS_19SortBoundsPredicateEEEvPT_iiRT0_
BOf:_PlayableExtensions_SetInputCount_TisPlayable_t1896841784_m86933189_gshared
x2g:_ListDictionary_FindEntry_m432748847
MIl:_glBindSampler__wrapper
Gzk:_UnityAction_1_Invoke_m3523417209_gshared
og:_emscripten_set_mouseup_callback
PTb:__Z14resize_trimmedINSt3__26vectorIN9ShaderLab14SerializedPassENS0_9allocatorIS3_EEEEEvRT_j
_rd:__ZN5physx7NpScene22removeBroadPhaseRegionEj
kRc:__ZL34GeomOverlapCallback_CapsuleCapsuleRKN5physx10PxGeometryERKNS_11PxTransformES2_S5_PNS_2Gu12TriggerCacheE
zda:__ZNK18ScreenManagerWebGL8GetWidthEv
grd:__ZNK5physx7NpScene23getFilterShaderDataSizeEv
UCl:dynCall_iiifii
w1e:_GridLayoutGroup_set_startAxis_m1635162426
gJ:__ZN10SampleClipD2Ev
v1j:_SynchronizationAttribute_EnterContext_m2984912761
Nzf:_CultureInfo_construct_internal_locale_from_name_m971766383
QHf:_Array_InternalArray__ICollection_Add_TisUIVertex_t1204258818_m3869382594_gshared
yX:__ZN11UnityEngine15CloudWebService20WebRequestRestClientC2Ev
tne:_cff_cmap_unicode_init
dxf:_Enum_ToObject_m2460371738
Jag:_PrimalityTests_Test_m1088386156
apc:__Z36Event_CUSTOM_Internal_SetNativeEvent13Il2Cpp_IntPtr
_yl:_readlink
Wik:_ExpressionAssertion__ctor_m2408911632
bMf:_Array_Resize_TisVector3_t2243707580_m893658391_gshared
v6j:_InternalEnumerator_1_System_Collections_IEnumerator_get_Current_m4259662004_AdjustorThunk
FPf:_Array_InternalArray__get_Item_TisKeyframe_t1449471340_m1003508933_gshared
Ksl:__ZN6il2cpp8metadata14Il2CppTypeHash4HashEPK10Il2CppType
pKh:__Z50RuntimeInvoker_Double_t4078015681_Int64_t909078037PFvvEPK10MethodInfoPvPS4_
tfg:_StrongName_get_PublicKeyToken_m1968460885
Myb:__ZNK6Sprite9GetBoundsE8Vector2fbb
IVa:__ZNK19RenderEventsContext21CleanupCommandBuffersEv
wEa:__ZN11ContextGLES6CreateEi
EIc:__ZN5physx6shdfnd5ArrayINS_10PxTriangleENS0_19ReflectionAllocatorIS2_EEE15growAndPushBackERKS2_
iZf:_BinaryReader_Dispose_m4249456877
snf:_Double_ToString_m1085043609
pSb:__Z19TransferField_ArrayI18StreamedBinaryReadILb0EE27Converter_SimpleNativeClassI17AnimationCurveTplIfEEEvRK23StaticTransferFieldInfoR31RuntimeSerializationCommandInfoRT0_
DVg:_CipherSuite_createEncryptionCipher_m1926075645
Yeb:__ZN14StackAllocator16FrameMaintenanceEb
WDc:__ZL11SweepBoxBoxPKN5physx3Cct9SweepTestEPKNS0_11SweptVolumeEPKNS0_11TouchedGeomERKNS_14PxExtendedVec3ERKNS_6PxVec3ERNS0_12SweptContactE
zhb:__Z18ReadStringFromFilePN4core17string_with_labelILi1EEERKNS_12basic_stringIcNS_20StringStorageDefaultIcEEEE
c0:__ZNK10GameObject20QueryComponentByTypeEPKN5Unity4TypeE
Olg:_Enumerator_MoveNext_m1367380970_AdjustorThunk
ebi:_OpCode_GetHashCode_m2974727122
EVg:_CipherSuite_createDecryptionCipher_m1118350455
Ehk:_PatternCompiler_EmitReference_m1381860071
lI:__Z78AnimatorControllerPlayable_CUSTOM_INTERNAL_CALL_IsParameterControlledByCurveIDR9HPlayablei
Vvf:_Double_System_IConvertible_ToInt16_m4200640326
Sva:__ZN11TextureData5ResetEv
Ogc:__Z53Register_UnityEngine_GameObject_get_activeInHierarchyv
A1:__ZL30InitializeCoreScriptingClassesv
AGg:_Collection_1_CheckWritable_m3938993573_gshared
jh:_glBlitFramebuffer
cxd:__ZNK5physx2Sc5Scene17prefetchForRemoveERKNS0_10StaticCoreE
Rag:_BigInteger_GeneratePseudoPrime_m2606361440
TIb:__Z35Transfer_Blittable_SingleValueFieldI14SafeBinaryReadhEvRT_R17GeneralMonoObjectRK23StaticTransferFieldInfo
hAe:__ZN22BaseUnityConnectClientC2ERN11UnityEngine7Connect20BasePersistentValuesE
_eh:_RemotingServices_GetRealProxy_m620317996
h_a:__ZN13dynamic_arrayI11CulledLightLj4EE6insertEPS0_PKS0_S4_
yjc:__Z81Register_UnityEngine_Playables_PlayableHandle_INTERNAL_CALL_SetInputCountInternalv
fpb:__ZNK12CubemapArray22GetTypeVirtualInternalEv
Nxk:_Predicate_1_Invoke_m2060780095_gshared
gnb:__ZN11Tetrahedron8TransferI18StreamedBinaryReadILb0EEEEvRT_
Io:FUNCTION_TABLE_vif
Jo:FUNCTION_TABLE_vid
Ko:FUNCTION_TABLE_vii
qsa:__Z40scripting_liveness_calculation_from_root18ScriptingObjectPtrPv
Aka:__ZN7Texture23VirtualRedirectTransferER24GenerateTypeTreeTransfer
rde:_UNITY_FT_Set_Transform
i3j:_ArrayReadOnlyList_1_Contains_m1266627404_gshared
YNh:__Z101RuntimeInvoker_OpFlags_t378191910_SByte_t454417549_SByte_t454417549_SByte_t454417549_SByte_t454417549PFvvEPK10MethodInfoPvPS4_
rIl:_glDeleteFramebuffers__wrapper
o2e:_Image_get_overrideSprite_m706080347
cgc:__Z36Register_UnityEngine_RectOffset_Initv
cRg:_BigInteger_ModInverse_m1881894572
dYk:__ZN6il2cpp2vm7Runtime17GetDelegateInvokeEP11Il2CppClass
hqg:_List_1_AddEnumerable_m3541747636_gshared
Frb:__ZN28EnlightenRendererInformation8TransferI14SafeBinaryReadEEvRT_
CMh:__Z88RuntimeInvoker_RuntimeObject_RuntimeObject_Int32_t2071877448_RuntimeObject_RuntimeObjectPFvvEPK10MethodInfoPvPS4_
oGi:__ZL69DefaultDependencyAttribute_t3858269114_CustomAttributesCacheGeneratorP21CustomAttributesCache
D4c:__ZN5physx12NpBatchQuery13getUserMemoryEv
rPa:__ZNK15Lz4Decompressor16DecompressMemoryEPKvPjPvS2_
jie:_UNITY_tt_face_build_cmaps
vvi:_Ray_ToString_m2019179238
gOg:_ReadOnlyCollection_1_System_Collections_IList_get_Item_m887129009_gshared
imk:_Uri_GetOpaqueWiseSchemeDelimiter_m3686606461
ktf:_Decimal_System_IConvertible_ToType_m3828527724_AdjustorThunk
whe:_UNITY_tt_face_load_os2
WKd:__ZN5physx2GuL34fullContactsGenerationSphereConvexERKNS0_8CapsuleVERKNS0_11ConvexHullVERKNS_6shdfnd3aos12PsTransformVESB_PNS0_17PersistentContactERjRNS0_13ContactBufferEbRNS0_25PersistentContactManifoldERNS8_5Vec3VERKNS8_6FloatVEb
TSg:_HMAC_get_Key_m2528863640
mHg:_Collection_1_IsSynchronized_m1366278230_gshared
cH:__Z90Register_UnityEngine_Animations_AnimationOffsetPlayable_INTERNAL_CALL_CreateHandleInternalv
_Tc:__ZN5physx6shdfnd8PoolBaseINS_2Sc19ConstraintGroupNodeENS0_19ReflectionAllocatorIS3_EEE17releaseEmptySlabsEv
uIb:__Z29Transfer_Blittable_ArrayFieldI14SafeBinaryRead8Vector4fEvRT_R9ArrayInfoRK23StaticTransferFieldInfo
Tzf:_Array_get_swapper_TisInt32_t2071877448_m2837069166_gshared
O1k:__ZN6il2cpp2gc19AppendOnlyGCHashMapINSt3__24pairIPK10MethodInfoP11Il2CppClassEEP22Il2CppReflectionMethod17ReflectionMapHashIS9_ENS2_8equal_toIS9_EEE3AddERKS9_SB_
Rwi:_RectTransform_INTERNAL_get_rect_m1177342209
OTe:_PointerEventData_IsScrolling_m1971908975
C8d:__ZNSt3__27__sort4IRNS_6__lessI24InterpolationDepthHandleS2_EEPS2_EEjT0_S6_S6_S6_T_
JTa:__ZZ23InitPlayerLoopCallbacksvEN51PostLateUpdateUpdateCustomRenderTexturesRegistrator7ForwardEv
hRh:__Z133RuntimeInvoker_Boolean_t3825574718_Vector3U26_t425862308_Vector3U26_t425862308_Single_t2076509932_Int32_t2071877448_Int32_t2071877448PFvvEPK10MethodInfoPvPS4_
wtf:_Decimal_System_IConvertible_ToInt16_m3159038792
Av:__ZN7mecanim9animation12EvaluateClipEPKNS0_4ClipEPKNS0_9ClipInputEPNS0_10ClipMemoryEPNS0_10ClipOutputE
gMc:__ZN5physx3Cct9SweepTest15onObstacleAddedEjPKNS_17PxObstacleContextERKNS_6PxVec3ES7_f
sei:_MonoMethodInfo_GetReturnType_m2864247130
Z5a:__ZN13RenderManager29SetCurrentCameraAndStackStateEP6CameraP25CameraStackRenderingState
n8k:__ZN15dense_hashtableINSt3__24pairIK10KeyWrapperINS1_IP11Il2CppClassjEEES4_EES6_N6il2cpp8metadata14ArrayClassHashEN14dense_hash_mapIS6_S4_SB_NS6_14EqualsComparerINSA_17ArrayClassCompareEEENS0_9allocatorIS8_EEE9SelectKeyESF_SH_E12resize_deltaEjj
xi:_JS_WebRequest_Release
v_f:_DirectoryNotFoundException__ctor_m2242202556
Esi:_Physics_Raycast_m2308457076
NV:__ZN11UnityEngine15CloudWebService14DataErrorEventD0Ev
zOe:_String_CreateString_m2448464375
kah:_X509SubjectKeyIdentifierExtension__ctor_m2959112706
djj:_Enumerator_Reset_m1147555085_AdjustorThunk
hci:_FieldInfo_get_IsNotSerialized_m2322769148
Dvk:_Vector3_get_zero_m1527993324
Jrd:__ZNK5physx7NpScene18getStaticStructureEv
uBd:__ZN5physx13PxsCCDContext12postCCDSweepEPNS_10PxBaseTaskE
vfl:__ZN6il2cpp8metadata15GenericMetadata7InflateEPK19Il2CppGenericMethodPK20Il2CppGenericContext
RUa:__ZN19ShaderPropertySheet16SetArrayPropertyEN9ShaderLab16FastPropertyNameENS_12PropertyTypeEPKvj
lei:_MonoGenericCMethod_get_ReflectedType_m2689239043
nHg:_Collection_1_IsFixedSize_m499196375_gshared
GYe:_ColorTween_set_startColor_m3546206870_AdjustorThunk
WZd:__ZN5physx6shdfnd10Foundation19AlignCheckAllocator28deregisterAllocationListenerERNS_20PxAllocationListenerE
i9j:_InternalEnumerator_1_get_Current_m4083613828_gshared
Gdg:_KeyPairPersistence_Save_m471726936
loc:__ZN8GUIState8EndOnGUIEv
z8f:_SimpleCollator_FilterOptions_m4044781893
Obl:__ZN6il2cpp6icalls8mscorlib6System2IO6MonoIO16get_ConsoleErrorEv
eoe:_UNITY_TT_Get_VMetrics
WZf:_Path_InsecureGetFullPath_m2635272425
grf:_DateTime_System_IConvertible_ToUInt32_m1363211018
IDd:__ZN5physx33solveContactCoulombBlockWriteBackEPKNS_23PxcSolverConstraintDescEjRNS_16PxcSolverContextEPNS_25PxcThresholdStreamElementEjPi
qkh:_RuntimeMethodHandle__ctor_m1162528746
vLd:__ZN5physx9PxTaskMgr17submitUnnamedTaskERNS_6PxTaskENS_10PxTaskType4EnumE
UCf:_SetPropertyUtility_SetStruct_TisSingle_t2076509932_m3849235084_gshared
XGa:__ZN7Texture21GetMasterTextureLimitEv
G8a:__Z12CanAddScriptR10GameObject17ScriptingClassPtrPS1_S2_
J6k:__ZN6il2cpp2vm10Reflection12HasAttributeEP12Il2CppObjectP11Il2CppClass
Wxc:__ZN8JSONRead21TransferSTLStyleArrayI13dynamic_arrayI4AABBLj4EEEEvRT_18MemLabelIdentifier17TransferMetaFlags
l0:__ZN9ShaderLabL25StaticInitializeShaderLabEPv
Q0d:__ZN12MeshCollider23VirtualRedirectTransferER24GenerateTypeTreeTransfer
nzd:__ZNK5physx2Sq12BucketPruner5sweepERKNS0_9ShapeDataERKNS_6PxVec3ERfRNS0_14PrunerCallbackE
U:Math_max
RYk:_il2cpp_class_get_methods
ZZf:_Path_CanonicalizePath_m383914732
kij:_Enumerator_System_Collections_IEnumerator_get_Current_m1631145297_gshared
nff:_ArrayList_Synchronized_m2395071980
xil:__ZN6il2cpp2os6Thread16GetCurrentThreadEv
Y5b:__ZN10GameObject13ComponentPair15SetComponentPtrEPN5Unity9ComponentE
X6d:__ZN5physx6shdfnd8internal8HashBaseINS0_4PairIKPKNS0_14NamedAllocatorEPKcEES6_NS0_4HashIS6_EENS1_11HashMapBaseIS6_S9_SC_NS0_20NonTrackingAllocatorEE6GetKeyESE_Lb1EE15reserveInternalEj
y3f:_UnexceptionalStreamWriter_Write_m3206913035
v$b:__Z13RegisterClassI10MeshFilterEvv
VF:__ZNK26AnimatorControllerPlayable24GetAnimatorClipInfoCountEib
Fib:__ZN10TagManager8TransferI19StreamedBinaryWriteILb0EEEEvRT_
dFb:__ZN11PreloadData23VirtualRedirectTransferER18StreamedBinaryReadILb0EE
IA:__Z17dynamic_pptr_castIP10MonoScript6ObjectET_RK4PPtrIT0_E
bLj:_AnimatorControllerPlayable_GetAnimatorTransitionInfo_m2080024628_AdjustorThunk
Imh:_DESTransform_ProcessBlock_m2826669227
QVf:_Int16_CompareTo_m3493496879
Ymk:_GeneralNames_get_IPAddresses_m1712556836
EMj:_AnimatorControllerPlayable_Play_m3296663958_AdjustorThunk
Utb:__ZN6Sprite17MainThreadCleanupEv
kO:__ZN10AudioMixer14UpdateMuteSoloEv
ral:__ZN6il2cpp2vm9Exception27RaiseNullReferenceExceptionEv
f7c:__ZN5physx6shdfnd5ArrayINS_3Scb13MaterialEventENS0_19ReflectionAllocatorIS3_EEE15growAndPushBackERKS3_
Xxj:_MaskableGraphic_UnityEngine_UI_IClippable_get_gameObject_m954171032
mla:__ZN9ShaderLab10SubProgram7CompileEv
XFa:__ZN7ApiGLES16SetPatchVerticesEi
PVc:__ZN5physx2Sc5Scene11onBodySleepEPNS0_7BodySimE
RSa:__ZN10MemoryFileC2E18MemLabelIdentifierP14MemoryFileData14FilePermission
_fh:_TrackingServices_NotifyUnmarshaledObject_m1794048369
WNk:__ZN6il2cpp2vm5Class20FromGenericParameterEPK22Il2CppGenericParameter
EAc:__ZL28GeomMTDCallback_PlaneCapsuleRN5physx6PxVec3ERfRKNS_10PxGeometryERKNS_11PxTransformES5_S8_
Haa:__ZN15GlobalCallbacksC2Ev
BKf:_Array_InternalArray__set_Item_TisLabelFixup_t4090909514_m565370771_gshared
PI:__Z82Register_UnityEngine_Animations_AnimatorControllerPlayable_INTERNAL_CALL_SetBoolIDv
Ree:_UNITY_FT_New_Memory_Face
HH:__Z81AnimatorControllerPlayable_CUSTOM_INTERNAL_CALL_GetAnimatorTransitionInfoInternalR9HPlayablei
Kce:__ZN20TextRenderingPrivate21TextMeshGeneratorImpl5FlushEv
lza:__ZN26VertexDeclarationCacheGLES24DestroyVertexDeclarationEP17VertexDeclaration
gKe:__Z15CastclassSealedP12Il2CppObjectP11Il2CppClass
C7c:__ZN5physx9NpPhysics16createConvexMeshERNS_13PxInputStreamE
$6a:__ZN16ReflectionProbes40UpdateRealtimeReflectionProbesTimeslicedEv
aVc:__ZN5physx2Sq17SceneQueryManager8addShapeERKNS_7NpShapeERKNS_12PxRigidActorEbPNS_9PxBounds3E
bCb:__ZNK30RuntimeInitializeOnLoadManager22GetTypeVirtualInternalEv
BSk:__ZN15dense_hashtableINSt3__24pairIK10KeyWrapperIN6il2cpp5utils13dynamic_arrayIPK10Il2CppTypeLj4EEEEPFvvEEESA_NS3_8metadata19Il2CppSignatureHashEN14dense_hash_mapISA_SD_SG_NSA_14EqualsComparerINSF_22Il2CppSignatureCompareEEENS0_9allocatorISE_EEE9SelectKeyESK_SM_E12resize_deltaEjj
T2b:__ZN16ReflectionProbes15InitializeClassEv
_rl:__ZN6il2cpp5utils5MatchENSt3__212basic_stringIcNS1_11char_traitsIcEENS1_9allocatorIcEEEEjRKS7_j
Dfe:_UNITY_FT_Destroy_Class_psnames_module_class
ghk:_MRUList_Evict_m2430323183
gMg:_ReadOnlyCollection_1_System_Collections_Generic_ICollectionU3CTU3E_Remove_m1060547576_gshared
YUh:__Z68RuntimeInvoker_Boolean_t3825574718_Rect_t3681755626_SByte_t454417549PFvvEPK10MethodInfoPvPS4_
iPf:_Array_InternalArray__get_Item_TisRuntimeObject_m371871810_gshared
nge:_ft_bitmap_glyph_bbox
OA:__ZN8Animator13BatchedFKPassERK13dynamic_arrayIP14PlayableOutputLj4EE
nUj:_Component_GetComponent_m4225719715
vjc:__Z75Register_UnityEngine_Playables_PlayableHandle_INTERNAL_CALL_SetTimeInternalv
pDd:__ZNK5physx2Gu29EPASupportMapPairRelativeImplINS0_8CapsuleVES2_E9doSupportERKNS_6shdfnd3aos5Vec3VERS6_S9_S9_
ZMf:_Array_Sort_TisVector4_t2243707581_m474199742_gshared
uqg:_List_1_CheckIndex_m2247532995_gshared
fZd:__ZN5physx10SubSortSAH5sort4EPjjRNS_6shdfnd5ArrayINS_11RTreeNodeNQENS2_19ReflectionAllocatorIS4_EEEERjjPS4_
g3f:_TextWriter_Write_m576684782
Lwk:_Vector3_Max_m2105825185
uk:_glIsVertexArray
O2d:__ZN14SphereCollider16TransformChangedEi
GCb:__ZNSt3__26vectorIN4core12basic_stringIcNS1_20StringStorageDefaultIcEEEE13stl_allocatorIS5_L18MemLabelIdentifier12ELi16EEEC2INS_11__wrap_iterIPS5_EEEET_SE_RKS8_PNS_9enable_ifIXaasr21__is_forward_iteratorISE_EE5valuesr16is_constructibleIS5_NS_15iterator_traitsISE_E9referenceEEE5valueEvE4typeE
_Pa:__ZN25SingleBlockMemoryFileDataC2E18MemLabelIdentifierPvjb
ga:invoke_fff
PEj:_Text_get_fontSize_m3105730761
sFl:b14
b_g:_TlsServerHello_Update_m1740270635
e6d:__ZN5physx2Sc7PhysicsC2ERKNS_17PxTolerancesScaleERKNS_14PxvOffsetTableE
A8d:__ZNSt3__26__sortIRNS_6__lessI24InterpolationDepthHandleS2_EEPS2_EEvT0_S6_T_
Wqe:__ZN2UI6Canvas17MainThreadCleanupEv
fpa:__ZN6prcoreL12RemapGenericI17TexFormatARGB155517TexFormatRGBA8888EEvPKNS_9InnerInfoE
vBj:_ScrollRect_Rebuild_m3423824761
Yvg:_List_1_Find_m3862454845_gshared
Xgk:_MatchCollection_get_Item_m2609281578
RMa:__ZN7ApiGLES13CreateProgramEv
Bkb:__ZN11HaloManager7AddHaloEv
Eqh:_UTF8Encoding__ctor_m100325490
hHa:__ZN4crnd12crn_unpackerD2Ev
sEj:_StencilMaterial_ClearAll_m1372779118
Hk:_emscripten_glTexImage2D
Aeh:_ObjRefSurrogate_SetObjectData_m1873902916
Rne:_tt_driver_class_pic_init
q1:__ZN18ScriptingArguments9AddStringEPKc
$pl:_setup_header
zBl:runPostSets
oDd:__ZNK5physx2Gu29EPASupportMapPairRelativeImplINS0_8CapsuleVES2_E18doWarmStartSupportEiiRNS_6shdfnd3aos5Vec3VES7_S7_
bva:__ZL23stbir__resize_arbitraryPvPKviiiS_iiiffffPfiij14stbir_datatype12stbir_filterS4_10stbir_edgeS5_16stbir_colorspace
Qrg:_List_1_System_Collections_IList_Insert_m848656350_gshared
dLb:__Z18Transfer_BlittableI24GenerateTypeTreeTransferLb1E8Vector4fEvRK29SerializationCommandArgumentsR31RuntimeSerializationCommandInfo
oWf:_Int16_ToString_m3971652088_AdjustorThunk
Sk:_pthread_detach
CVk:__ZN6il2cpp2vm19SocketPollingThread7RunLoopEv
Qdh:_MethodDictionary_AllocInternalProperties_m3261295876
xyd:__ZN5physx11EdgeManager6resizeEj
y6b:__ZN15DirectorManager20ScheduleGraphDestroyERK14HPlayableGraph
Zxa:__ZNSt3__213__stable_sortIRN10vector_mapI17ScriptingClassPtrPKN5Unity4TypeENS_4lessIS2_EENS_9allocatorINS_4pairIS2_S6_EEEEE13value_compareENS_11__wrap_iterIPSB_EEEEvT0_SJ_T_NS_15iterator_traitsISJ_E15difference_typeEPNSM_10value_typeEi
sWb:__ZN9ShaderLab25SerializedTextureProperty8TransferI24GenerateTypeTreeTransferEEvRT_
rLk:_Comparison_1_Invoke_m2645957248_gshared
uNl:_emscripten_glIsShader__wrapper
B4k:__ZN6il2cpp2gc19AppendOnlyGCHashMapINSt3__24pairIPK14Il2CppAssemblyP11Il2CppClassEEP24Il2CppReflectionAssembly17ReflectionMapHashIS9_ENS2_8equal_toIS9_EEEC2Ev
qld:__ZN5physx2Sc5Scene12removeStaticERNS0_10StaticCoreERNS_6shdfnd11InlineArrayIPKNS0_9ShapeCoreELj64ENS4_19ReflectionAllocatorIS8_EEEEb
d0d:__ZN19CharacterController13AwakeFromLoadE17AwakeFromLoadMode
hqc:__Z32GUIStyle_Get_Custom_PropFontSizeP12Il2CppObject
zjh:_DelegatePInvokeWrapper_CallbackHandler_t362827733
Awc:__Z18Transfer_BlittableI8JSONReadLb1EyEvRK29SerializationCommandArgumentsR31RuntimeSerializationCommandInfo
nl:_emscripten_glMatrixMode
ut:__ZN8Animator23VirtualRedirectTransferER18StreamedBinaryReadILb0EE
XUd:__ZN5physx13GuMeshFactory17createHeightFieldERNS_13PxInputStreamE
zod:__ZN5physx2Sc10NPhaseCore25createShapeInstancePairLLERNS0_8ShapeSimES3_NS_7PxFlagsINS_10PxPairFlag4EnumEtEE
keh:_MethodReturnDictionary__ctor_m756139344
hV:__ZN11UnityEngine15CloudWebService14DataDispatcher16PrepareDataBlockERNS0_16SessionContainerE
gNa:__ZN18GfxFramebufferGLES5ClearE13GfxClearFlagsRK10ColorRGBAffib
hYh:__Z70RuntimeInvoker_Void_t1841601450_Playable_t1896841784_Int32_t2071877448PFvvEPK10MethodInfoPvPS4_
Epd:__ZThn8_N5physx2Sc19ShapeInstancePairLL12onDeactivateEj
l8b:__Z21CalculateClosestPointRK8Vector3fRK4AABBRS_Rf
ERb:__ZL26Transfer_SimpleNativeClassI18StreamedBinaryReadILb0EE10RectOffsetLb0EEvRK29SerializationCommandArgumentsR31RuntimeSerializationCommandInfo
Afe:_UNITY_ft_destroy_default_module_classes
bfg:_SymmetricTransform_FinalDecrypt_m3674669784
vog:_List_1_CheckMatch_m1772343151_gshared
CZa:__ZL12DepthPassJobPN21GfxDeviceAsyncCommand10ArgScratchEPKNS_3ArgE
VUb:__ZNSt3__26vectorIN9ShaderLab20SerializedSubProgram16TextureParameterENS_9allocatorIS3_EEE6assignINS_11__wrap_iterIPS3_EEEENS_9enable_ifIXaasr21__is_forward_iteratorIT_EE5valuesr16is_constructibleIS3_NS_15iterator_traitsISC_E9referenceEEE5valueEvE4typeESC_SC_
IYf:_IntPtr_Equals_m1214967011_AdjustorThunk
H_d:__ZN9Rigidbody16ApplyConstraintsEv
Qug:_List_1_Add_m3591975577_gshared
Lue:__Z55Register_UnityEngine_CanvasGroup_get_ignoreParentGroupsv
W$b:__Z13RegisterClassI19LowerResBlitTextureEvv
wn:FUNCTION_TABLE_iiiiiiiiiiii
ghd:__ZN5physx2Sc17ParticleSystemSim8setFlagsEj
dkb:__ZN16GraphicsSettingsD0Ev
rKl:_pthread_mutex_init__wrapper
B5a:__ZN15LODGroupManager21CalculateLODDataArrayERK13LODParametersPK6Cameraf
n:cttz_i8
Kle:_UNITY_FT_GlyphLoader_Add
ZXd:__ZN5physx2Gu15EdgeListBuilder18CreateEdgesToFacesEjPKjPKt
pIc:__ZN5physx11PxMeshQuery5sweepERKNS_6PxVec3EfRKNS_10PxGeometryERKNS_11PxTransformEjPKNS_10PxTriangleERNS_10PxSweepHitENS_7PxFlagsINS_9PxHitFlag4EnumEtEEPKjfb
dhk:_MRUList__ctor_m2726533367
wSf:_DateTimeFormatInfo_get_FullDateTimePattern_m2607507656
B_g:_HttpsClientStream_RaiseServerCertificateValidation_m3356770426
Zuf:_DelegateSerializationHolder__ctor_m3915060553
JCb:__ZN15SerializeTraitsINSt3__26vectorIN30RuntimeInitializeOnLoadManager9ClassInfoE13stl_allocatorIS3_L18MemLabelIdentifier12ELi16EEEEE8TransferI24GenerateTypeTreeTransferEEvRS7_RT_
rNf:_Array_swap_TisUIVertex_t1204258818_TisUIVertex_t1204258818_m1163375424_gshared
jm:_emscripten_glViewport
oml:__ZN6il2cpp6icalls8mscorlib6System15MonoCustomAttrs17IsDefinedInternalEP12Il2CppObjectP20Il2CppReflectionType
mwb:__ZN4Mesh21UnswizzleVertexColorsEb
$rf:_DateTime_ToString_m2276663647_AdjustorThunk
One:_cff_parse_font_bbox
O1d:__ZThn28_N14PhysicsManagerD0Ev
DJc:__Z14raycast_sphereRKN5physx10PxGeometryERKNS_11PxTransformERKNS_6PxVec3ES8_fNS_7PxFlagsINS_9PxHitFlag4EnumEtEEjPNS_12PxRaycastHitEbPFbRSD_PvESG_
$s:__GLOBAL__sub_I_runtime_animation2_lump_cpp
xAb:__ZN14PlayerSettings23VirtualRedirectTransferER18StreamedBinaryReadILb0EE
Wzf:_Array_get_swapper_TisCustomAttributeTypedArgument_t1498197914_m2780757375_gshared
dvl:__ZN6il2cpp2os5Event5ResetEv
Y2a:__Z26CombineDepthNormalsTextureRK17RenderLoopContextR13dynamic_arrayI16RenderObjectDataLj4EE
BDk:_AesManaged__ctor_m2322442838
hfl:__ZN6il2cpp8metadata15GenericMetadata17InflateParametersEPK13ParameterInfohPK20Il2CppGenericContextb
TXf:_Int64_System_IConvertible_ToUInt32_m850395426_AdjustorThunk
E8h:_TypeBuilder_GetMethodsByName_m229541072
WPj:_PCMReaderCallback_Invoke_m3610389815
xDe:_HMACSHA512__ctor_m2390736870
yz:__ZNK17AnimationPlayable27GetNextCompatibleDescendantEi
A8h:_TypeBuilder_GetInterfaces_m1818658502
Sfa:__Z25SetNeedToPerformRenderingb
Gei:_MonoMethod_GetPseudoCustomAttributes_m466965107
j1a:__ZNSt3__227__insertion_sort_incompleteIR23CompareReflectionProbesP31RuntimeReflectionProbeBlendInfoEEbT0_S5_T_
RZa:__ZN14qsort_internal30FindAndMovePivotToLastPositionIP15RODataDepthPassi17ROSorterDepthPassEEvT_S4_T0_T1_
hBe:__ZN20UnityWebRequestProtoI19TransportJavaScript16AtomicRefCounter14RedirectHelper14ResponseHelper15DownloadHandler13UploadHandler12HeaderHelper14AsyncOperationE35Task_FinalizeAfterDHCompleteContentEPv
Tjj:_Enumerator_System_Collections_IDictionaryEnumerator_get_Value_m3005608231_gshared
mxj:_MaskUtilities_NotifyStencilStateChanged_m1527407683
rCd:__ZN5physxL27PxcSweepAnyShapeHeightfieldERKNS_11PxsCCDShapeES2_PKNS_12PxsRigidBodyES5_RKNS_11PxTransformES8_fRNS_6PxVec3ESA_RNS_10PxcNpCacheERNS_18PxcNpThreadContextE
DGh:__Z94RuntimeInvoker_Void_t1841601450_RuntimeObject_Int32_t2071877448_RuntimeObject_SByte_t454417549PFvvEPK10MethodInfoPvPS4_
N5a:__ZN12CullingGroup10SendEventsEPK17CullingGroupEventj
rcg:_DSAManaged_GenerateKeyPair_m2711647034
xbb:__ZN13sorted_vectorINSt3__24pairIN4core12basic_stringIcNS2_20StringStorageDefaultIcEEEES6_EEN10vector_mapIS6_S6_27compare_tstring_insensitiveIS6_E13stl_allocatorIS7_L18MemLabelIdentifier37ELi16EEE13value_compareESD_E9erase_oneIS6_EEjRKT_
wsb:__ZThn32_NK8Renderer8GetLayerEv
sHf:_Array_InternalArray__ICollection_Add_TisResourceCacheItem_t333236149_m1151081240_gshared
u9b:__ZNK4Mesh17GetPrimitiveCountEv
xxd:__ZN5physx3Scb5SceneD2Ev
KP:__ZN17AudioClipPlayable12PrepareFrameERK19DirectorVisitorInfo
lhh:_SoapServices_GetXmlTypeForInteropType_m3821579913
iLl:_emscripten_glTexParameterfv__wrapper
IZk:_il2cpp_method_get_param_count
p_b:__ZN10systeminfo19ISOToSystemLanguageERN4core12basic_stringIcNS0_20StringStorageDefaultIcEEEE
u3k:__ZNK15dense_hashtableINSt3__24pairIK10KeyWrapperINS1_IPK12PropertyInfoP11Il2CppClassEEEjEES9_17ReflectionMapHashIS8_EN14dense_hash_mapIS9_jSD_NS9_14EqualsComparerINS0_8equal_toIS8_EEEENS0_9allocatorISB_EEE9SelectKeyESI_SK_E3endEv
Q_d:__Z16GetDynamicsScenev
eke:_ps_dimension_done
iWe:_LayoutRebuilder_MarkLayoutForRebuild_m640589351
Mqe:__Z46Register_UnityEngine_TextGenerator_Dispose_cppv
QTe:_PointerEventData_get_pressEventCamera_m724559964
uJe:_String_IndexOfUnchecked_m3356721554
krb:__ZN16LightmapSettings8TransferI14SafeBinaryReadEEvRT_
qIa:__ZN17BufferManagerGLES13ReleaseBufferEP14DataBufferGLES
gSc:__ZN5physx6shdfnd5ArrayIPvNS0_19ReflectionAllocatorINS_16NpConnectorArrayEEEE15growAndPushBackERKS2_
fqi:_Mesh_CheckCanAccessSubmesh_m1826512193
Hnd:__ZN5physx2Sc5Scene15prepareSimulateEv
xwc:__Z18Transfer_BlittableI8JSONReadLb1EjEvRK29SerializationCommandArgumentsR31RuntimeSerializationCommandInfo
MTc:__ZN5physx6shdfnd5ArrayIPNS_2Sc11InteractionENS0_19ReflectionAllocatorIS4_EEE8recreateEj
unk:_PKCS12_Decrypt_m1557069392
fFj:_VertexHelper_AddUIVertexQuad_m280792808
H5g:_WebHeaderCollection_ToString_m1246460752
h7j:_InternalEnumerator_1_System_Collections_IEnumerator_get_Current_m2842514953_AdjustorThunk
kq:stackSave
Ake:_ps_dimension_end
ric:__Z41Register_UnityEngine_Mesh_Internal_Createv
ffl:__ZNK15dense_hashtableI10KeyWrapperIP18Il2CppGenericClassES3_N6il2cpp8metadata22Il2CppGenericClassHashEN14dense_hash_setIS3_S6_NS3_14EqualsComparerINS5_25Il2CppGenericClassCompareEEENSt3__29allocatorIS3_EEE8IdentityESA_SD_E12test_deletedERK30dense_hashtable_const_iteratorIS3_S3_S6_SF_SA_SD_E
jFe:_RIPEMD160Managed_JJ_m2933451431
Iae:__Z63Register_UnityEngine_Physics_INTERNAL_CALL_Internal_RaycastTestv
ODe:_MACTripleDES_Initialize_m1318099802
FTg:_MD5SHA1_VerifySignature_m507888141
dcf:_Byte_System_IConvertible_ToChar_m4188836679
eSf:_NumberFormatter_InitDecHexDigits_m2036076025
wkj:_Enumerator_get_CurrentKey_m3839846791_AdjustorThunk
kxc:__ZN8JSONRead21TransferSTLStyleArrayI13dynamic_arrayIaLj1EEEEvRT_18MemLabelIdentifier17TransferMetaFlags
J7a:__ZN6Camera9SetAspectEf
wBe:__ZN19TransportJavaScript9DoRequestERKN4core12basic_stringIcNS0_20StringStorageDefaultIcEEEEm21UnityWebRequestMethodS6_bbP12HeaderHelperP13UploadHandlerP15DownloadHandlerP14ResponseHelperP15UnityWebRequest
Ba:invoke_viiffiii
dRg:_Kernel_modInverse_m3230829577
Mbj:__ZL79TouchInputModule_t2561058385_CustomAttributesCacheGenerator_m_ForceModuleActiveP21CustomAttributesCache
KMl:_emscripten_glBindVertexArray__wrapper
Brj:_Dictionary_2_InitArrays_m435313205_gshared
z8a:__ZN9Transform37InitializeTransformHierarchyRecursiveER18TransformHierarchyRii
m1b:__Z34DefaultPrepareDispatchBoundsUpdateR13RendererScene18MemLabelIdentifier
b0e:_Graphic_get_useLegacyMeshGeneration_m1366444625
Idj:__ZL65InputField_t1631627530_CustomAttributesCacheGenerator_m_InputTypeP21CustomAttributesCache
Gag:_ModulusRing_Pow_m1137250399
I2d:__ZN14SphereCollider23VirtualRedirectTransferER24GenerateTypeTreeTransfer
XVa:__ZN17MeshRenderingData4InitEP4MeshS1_iP15SharedGfxBufferS3_
Lif:_Hashtable__cctor_m2952659675
U9g:_X509ChainStatus__ctor_m3628359961_AdjustorThunk
aBb:__ZN10VRSettings8TransferI19StreamedBinaryWriteILb0EEEEvRT_
Mmd:__ZN5physx2Sc9StaticSim21postActor2WorldChangeEv
LJe:_Evidence_get_HostEvidenceList_m2095478124
Slc:__Z57Register_UnityEngine_Transform_INTERNAL_set_localPositionv
KWg:_Context_Clear_m4000337070
pDa:__ZN13GfxDeviceGLES26SetRandomWriteTargetBufferEi15ComputeBufferID
Ech:_IntervalCollection_Normalize_m538796191
wTa:__ZZ23InitPlayerLoopCallbacksvEN49EarlyUpdateResetFrameStatsAfterPresentRegistrator7ForwardEv
N2c:__ZN5physx6shdfnd4sortIPvNS0_4LessIS2_EENS0_19ReflectionAllocatorINS_2Cm5BlockIhLj256EEEEEEEvPT_jRKT0_RKT1_j
Iuk:_TrackedReference_op_Equality_m3491334086
U$e:_FontUpdateTracker_UntrackText_m3827316510
MVd:__ZN5physx20InternalTriangleMesh7releaseEv
YAd:__ZN5physx6shdfnd5ArrayINS_16PxsCCDBlockArrayINS_13PxsCCDOverlapELi128EE9BlockInfoENS0_19ReflectionAllocatorIS5_EEE15growAndPushBackERKS5_
$Uc:__ZNK5physx7NpShape8getFlagsEv
lkg:_Enumerator_System_Collections_IEnumerator_Reset_m886102771_AdjustorThunk
Eac:__ZNK11ICallString6ToUTF8Ev
kkk:_CaptureAssertion_get_Alternate_m2729005740
eol:_GC_number_stack_black_listed
SZa:__ZNSt3__211__sift_downIR17ROSorterDepthPassP15RODataDepthPassEEvT0_S5_T_NS_15iterator_traitsIS5_E15difference_typeES5_
n5h:_Default_SelectMethod_m3081239996
zcd:__ZNK5physx7NpCloth16getContactOffsetEv
fB:__ZN8Animator17ApplyOnAnimatorIKEiRNS_11AnimatorJobE
B5:__ZN12FileAccessor4ReadEyyPvPy
jla:__ZN13dynamic_arrayI16ShaderKeywordSetLj4EE6insertEPS0_PKS0_S4_
Rdh:_MethodDictionary_IsOverridenKey_m3922224650
_jf:_SyncHashtable_Contains_m3042906549
Jac:__Z21GetSceneHierarchyPathPK6Object
Gxg:_List_1_System_Collections_IList_set_Item_m4016273526_gshared
jah:_X509KeyUsageExtension_CopyFrom_m931530012
FHj:_AnimationLayerMixerPlayable_IsLayerAdditiveInternal_m3902226808
j7a:__ZN13RenderTexture9SetHeightEi
Nu:__ZN7mecanim9animation17ClearMotionOutputEPNS0_18AnimationNodeStateE
axj:_LayoutUtility_U3CGetMinHeightU3Em__4_m1769295917
iUj:_Color32__ctor_m1932627809_AdjustorThunk
p1g:_SslStreamBase_Read_m1036897444
pMj:_AnimatorControllerPlayable_INTERNAL_CALL_PlayInFixedTimeInternal_m44271350
azj:_RectMask2D_PerformClipping_m1232012832
FQf:_Resources_ConvertObjects_TisRuntimeObject_m2571720668_gshared
klj:_Transform_1_Invoke_m4020530914_gshared
Mie:_tt_cmap8_char_index
O1:__Z24scripting_class_get_name17ScriptingClassPtr
L7:__ZN13RuntimeStaticI15GUIEventManagerLb0EE13StaticDestroyEPv
jji:_GUILayoutGroup_ResetCursor_m3160916532
Hil:__ZN6il2cpp2os6Thread15CurrentThreadIdEv
FHb:__Z29Transfer_Blittable_ArrayFieldI14SafeBinaryReadjEvRT_R9ArrayInfoRK23StaticTransferFieldInfo
wRj:_Camera_FireOnPostRender_m94860165
Ne:_emscripten_set_keydown_callback
vjf:_Enumerator_get_Value_m3684748062
Gib:__ZN19StreamedBinaryWriteILb0EE21TransferSTLStyleArrayINSt3__26vectorI17SortingLayerEntryNS2_9allocatorIS4_EEEEEEvRT_17TransferMetaFlags
Wwh:_UInt32_Parse_m3371984903
J5:__ZN12FileAccessorC2Ev
y9a:__ZN9Transform35SetLocalPositionWithoutNotificationERKN4math7_float3E
EZc:__ZN5physx2Sc15ArticulationSim12applyImpulseERNS0_8BodyCoreERKNS_9PxcFsDataERKNS_6PxVec3ES9_
_hk:_PatternLinkStack_GetCurrent_m2994645935
n0d:__ZN19CharacterController9GetBoundsEv
aYk:__ZN6il2cpp2vm7Runtime12GetConfigDirEv
Tdh:_MethodDictionary_set_Item_m3475146889
ZYc:__ZNK5physx14NpArticulation26getInternalDriveIterationsEv
vFj:_Toggle_PlayEffect_m3950629415
mFf:_Array_IndexOf_TisRuntimeObject_m214763038_gshared
nEb:__Z39WriteQueueForTransferSignatureIntoCacheRK31TransferFunctionScriptingTraitsRK24TransferRequestSignature17ScriptingClassPtrR23CachedSerializationDataRb
pta:__ZN13RenderManager18UpdateAllRenderersEv
cUh:__Z133RuntimeInvoker_Void_t1841601450_Rect_t3681755626_RuntimeObject_Int32_t2071877448_Int32_t2071877448_Int32_t2071877448_SByte_t454417549PFvvEPK10MethodInfoPvPS4_
Gwe:__ZN22BaseUnityConnectClient30OnEnteringStatePausedOrStoppedEv
d3k:__ZN15dense_hashtableINSt3__24pairIK10KeyWrapperINS1_IPK12PropertyInfoP11Il2CppClassEEEjEES9_17ReflectionMapHashIS8_EN14dense_hash_mapIS9_jSD_NS9_14EqualsComparerINS0_8equal_toIS8_EEEENS0_9allocatorISB_EEE9SelectKeyESI_SK_E12resize_deltaEjj
_u:__ZN7mecanim5human12HumanPoseAddERNS0_9HumanPoseERKS1_S4_
YMj:_Animator_ResetTrigger_m865269317
fFg:_Collection_1_IsFixedSize_m218241296_gshared
u9a:__Z24MergeTransformComponentsR9TransformS0_b
EUc:__ZThn24_N5physx2Sc20ArticulationJointSimD0Ev
CLj:_AnimatorControllerPlayable_IsInTransition_m3708059860
t2d:__ZN14PhysicsManager32AddToTriggerStayStatesIfRequiredEPK9Rigidbody
U0f:_MonoIO_get_PathSeparator_m2635828107
wdk:_InternalEnumerator_1_get_Current_m889125315_gshared
b6f:_MonoType_get_Name_m865859211
nzf:_CultureInfo__cctor_m2290268677
wnf:_Decimal_ThrowAtPos_m3318712794
KOc:__ZN5physx14PxsAABBManager12createBPElemEv
ygh:_RemotingConfiguration__cctor_m2129988840
wDg:_Collection_1_Insert_m44548038_gshared
z9c:__ZThn12_N5physx7NpShape14onRefCountZeroEv
RAc:__ZL26GeomMTDCallback_ConvexMeshRN5physx6PxVec3ERfRKNS_10PxGeometryERKNS_11PxTransformES5_S8_
qml:__ZN6il2cpp2vm13ComObjectBase19GetRuntimeClassNameEPP15Il2CppHString__
sk:_emscripten_glVertexAttribPointer
rlb:__ZNK20IntermediateRenderer12GetSceneMaskEv
ura:__ZN14PreloadManager26UpdatePreloadingSingleStepENS_21UpdatePreloadingFlagsEi
Zoi:_Material__ctor_m1440882780
pHe:_SHA512Managed_Initialize_m891287980
$Qd:__ZN18ScBeforeSolverTask11runInternalEv
Zmb:__ZN26ProbeSetTetrahedralization8TransferI24GenerateTypeTreeTransferEEvRT_
ZJe:_SecurityException__ctor_m1484114982
Epk:_X509Crl_GetHashName_m183504634
S8e:_Array_GetValue_m1507415734
Xjc:__Z57Register_UnityEngine_RectTransform_INTERNAL_set_anchorMinv
UQf:_Object_MemberwiseClone_m2655589444
mRc:__ZL33GeomOverlapCallback_CapsuleConvexRKN5physx10PxGeometryERKNS_11PxTransformES2_S5_PNS_2Gu12TriggerCacheE
Ooa:__ZN6prcoreL25inner_stretch_i8_bilinearEPKNS_9InnerInfoE
Wra:__ZL30RegisterFilteredObjectCallbackPP12Il2CppObjectiPv
HTj:_Collision_get_transform_m4132935520
Pei:_MonoMethod_get_IsGenericMethod_m4276550811
Jlj:_Transform_1_BeginInvoke_m3826027984_gshared
DV:__ZN11UnityEngine15CloudWebService16SessionContainer24GetSessionHeaderJsonDataERKN4core12basic_stringIcNS2_20StringStorageDefaultIcEEEERNS2_13StringBuilderE
Fnf:_Decimal_op_Implicit_m2149927308
w7:__ZN13RuntimeStaticI21AssetReferenceStorageLb0EE13StaticDestroyEPv
TVd:__ZN5physx20InternalTriangleMesh9loadRTreeERNS_13PxInputStreamEj
Mog:_List_1_set_Capacity_m895816763_gshared
bil:__ZN6il2cpp6icalls8mscorlib6System9AppDomain22InternalGetProcessGuidEP12Il2CppString
F_b:__ZN15dense_hashtableINSt3__24pairIKN4core12basic_stringIcNS2_20StringStorageDefaultIcEEEE10vector_setI4PPtrI11SpriteAtlasENS0_4lessISB_EE13stl_allocatorISB_L18MemLabelIdentifier79ELi16EEEEES6_20StringHash32FunctionIS6_EN14dense_hash_mapIS6_SH_SK_NS0_8equal_toIS6_EESE_ISI_LSF_79ELi16EEE9SelectKeyESN_SO_E15insert_noresizeERKSI_
Ohd:__ZN5physx2Sc18ParticleSystemCore16releaseParticlesEv
Pcg:_KeyPairPersistence_get_UseMachineKeyStore_m560802076
rJc:__ZN5physx2Gu20intersectTriangleBoxERKNS_6shdfnd3aos5Vec3VES5_S5_S5_S5_
HQ:__ZN19AudioPlayableOutput19DeallocateResourcesEv
sij:_Enumerator_System_Collections_IDictionaryEnumerator_get_Entry_m345330700_AdjustorThunk
yLb:__Z18Transfer_BlittableI24GenerateTypeTreeTransferLb1EjEvRK29SerializationCommandArgumentsR31RuntimeSerializationCommandInfo
cTg:_MD2Managed_Padding_m410163267
Zae:__Z49Register_UnityEngine_Collider_INTERNAL_get_boundsv
klb:__ZN11ColorRGBA328TransferI14SafeBinaryReadEEvRT_
B5d:__ZN5physx6shdfnd5ArrayIPvNS0_19ReflectionAllocatorINS_24NpPtrTableStorageManager8PtrBlockILi4EEEEEE15growAndPushBackERKS2_
jfe:__ZN20TextRenderingPrivate8TextMesh8TransferI14SafeBinaryReadEEvRT_
Zua:__Z11IsHDRFormat13TextureFormat
qg:_emscripten_glClearDepth
_4b:__ZNK8GUILayer22GetTypeVirtualInternalEv
wtb:__ZN14SafeBinaryRead21TransferSTLStyleArrayINSt3__26vectorIN15QualitySettings14QualitySettingENS1_9allocatorIS4_EEEEEEvRT_17TransferMetaFlags
c8d:__Z13RegisterClassI12MeshColliderEvv
J_f:_File_OpenText_m4058508963
PTj:_Collision_get_frictionForceSum_m3438602686
iAb:__ZNSt3__26vectorINS_4pairIPKN5Unity4TypeE7Hash128EENS_9allocatorIS7_EEE8__appendEj
xhh:_WellKnownClientTypeEntry__ctor_m670594074
w7k:__ZN15dense_hashtableINSt3__24pairIK10KeyWrapperIP11Il2CppClassES4_EES5_N6il2cpp8metadata16SZArrayClassHashEN14dense_hash_mapIS5_S4_SA_NS5_14EqualsComparerINS9_19SZArrayClassCompareEEENS0_9allocatorIS7_EEE9SelectKeyESE_SG_EC2ERKSJ_j
Xqf:_DateTime_System_IConvertible_ToSingle_m3927769066_AdjustorThunk
_me:_cff_font_load
J_g:_RecordProtocol_SendRecord_m2977889250
Fdc:__Z13IsPathCreatedRKN4core12basic_stringIcNS_20StringStorageDefaultIcEEEE
MEd:__ZN5physx35solveContactPreBlock_ConcludeStaticEPKNS_23PxcSolverConstraintDescEjRNS_16PxcSolverContextE
hva:__ZL22stbir__encode_scanlineP11stbir__infoiPvPfiii
PCh:__Z61RuntimeInvoker_Double_t4078015681_RuntimeObject_RuntimeObjectPFvvEPK10MethodInfoPvPS4_
AIh:__Z136RuntimeInvoker_Void_t1841601450_Byte_t3683104436_RuntimeObject_Int64U26_t763825331_ObjectU26_t597476745_SerializationInfoU26_t4051840202PFvvEPK10MethodInfoPvPS4_
Cbe:__ZN20QuadTreeNodeRenderer13StaticDestroyEPv
zW:__ZN11UnityEngine15CloudWebService20WebRequestRestClient5AbortEv
VBf:_Array_InternalArray__ICollection_Remove_TisUInt32_t2149682021_m4198326168_gshared
$0b:__ZN9Transform12CleanupClassEv
XCh:__Z50RuntimeInvoker_Void_t1841601450_Double_t4078015681PFvvEPK10MethodInfoPvPS4_
rrl:__ZN6il2cpp6icalls8mscorlib6System9Threading16NativeEventCalls19CloseEvent_internalE12Il2CppIntPtr
NA:__ZN11UnityEngine9Animation33SetGenericTransformPropertyValuesERKNS0_30AnimatorGenericBindingConstantERKN7mecanim10ValueArrayEP9Transformb
IWg:_ClientContext_set_ClientHelloProtocol_m2246603449
ATc:__ZN5physx6shdfnd5ArrayIPvNS0_15InlineAllocatorILj256ENS0_19ReflectionAllocatorINS_2Cm5BlockIS2_Lj32EEEEEEEE15growAndPushBackERKS2_
$Pd:__ZN5physx18PxsSolverStartTask13setupDescTaskEv
Uee:_UNITY_FT_Set_Pixel_Sizes
n6e:_U3CMouseDragOutsideRectU3Ec__Iterator1_MoveNext_m2845491958
IVb:__ZNSt3__26vectorIN9ShaderLab19SerializedSubShaderENS_9allocatorIS2_EEE26__swap_out_circular_bufferERNS_14__split_bufferIS2_RS4_EE
JEh:__Z116RuntimeInvoker_RuntimeObject_RuntimeObject_Int32_t2071877448_RuntimeObject_RuntimeObject_RuntimeObject_RuntimeObjectPFvvEPK10MethodInfoPvPS4_
$Ue:_StandaloneInputModule_IsModuleSupported_m623598506
rzc:__ZN5physx3Cct13BoxController6resizeEf
zlh:_SByte_ToString_m4105923225_AdjustorThunk
rzf:_CultureInfo_ConstructCurrentUICulture_m3363349599
wub:__ZN13dynamic_arrayI7SubMeshLj4EE18resize_initializedEjRKS0_12ResizePolicy
igj:__ZL75CanvasScaler_t2574720772_CustomAttributesCacheGenerator_m_FallbackScreenDPIP21CustomAttributesCache
A5f:_MonoType_GetEvent_m4160342003
Myj:_RawImage_set_texture_m2400157626
FRd:__ZN5physx6shdfnd5ArrayINS_2Cm12DelegateTaskINS_2Sc5SceneEXadL_ZNS5_19updateCCDSinglePassEPNS_10PxBaseTaskEEEEENS0_19ReflectionAllocatorIS8_EEE8recreateEj
tGk:_PrimeHelper_ToPrime_m1606935350_gshared
zlb:__Z30ProcessDynamicBatchGeometryJobP25DynamicVBOGeometryJobDataj
o_a:__ZNSt3__27__sort4IRNS_6__lessI11CulledLightS2_EEPS2_EEjT0_S6_S6_S6_T_
F_k:__ZN6il2cpp2vm14TypeNameParser26ParseArrayModifierOptionalEv
OOj:_AudioClipPlayable_INTERNAL_CALL_GetLoopedInternal_m3082735156
a8f:_MSCompatUnicodeTable_Level3_m260824928
$2:__Z26scripting_object_get_class18ScriptingObjectPtr
R9k:__ZN6il2cpp6icalls8mscorlib6System10Reflection8Assembly13get_code_baseEP24Il2CppReflectionAssemblyb
B3c:__ZN5physx34NpShapeGetScRigidObjectFromScbSLOWERKNS_3Scb5ShapeE
y0b:__ZNK28MonoBehaviourPropertyBinding15GenerateBindingERKN4core12basic_stringIcNS0_20StringStorageDefaultIcEEEEbRN11UnityEngine9Animation14GenericBindingE
Omi:_GUIStyle_CalcMinMaxWidth_m2027503105
iWf:_Int32_FindExponent_m3187554672
$cg:_KeyPairPersistence_Load_m1355205585
kXf:_Int32_ToString_m2960866144_AdjustorThunk
MGh:__Z127RuntimeInvoker_Void_t1841601450_IntPtr_t_Int32_t2071877448_SByte_t454417549_Int32_t2071877448_SByte_t454417549_SByte_t454417549PFvvEPK10MethodInfoPvPS4_
MGk:_HashSet_1_Contains_m3626542335_gshared
sXc:__ZNK5physx21PxsBodyTransformVault12getTransformERKNS_11PxsBodyCoreE
skl:__ZN6il2cpp6icalls8mscorlib6System11Environment15internalGetHomeEv
NEl:dynCall_iiiiiiffiiiiiiiiiffffiiii
dJd:__ZN5physx2Gu33MultiplePersistentContactManifold10fromBufferEPh
mBc:__ZN44ConvexVsHeightfieldContactGenerationCallback7onEventEjPj
ijh:__ZN21InterfaceFuncInvoker4IP12Il2CppObjectS1_P28SerializationInfo_t22898743028StreamingContext_t1417235061S1_E6InvokeEjP11Il2CppClassS1_S1_S3_S4_S1_
TCk:_ObjectPool_1_Get_m3724675538_gshared
_B:__ZN7mecanim8skeleton26SkeletonPoseComputeGlobalQEPKNS0_8SkeletonEPKNS0_13SkeletonPoseTIN4math4trsXEEEPS7_ii
jyc:__ZN8JSONRead21TransferSTLStyleArrayI13dynamic_arrayIfLj4EEEEvRT_18MemLabelIdentifier17TransferMetaFlags
SCd:__ZN5physx2Gu19_gjkRelativeRayCastINS0_9TriangleVENS0_8CapsuleVEEEbRT_RT0_RKNS_6shdfnd3aos15PsMatTransformVERKNS9_6FloatVERKNS9_5Vec3VESI_RSD_RSG_SK_f
lsg:_List_1_GetEnumerator_m2672519407_gshared
AB:__ZN9BlobWrite8TransferI22OffsetPtrArrayTransferIiEEEvRT_PKc17TransferMetaFlags
PIh:__Z82RuntimeInvoker_Boolean_t3825574718_SByte_t454417549_RuntimeObject_SByte_t454417549PFvvEPK10MethodInfoPvPS4_
M7f:_ContractionComparer_Compare_m314873025
BBg:_Collection_1_IsFixedSize_m1690655146_gshared
tCf:_PlayableHandle_IsPlayableOfType_TisRuntimeObject_m4111068959_AdjustorThunk
Dni:_GUIUtility_EndGUIFromException_m2091524531
bYc:__ZN5physx6shdfnd5ArrayIPvNS0_15InlineAllocatorILj256ENS0_19ReflectionAllocatorINS_11NpAggregateEEEEEE15growAndPushBackERKS2_
CXf:_Int64_System_IConvertible_ToDouble_m638786774
Wkd:__ZNK5physx14NpRigidDynamic21getMaxAngularVelocityEv
uN:__ZN4FMOD6System7releaseEv
Syd:__ZN5physx6shdfnd8PoolBaseINS_2Sc18TriggerInteractionENS0_19ReflectionAllocatorIS3_EEE15disposeElementsEv
e5:__Z18PathToAbsolutePathRKN4core12basic_stringIcNS_20StringStorageDefaultIcEEEE
zjg:_Enumerator_MoveNext_m3078170540_AdjustorThunk
G6d:__ZN5physx28PxcContactCapsuleHeightFieldERKNS_2Gu13GeometryUnionES3_RKNS_11PxTransformES6_RKfRNS_10PxcNpCacheERNS0_13ContactBufferE
vrl:__ZN6il2cpp6icalls8mscorlib6System10Reflection16MonoPropertyInfo16GetTypeModifiersEPvb
tDk:_Action_Invoke_m3801112262
hBc:__ZL31PointInConvexPolygon2D_OutCodesPKfjffffRh
hDh:__Z79RuntimeInvoker_Decimal_t724701077_RuntimeObject_Int32_t2071877448_RuntimeObjectPFvvEPK10MethodInfoPvPS4_
Oua:__ZL13BlitImageImplR14ImageReferenceiiRKS_NS_10ColorSpaceENS_8BlitModeEb
eqa:__ZN6prcoreL17RemapGenericFloatI18TexFormatRGBAFloat17TexFormatRGBFloatEEvPKNS_9InnerInfoE
y9d:__ZN9Rigidbody12MoveRotationERK11Quaternionf
xCh:__Z64RuntimeInvoker_RuntimeObject_Int16_t4041245914_Int16_t4041245914PFvvEPK10MethodInfoPvPS4_
Fva:__ZN29SerializeTraitsForStringTypesIN4core12basic_stringIcNS0_20StringStorageDefaultIcEEEEE8TransferI24GenerateTypeTreeTransferEEvRS4_RT_
smi:_GUIUtility_Internal_GetHotControl_m2510727642
BL:__ZN12AudioManager29ShutdownReinitializeAndReloadEv
enk:_NetscapeCertTypeExtension_Decode_m2210025005
PSd:__ZN5physx2Cm12DelegateTaskINS_2Sc5SceneEXadL_ZNS3_15postNarrowPhaseEPNS_10PxBaseTaskEEEE11runInternalEv
f8d:__Z20ConvertContactToMonoP9Collision
nxi:_RectTransform_GetLocalCorners_m1836626405
Ghh:_BaseFixupRecord_DoFixup_m1821597450
ZNk:__ZN15dense_hashtableINSt3__24pairIK10KeyWrapperIPK22Il2CppGenericParameterEP11Il2CppClassEES6_N6il2cpp5utils11PointerHashIS4_EEN14dense_hash_mapIS6_S9_SE_NS6_14EqualsComparerINS0_8equal_toIS5_EEEENS0_9allocatorISA_EEE9SelectKeyESJ_SL_E6insertERKSA_
N_f:_FileLoadException__ctor_m1356374414
DFa:__ZN14DataBufferGLES16RecreateWithDataEjPKv
Ycc:__Z29GetGlobalAllowNameConversionsv
gBc:__ZL17transformVerticesRfS_S_S_PfjPKN5physx6PxVec3EPKhRKNS1_7PxMat33E
L6d:__ZNK5physx2Gu15HeightFieldUtil31getFaceIndexAtShapePointNoTest2Ejff
mab:__ZN8Material8SetColorEN9ShaderLab16FastPropertyNameERK10ColorRGBAf
Zci:_Module_GetCustomAttributes_m3581287913
Tzd:__ZNK5physx2Sq10AABBPruner5sweepERKNS0_9ShapeDataERKNS_6PxVec3ERfRNS0_14PrunerCallbackE
S1:__ZL41AssemblyNameMatchesWithOrWithoutExtensionPKcS0_
Rud:__ZN5physx2Sc5Scene21fireCallBacksPostSyncEv
VJa:__ZN14GfxContextGLES43AddRenderSurfaceToDeferredFBOInvalidateListEPK17RenderSurfaceGLES
xBd:__ZN5physx17PxsCCDAdvanceTask11runInternalEv
tka:__ZN11NamedObject23VirtualRedirectTransferER14SafeBinaryRead
Kee:__ZNSt3__26vectorIN20TextRenderingPrivate8FontImpl13CharacterInfoE13stl_allocatorIS3_L18MemLabelIdentifier1ELi16EEE6insertENS_11__wrap_iterIPKS3_EERS9_
Era:__ZN23PreloadManagerOperation6IsDoneEv
jYk:__ZN6il2cpp2vm7Runtime15InvokeWithThrowEPK10MethodInfoPvPS5_
Ggg:_X509Certificate_get_RawData_m3000055075
H7b:__Z33GetHasChangedDeprecatedSystemMaskv
Ull:__ZN6il2cpp5utils11StringUtils11Utf16ToUtf8ERKNSt3__212basic_stringIDsNS2_11char_traitsIDsEENS2_9allocatorIDsEEEE
zLc:__ZN5physx3Cct26CharacterControllerManagerD2Ev
Djj:_Enumerator_VerifyState_m1165543189_AdjustorThunk
Drf:_DateTime_AddSeconds_m722082155_AdjustorThunk
Mgf:_SynchronizedArrayListWrapper_CopyTo_m956887031
ITk:__ZNSt3__213__lower_boundIRN6il2cpp5utils11collections13ArrayValueMapIPK10Il2CppType17Il2CppInteropData26InteropDataToTypeConverterNS1_8metadata14Il2CppTypeLessENSA_26Il2CppTypeEqualityComparerEE22LowerBoundFindComparerEPKS8_S7_EET0_SI_SI_RKT1_T_
ewa:__ZN21LightProbeProxyVolume18HasHardwareSupportEv
Joa:__ZN6prcoreL31inner_stretch_argb8888_bilinearEPKNS_9InnerInfoE
_Ob:__Z18Transfer_BlittableI18StreamedBinaryReadILb1EELb1E8BitFieldEvRK29SerializationCommandArgumentsR31RuntimeSerializationCommandInfo
ahe:_UNITY_FT_Outline_Decompose
UYg:_TlsClientCertificate_get_ClientCertificate_m3062440489
z6j:_InternalEnumerator_1_get_Current_m198513457_AdjustorThunk
_Ad:__ZN5physx6shdfnd8internal8HashBaseINS0_4PairIKNS3_IPKNS_12PxsRigidCoreEPKNS_12PxsShapeCoreEEEPNS_11PxsCCDShapeEEESA_NS0_4HashISA_EENS1_11HashMapBaseISA_SD_SG_NS0_9AllocatorEE6GetKeyESI_Lb1EE15reserveInternalEj
oYa:__Z20scripting_object_new17ScriptingClassPtr
fUf:_TextInfo__ctor_m2782608694
Iyg:_Queue_1_System_Collections_ICollection_CopyTo_m772787461_gshared
Bmc:__Z58Register_UnityEngine_Object_Internal_CloneSingleWithParentv
oUf:_TextInfo_ToUpper_m299550697
Hvd:__ZN5physx2Sc5Scene21setDominanceGroupPairEhhRKNS_20PxDominanceGroupPairE
G2a:__ZN18ShadowMapJobHeaderD0Ev
h0e:_Graphic_OnRectTransformDimensionsChange_m1610753363
Cpf:_Convert_ToUInt16_m3265369225
P:Math_exp
f5f:_MonoEnumInfo_get_Cache_m3551569711
Np:FUNCTION_TABLE_iiifi
Rhl:__ZN6il2cpp2os5posix13PosixAutoLockD2Ev
hBf:_Array_InternalArray__ICollection_Contains_TisVector3_t2243707580_m3625701788_gshared
Fya:__ZNSt3__26vectorINS_4pairIyP17VertexDeclarationEENS_9allocatorIS4_EEE6insertENS_11__wrap_iterIPKS4_EERS9_
ile:_cff_get_advances
j8a:__ZN13MonoBehaviour9SetScriptERK4PPtrI10MonoScriptE18ScriptingObjectPtr
ZAf:_Array_InternalArray__ICollection_Contains_TisPlayableBinding_t2498078091_m4267109606_gshared
Ige:_UNITY_FT_Create_Class_sfnt_module_class
gnd:__ZN5physx7NpScene12loadFromDescERKNS_11PxSceneDescE
Xtf:_Decimal_IsZero_m3557909184_AdjustorThunk
ref:_Char_ToString_m1401375624
WDe:_MD5CryptoServiceProvider__cctor_m3309191799
Pea:__ZNK10FileSystem16LastErrorMessageEv
Lui:_ScriptPlayableOutput__ctor_m3107656159
aVh:__Z74RuntimeInvoker_Vector2_t2243707579_Vector2_t2243707579_Vector2_t2243707579PFvvEPK10MethodInfoPvPS4_
R9b:__ZN11TimeManager16HasFixedTimeStepEv
klg:_Enumerator_System_Collections_IEnumerator_Reset_m3052395060_gshared
lRg:_Kernel_DwordDivMod_m3728402123
YCb:__ZN13MonoBehaviour13AwakeFromLoadE17AwakeFromLoadMode
NJb:__ZL26Transfer_SimpleNativeClassI17RemapPPtrTransfer8GradientLb1EEvRK29SerializationCommandArgumentsR31RuntimeSerializationCommandInfo
V7b:__ZN12CachedWriter9InitWriteER15CacheWriterBase
t6b:__Z21UnsignedInt64ToStringy
xqh:_UTF7Decoder__ctor_m549434986
Fvd:__ZN5physx14PxsAABBManager15createAggregateEPvb
Zck:_InternalEnumerator_1_get_Current_m1025321669_AdjustorThunk
grk:_Rigidbody_set_isKinematic_m738793415
Jic:__Z36MonoBehaviour_CUSTOM_InvokeRepeatingP12Il2CppObjectP12Il2CppStringff
zxk:_WaitForSecondsRealtime_get_keepWaiting_m741039114
cmc:__Z66Register_UnityEngine_Transform_INTERNAL_CALL_InverseTransformPointv
daa:__ZZN15DirectorManager15InitializeClassEvEN41FixedUpdateDirectorFixedUpdateRegistrator7ForwardEv
mb:invoke_iiiiifiiiif
Npk:_X509Crl_VerifySignature_m1390212587
Wah:_Group__ctor_m4103922028
CUa:__ZN6Camera26ClearIntermediateRenderersEj
nsk:_SphereCollider_INTERNAL_set_center_m3085859499
tMl:_glLinkProgram__wrapper
rpa:__ZN6prcoreL12RemapGenericI17TexFormatARGB888815TexFormatBGR888EEvPKNS_9InnerInfoE
aEe:_MD5CryptoServiceProvider_ProcessFinalBlock_m1052610785
LH:__Z79AnimatorControllerPlayable_CUSTOM_INTERNAL_CALL_GetNextAnimatorClipInfoInternalR9HPlayablei
ahf:_BitArray_Set_m2878881714
SUf:_Guid_CompareTo_m2203922782_AdjustorThunk
u9c:__ZN5physx7NpShape8requiresERNS_23PxProcessPxBaseCallbackE
vdl:__ZN6il2cpp6icalls8mscorlib6System13Globalization11CultureInfo35construct_internal_locale_from_nameEP17Il2CppCultureInfoP12Il2CppString
NLb:__ZL22Transfer_ManagedObjectI24GenerateTypeTreeTransferLb1EEvRK29SerializationCommandArgumentsR31RuntimeSerializationCommandInfo
EEc:__ZN24ConvexVsHeightfieldSweepC2ERN5physx2Gu15HeightFieldUtilERKNS1_14ConvexHullDataERKNS0_11PxMeshScaleERKNS0_11PxTransformESC_RKNS0_6PxVec3EfNS0_7PxFlagsINS0_9PxHitFlag4EnumEtEEfbb
Z0j:_ContextAttribute_Equals_m53324298
kXd:__ZN5physx7Cooking14cookConvexMeshERKNS_16PxConvexMeshDescERNS_14PxOutputStreamEPNS_25PxConvexMeshCookingResult4EnumE
Ak:_emscripten_set_main_loop_timing
nAh:_WeakReference_AllocateHandle_m1783929473
nMf:_Array_Sort_TisRuntimeObject_m3674422195_gshared
Dae:__Z40CapsuleCollider_Set_Custom_PropDirectionP12Il2CppObjecti
Q7d:__ZN14CompletionTask22ProcessAllPhysicsTasksEv
L9a:__ZN14ImageReference10FlipImageYEv
Doc:__Z14GetDefaultSkini
aJ:__ZN4FMOD3DSP9setBypassEb
Ceb:__Z19NormalizeWheelInputf
pBf:_Array_InternalArray__ICollection_Remove_TisLink_t865133271_m1984184141_gshared
myc:__Z29Transfer_Blittable_ArrayFieldI8JSONReadhEvRT_R9ArrayInfoRK23StaticTransferFieldInfo
x7e:_LayoutRebuilder_IsDestroyed_m3442208294
Gac:__ZN11MonoManager25GetImageFromAssemblyIndexEi
ejj:_Enumerator_VerifyState_m1547102902_AdjustorThunk
Vdd:__ZN5physx2Sc9ClothCore17addCollisionPlaneERKNS_21PxClothCollisionPlaneE
OVa:__ZN22RenderingCommandBuffer20CleanupCommandBufferEv
dJh:__Z165RuntimeInvoker_Void_t1841601450_UInt32U26_t2197289955_Int32_t2071877448_UInt32U26_t2197289955_Int32_t2071877448_Int32_t2071877448_Int32_t2071877448_Int32_t2071877448PFvvEPK10MethodInfoPvPS4_
Ctc:__Z18Transfer_BlittableI9JSONWriteLb1EtEvRK29SerializationCommandArgumentsR31RuntimeSerializationCommandInfo
qae:__Z34MeshCollider_Get_Custom_PropConvexP12Il2CppObject
O_f:_FileLoadException__ctor_m918124939
Uk:___syscall85
eVd:__ZNK5physx13PxHeightField8isKindOfEPKc
zKk:__ZL25UnresolvedVirtualCall_198P12Il2CppObjectfPK10MethodInfo
DXa:__ZNSt3__26__sortIRPFbP10GUIElementS2_EPS2_EEvT0_S7_T_
URg:_SequentialSearchPrimeGeneratorBase_GenerateSearchBase_m2930465198
Oee:__Z14ValidateFormatR13dynamic_arrayIN20TextRenderingPrivate16TextFormatChangeELj4EE
Iil:__ZN6il2cpp2os6Thread19DetachCurrentThreadEv
sOk:__ZN6il2cpp2vmL21SetupInterfacesLockedEP11Il2CppClassRKNS_2os12FastAutoLockE
qFb:__ZN11MonoManager23VirtualRedirectTransferER24GenerateTypeTreeTransfer
qnb:__ZN19StreamedBinaryWriteILb0EE8TransferI13dynamic_arrayI8Vector3fLj4EEEEvRT_PKc17TransferMetaFlags
Kz:__ZN23AnimationPlayableOutput17SetSourcePlayableEP8Playable
wah:_Capture__ctor_m885749277
Qli:_GUIStyle_set_clipOffset_m3871613343
o3e:_SubmitEvent__ctor_m222860306
eKc:__ZN16ControllerFilter9preFilterERKN5physx12PxFilterDataEPKNS0_7PxShapeEPKNS0_12PxRigidActorERNS0_7PxFlagsINS0_9PxHitFlag4EnumEtEE
zV:__ZN11UnityEngine15CloudWebService14DataDispatcher15SetupWebRequestEv
Z2f:_TextWriter__cctor_m4047845042
zxe:__ZN11UnityEngine15PlatformWrapper13GetShaderCapsEv
SGd:__ZN16MBPOS_TmpBuffers16allocateSleepingEjj
lHj:_AnimationClipPlayable_SetApplyFootIK_m4007156901_AdjustorThunk
I3e:_InputField_CaretBlink_m3960486606
zdg:_SmallXmlParser_ReadCharacters_m1966365555
P0g:_InternalAsyncResult_get_CompletedWithError_m3993955322
h0d:__ZN19CharacterController23VirtualRedirectTransferER19StreamedBinaryWriteILb0EE
O5b:__ZN21FixedBehaviourManager6UpdateEv
ldc:__ZN9Transform9SetParentEPS_NS_15SetParentOptionE
u1e:_GridLayoutGroup_set_startCorner_m1660251450
N$:__ZN19ShaderPropertySheet8SetFloatEN9ShaderLab16FastPropertyNameEfNS_8SetFlagsE
Jdj:__ZL68InputField_t1631627530_CustomAttributesCacheGenerator_m_AsteriskCharP21CustomAttributesCache
Ssa:__ZN19RuntimeSceneManager24BeginIntegrateMainThreadEP10UnityScene
_Yc:__ZN5physx14NpArticulation26setExternalDriveIterationsEj
KBc:__ZN16RayRTreeCallbackILi0ELb0EED0Ev
ivk:_Transform_TransformPoint_m3272254198
oMd:__ZN5physx20PxsParticleSystemSim23scheduleCollisionUpdateERNS_10PxBaseTaskE
Bjl:__ZNSt3__2plIcNS_11char_traitsIcEENS_9allocatorIcEEEENS_12basic_stringIT_T0_T1_EERKS9_S6_
Q3f:_LocalDataStoreSlot__cctor_m1192669356
nVb:__ZN9ShaderLab20SerializedSubProgramaSERKS0_
SBl:_roundf
BOe:_String_CreateString_m2556700934
Eib:__ZN18StreamedBinaryReadILb0EE21TransferSTLStyleArrayINSt3__26vectorI17SortingLayerEntryNS2_9allocatorIS4_EEEEEEvRT_17TransferMetaFlags
Ct:__ZN8Animator15SetPrepareStageEv
TDj:_Slider_get_axis_m162140813
tOk:__ZN6il2cpp2vmL24SetupTypeHierarchyLockedEP11Il2CppClassRKNS_2os12FastAutoLockE
Gwl:_RespawnScript_heydeadman_m3078377312
Jeb:__ZL11TextHandleriPK23EmscriptenKeyboardEventPv
H7e:_LayoutRebuilder_U3Cs_RebuildersU3Em__0_m3768099182
pCj:_ScrollRect_SetLayoutHorizontal_m3486408020
iee:_destroy_face
Nij:_Enumerator_VerifyState_m1547102902_gshared
pIl:_glBlendEquationSeparate__wrapper
Qrl:__ZN6il2cpp6icalls8mscorlib6System8Security12Cryptography24RNGCryptoServiceProvider13RngInitializeEP11Il2CppArray
y4g:_IPAddress__cctor_m3624830012
sLc:__ZN5physx3Cct26CharacterControllerManager21createObstacleContextEv
K2i:__ZL115AnimatorStateInfo_t2577870592_CustomAttributesCacheGenerator_AnimatorStateInfo_t2577870592____nameHash_PropertyInfoP21CustomAttributesCache
q6g:_AsnEncodedData_EnhancedKeyUsageExtension_m1452131166
Lej:__ZL69Scrollbar_t3248359358_CustomAttributesCacheGenerator_m_OnValueChangedP21CustomAttributesCache
ZPb:__Z19TransferField_ArrayI18StreamedBinaryReadILb1EE27Converter_SimpleNativeClassI17AnimationCurveTplIfEEEvRK23StaticTransferFieldInfoR31RuntimeSerializationCommandInfoRT0_
cGa:__ZN18GfxFramebufferGLES22MakeCurrentFramebufferENS_7BuiltinE
Cbh:_Interpreter_Close_m1500459069
spd:__ZN5physx6shdfnd5ArrayIPNS_2Sc19ShapeInstancePairLLENS0_19ReflectionAllocatorIS4_EEE15growAndPushBackERKS4_
Ava:__ZN12CachedReader4ReadEPvj
Ele:_cf2_blues_init
m1c:__ZN5physx2Sc8BodyCore24clearSpatialAccelerationEbb
D6j:_InternalEnumerator_1_System_Collections_IEnumerator_get_Current_m3600601141_gshared
FGe:_SHA1Internal_HashFinal_m3188468925
Vwk:_Vector3_op_Inequality_m799191452
l0a:__Z24CalculateLightShadowFadeRK6CamerafffR8Vector4f
X1:__ZN19RuntimeSceneManagerD2Ev
K_j:_ChannelData_get_CustomProperties_m1470957369
z5j:_InternalEnumerator_1_System_Collections_IEnumerator_get_Current_m1313308902_AdjustorThunk
ENf:_Dictionary_2_Do_ICollectionCopyTo_TisRuntimeObject_m545661084_gshared
PW:__ZN11UnityEngine15CloudWebService25WebRequestDownloadHandler17OnCompleteContentEv
Ioa:__ZN6prcore17GetIntegerBlitterE13TextureFormatS0_N14ImageReference8BlitModeE
lpd:__ZN5physx10PxsContext20createContactManagerERKNS_24PxvManagerDescRigidRigidEPNS_18PxsMaterialManagerE
s2k:__ZN6il2cpp2gc19AppendOnlyGCHashMapINSt3__24pairIPK11Il2CppImageP11Il2CppClassEEP22Il2CppReflectionModule17ReflectionMapHashIS9_ENS2_8equal_toIS9_EEE11TryGetValueERKS9_PSB_
akj:_Enumerator_VerifyState_m3173176371_AdjustorThunk
hTc:__ZN5physx2Sc5Scene31removeActiveBreakableConstraintEPNS0_13ConstraintSimE
C3g:_TypeConverterAttribute__cctor_m506796812
Xcc:__ZN9BlobWrite14ReduceCopyImplERK14ReduceCopyDataj
yfk:_Comparer_1_System_Collections_IComparer_Compare_m1790257529_gshared
Itd:__ZN5physx6shdfnd5ArrayINS_12PxActorShapeENS0_19ReflectionAllocatorIS2_EEE15growAndPushBackERKS2_
wQa:__ZN25MultiBlocksMemoryFileData17AdjustBlocksCountEj
cal:__ZNSt3__214__split_bufferIN6il2cpp2vm22EmbeddedResourceRecordERNS_9allocatorIS3_EEED2Ev
PWg:_TlsClientHello__ctor_m1699671541
qce:__ZN13TextRendering4Font8TransferI24GenerateTypeTreeTransferEEvRT_
xIj:_AnimationOffsetPlayable_GetRotation_m3608800497_AdjustorThunk
Bfc:__Z27CullingGroup_CUSTOM_DisposeP12Il2CppObject
r9k:__ZN6il2cpp6icalls8mscorlib6SystemL23CheckWideningConversionEjjj
fWa:__ZN13ComputeShader15SetTextureParamEjRKN9ShaderLab16FastPropertyNameE9TextureID16TextureDimension
iDj:_Shadow_set_effectDistance_m1951993364
Nii:_GUILayoutEntry_ApplyStyleSettings_m371609721
W5c:__ZN5physx2Sc14ConstraintCore8setFlagsENS_7PxFlagsINS_16PxConstraintFlag4EnumEtEE
cn:_glStencilMask
djl:__ZN6il2cpp2os10ThreadImpl16GetCurrentThreadEv
_Td:__ZNK5physx2Sc15ClothFabricCore20getNbParticleIndicesEv
Eeb:__ZN15GUIEventManager10QueueEventERK10InputEvent
Hjj:_Enumerator_System_Collections_IEnumerator_get_Current_m2010873149_gshared
Jfj:__ZL74SpriteState_t1353336012_CustomAttributesCacheGenerator_m_HighlightedSpriteP21CustomAttributesCache
fgh:_RealProxy__ctor_m2505535530
rpl:_GC_push_conditional_with_exclusions
Gxh:_UInt32_System_IConvertible_ToUInt16_m2798641702_AdjustorThunk
bih:_BinaryFormatter_get_DefaultSurrogateSelector_m219714691
zC:__ZN12_GLOBAL__N_121ProcessAnimationBeginER35AnimationPlayableEvaluationConstantR32AnimationPlayableEvaluationInputR33AnimationPlayableEvaluationOutput
WLj:_AnimatorControllerPlayable_CrossFadeInFixedTime_m3016214003
yFh:__Z136RuntimeInvoker_Void_t1841601450_Int32_t2071877448_RuntimeObject_RuntimeObject_RuntimeObject_RuntimeObject_RuntimeObject_SByte_t454417549PFvvEPK10MethodInfoPvPS4_
sfi:_MonoProperty_GetOptionalCustomModifiers_m3827844355
Xyl:_strrchr
zSc:__ZN5physx2Sc7BodySim6wakeUpEv
xKj:_AnimatorControllerPlayable_IsParameterControlledByCurve_m3990583163_AdjustorThunk
I8f:_SimpleCollator_GetSortKey_m2188419329
bpd:__ZN5physx6shdfnd8PoolBaseINS_2Gu30LargePersistentContactManifoldENS0_19ReflectionAllocatorIS3_EEE17releaseEmptySlabsEv
WSc:__ZN5physx2Sc21ConstraintInteraction7destroyEv
L2d:__ZN14SphereCollider6CreateEPK9Rigidbody
Bgj:__ZL56LayoutElement_t2808691390_CustomAttributesCacheGeneratorP21CustomAttributesCache
aob:__ZN14RenderSettings27UpdateIndirectSpecularColorEv
UAb:__ZN14PlayerSettings8TransferI18StreamedBinaryReadILb0EEEEvRT_
dXk:__ZN6il2cpp6icalls8mscorlib6System8MonoType16GetMethodsByNameEP20Il2CppReflectionTypeP12Il2CppStringibS5_
Hqd:__ZNK5physx7NpScene16getNbConstraintsEv
Ecd:__ZN5physx7NpCloth14setWakeCounterEf
qxj:_Mask_IsRaycastLocationValid_m62488857
Kya:__ZNSt3__27__sort3IRNS_4lessIN22BuiltinResourceManager8ResourceEEEPS3_EEjT0_S7_S7_T_
Mek:_DefaultComparer_Compare_m3472472212_gshared
m$f:_MonoIO_GetLength_m2812344043
mke:_ps_hints_t2mask
svk:_RequestAtlasCallback_Invoke_m2414509569
Axb:__ZN10BlendShape8TransferI19StreamedBinaryWriteILb0EEEEvRT_
lvk:_Transform_IsChildOf_m10844547
FYf:__Z21il2cpp_codegen_sizeofP11Il2CppClass
sga:__Z19GetTimeSinceStartupv
jLe:_SecurityFrame_get_Assembly_m2816566490
oci:_FieldInfo_GetPseudoCustomAttributes_m2500972355
hOc:__ZN5physx3Scb5Scene10getPxSceneEv
Dpe:_TT_Load_Composite_Glyph
Gxk:_NetFxCoreExtensions_CreateDelegate_m2492743074
r9e:_Array_Sort_m2994254654
qxg:_List_1__ctor_m593058937_gshared
F_a:__ZN29RenderNodeQueuePrepareContextC2Ev
oR:__ZN10SampleClipC2E18MemLabelIdentifier18ObjectCreationMode
nWb:__ZN9ShaderLab20SerializedSubProgram16TextureParameter8TransferI24GenerateTypeTreeTransferEEvRT_
qtl:__ZN6il2cpp2os11MutexHandle4WaitEj
Ybc:__ZL34GetComponentsImplementationRecurseILb1ELi1ELi1EEbR10GameObjectbRK17CompareParametersRK39GetComponentsImplementation_ReturnValue
ptl:__ZN6il2cpp2os11MutexHandle4WaitEv
Mef:_ArrayList_set_Capacity_m592558035
Bqa:__ZN6prcoreL17RemapGenericFloatI15TexFormatRGHalf18TexFormatARGBFloatEEvPKNS_9InnerInfoE
kga:__Z18SimulateMouseInputi
BXf:_Int64_System_IConvertible_ToDecimal_m3390697048_AdjustorThunk
cVa:__ZN13RenderManager23AddRemoveCamerasDelayedEv
Guc:__ZN9JSONWrite8TransferI13dynamic_arrayIdLj8EEEEvRT_PKc17TransferMetaFlags
KBf:_Array_InternalArray__ICollection_Remove_TisILTokenInfo_t149559338_m1523907845_gshared
V7d:__ZNK5Unity5Joint16GetCurrentForcesER8Vector3fS2_
_if:_Hashtable_Rehash_m2877670513
m3h:__Z98RuntimeInvoker_RuntimeObject_UIVertex_t1204258818_UIVertex_t1204258818_RuntimeObject_RuntimeObjectPFvvEPK10MethodInfoPvPS4_
i7a:__ZN13RenderTexture8SetWidthEi
G5e:_InputField_Insert_m1593238693
Fpe:_UNITY_FT_GlyphLoader_CheckSubGlyphs
dnb:__ZN18StreamedBinaryReadILb0EE21TransferSTLStyleArrayI10vector_mapI7Hash128iNSt3__24lessIS3_EE13stl_allocatorINS4_4pairIS3_iEEL18MemLabelIdentifier80ELi16EEEEEvRT_17TransferMetaFlags
NVk:__ZN6il2cpp2vm21ThreadPoolCompartment20SpawnNewWorkerThreadEv
nHf:_Array_InternalArray__ICollection_Add_TisCustomAttributeTypedArgument_t1498197914_m3260005285_gshared
P0a:__Z25SetupObjectBakedOcclusionbRK15SharedLightDataRK26SharedLightmapSettingsDataRK15LightmapIndicesR17ShaderPassContext
Pjf:_SyncHashtable_GetObjectData_m3774367030
VUf:_Guid_GetHashCode_m1401300871
iHj:_AnimationClipPlayable_GetApplyFootIK_m3962677322_AdjustorThunk
nrc:__Z42Register_UnityEngine_GUIStyle_set_fontSizev
D8c:__ZNK5physx9NpFactory11getNbShapesEv
RI:__Z82Register_UnityEngine_Animations_AnimatorControllerPlayable_INTERNAL_CALL_GetBoolIDv
RA:__ZN8Animator9BuildJobsERK13dynamic_arrayIP14PlayableOutputLj4EERS0_INS_11AnimatorJobELj4EEPS7_bb
Fqi:_MeshCollider_set_convex_m2548365563
b$:__ZN9ShaderLab16FastPropertyName4InitEPKc
S$b:__Z13RegisterClassIN2UI13RectTransformEEvv
e8f:_MSCompatUnicodeTable_ToWidthCompat_m2299599532
$n:FUNCTION_TABLE_iiiii
G_d:__ZN5physx14PxRigidBodyExt23setMassAndUpdateInertiaERNS_11PxRigidBodyEfPKNS_6PxVec3Eb
R6f:_NumberFormatter_get_IsFloatingSource_m2830957202
Vha:__ZN13RenderTexture9SetMipMapEb
pBj:_ScrollRect_set_verticalScrollbarSpacing_m2356851539
CMd:__ZN5physx2Sc10ClothShape21updateBoundsInAABBMgrEv
eui:_PlayableHandle_INTERNAL_CALL_SetTimeInternal_m3873000891
y7f:_OperatingSystem_GetObjectData_m2276196875
dOj:_AssetBundleRequest_get_allAssets_m3314852268
zlc:__Z38Transform_CUSTOM_INTERNAL_get_rotationP12Il2CppObjectP11Quaternionf
n$k:__ZNSt3__26vectorIN6il2cpp2vm17TypeNameParseInfoENS_9allocatorIS3_EEE8allocateEj
h2k:__ZNK15dense_hashtableINSt3__24pairIK10KeyWrapperINS1_IPK10MethodInfoP11Il2CppClassEEEjEES9_17ReflectionMapHashIS8_EN14dense_hash_mapIS9_jSD_NS9_14EqualsComparerINS0_8equal_toIS8_EEEENS0_9allocatorISB_EEE9SelectKeyESI_SK_E5beginEv
pIa:__ZN7ApiGLES19UploadBufferSubDataEjN2gl12BufferTargetEllPKv
JAd:__ZN5physx2Sc5Scene17createClothSolverEv
oca:__ZNSt3__216__rotate_forwardINS_11__wrap_iterIPN4core12basic_stringIcNS2_20StringStorageDefaultIcEEEEEEEET_S9_S9_S9_
IMe:_String_System_IConvertible_ToInt32_m1927223638
emh:_CryptographicException__ctor_m406825529
QRj:_Canvas_set_sortingOrder_m2922819993
o4d:__ZThn116_N5physx7profile8ZoneImplINS_28PxProfileNameProviderForwardEE12removeClientERNS_19PxProfileZoneClientE
dUj:_Color_get_red_m2410286591
fGd:__ZN15MBP_PairManager17removeMarkedPairsEPK10MBP_ObjectPN5physx16PxsBroadPhaseMBPERK8BitArrayS8_
tPj:_AudioMixerPlayable_Create_m3525453973
QOe:_ASCIIEncoding__ctor_m4127831672
lHb:__Z19TransferField_ArrayI14SafeBinaryRead27Converter_SimpleNativeClassI8GUIStyleEEvRK23StaticTransferFieldInfoR31RuntimeSerializationCommandInfoRT0_
VEb:__ZN9TextAsset23VirtualRedirectTransferER19StreamedBinaryWriteILb0EE
woh:_UTF8Encoding__ctor_m3336862259
Xrl:__ZN6il2cpp5utils10MemoryPoolC2Ej
L8g:_X509Chain_GetAuthorityKeyIdentifier_m2607407678
Trl:__ZN6il2cpp5utils10MemoryPoolC2Ev
Fnb:__ZN14RenderSettings5ResetEv
C_b:__ZN6Sprite9BindAtlasERK4PPtrI11SpriteAtlasE
a8c:__ZN5physx9NpPhysics33unregisterDeletionListenerObjectsERNS_18PxDeletionListenerEPKPKNS_6PxBaseEj
Ced:__ZNK5physx2Sc9ClothCore22getAngularInertiaScaleEv
VE:__ZZN8Animator15InitializeClassEvEN37FunctorImpl_421kDidModifyOverrideClip4CallEPviR11MessageData
L$c:__ZN5physx20NpRigidActorTemplateINS_18PxArticulationLinkEE12setActorFlagENS_11PxActorFlag4EnumEb
Jbk:_InternalEnumerator_1_get_Current_m3724267862_AdjustorThunk
XNf:_Dictionary_2_Do_ICollectionCopyTo_TisKeyValuePair_2_t3716250094_m1740410536_gshared
Ihi:_GUI_CallWindowDelegate_m2039577415
Feg:_RSAManaged_Dispose_m3018788098
nsc:__ZN8Gradient8TransferI9JSONWriteEEvRT_
hfb:__ZNK12TLSAllocatorI14StackAllocatorE22GetAllocatedMemorySizeEv
iFi:__ZL54AssemblyName_t894705941_CustomAttributesCacheGeneratorP21CustomAttributesCache
Ppf:_Convert_ToUInt32_m3394039268
Kac:__Z32GetSceneHierarchyPathDescriptivePK6Object
lRa:__ZN12HandlerChain4NameEv
pn:FUNCTION_TABLE_fiiiiiifiiiiiif
uzb:__ZNSt3__26vectorI9InputAxisNS_9allocatorIS1_EEE10deallocateEv
uPd:__ZN5physx37setupFinalizeSolverConstraintsCoulombERNS_13PxcNpWorkUnitERKNS_2Gu13ContactBufferERKNS_27PxcCorrelationBufferCoulombERKNS_11PxTransformESB_bPhRKNS_13PxcSolverBodyESF_RKNS_17PxcSolverBodyDataESI_ffjffff
TVf:_Int16_Equals_m3925135434_AdjustorThunk
wve:__Z44Register_UnityEngine_CanvasRenderer_get_cullv
TCi:__ZL60IHashCodeProvider_t1980576455_CustomAttributesCacheGeneratorP21CustomAttributesCache
n0b:__ZN13ProduceHelperI13MonoBehaviourLb0EE7ProduceE18MemLabelIdentifier18ObjectCreationMode
Akg:_Enumerator_VerifyState_m1677639504_AdjustorThunk
ZVg:_CipherSuiteCollection_get_Item_m280627160
JFb:__Z44InitializeTransferFunctionScriptingTraitsForI17RemapPPtrTransferEvR31TransferFunctionScriptingTraits
odh:_SerializationInfoEnumerator_MoveNext_m1876990879
$th:_TimeSpan_Duration_m4205681645
Fab:__ZN14UnityWebStream24UpdateAllUnityWebStreamsEv
tBi:__ZL60ObsoleteAttribute_t3878847927_CustomAttributesCacheGeneratorP21CustomAttributesCache
Qch:_CostDelegate_BeginInvoke_m1628968398
PIf:_Array_InternalArray__ICollection_CopyTo_TisRaycastHit2D_t4063908774_m3837098618_gshared
gFd:__ZN5physx31ComputeCreatedDeletedPairsListsEPKjS1_jRPNS_17PxcBroadPhasePairERjS5_S4_S5_S5_RNS_14SapPairManagerE
Qsa:__ZN18LoadSceneOperation21MustCompleteNextFrameEv
GTi:__ZL48Camera_t189460977_CustomAttributesCacheGeneratorP21CustomAttributesCache
I6a:__ZNSt3__26vectorI11CameraStackNS_9allocatorIS1_EEE8__appendEj
iKd:__ZN5physx2Gu16pcmContactBoxBoxERKNS0_13GeometryUnionES3_RKNS_11PxTransformES6_RKfRNS0_5CacheERNS0_13ContactBufferE
P4e:_InputField_OnDisable_m1865339380
Dxh:_UInt32_System_IConvertible_ToType_m747769316
Tu:__ZN7mecanim9animation12GetHumanPoseERKNS0_18ClipMuscleConstantEPKNS0_10ValueDeltaERNS_5human9HumanPoseE
yw:__ZN22AnimationMixerPlayable17ProcessRootMotionEP35AnimationPlayableEvaluationConstantP32AnimationPlayableEvaluationInputP33AnimationPlayableEvaluationOutput
k5:__Z13GetFileSystemv
J4b:__ZZL23RegisterLightPropertiesR22GenericPropertyBindingEN29Wrapper_LightColorTemperature13SetFloatValueEPvf
B6:__ZNK5Unity4Type21FindAllDerivedClassesER13dynamic_arrayIPKS0_Lj4EENS0_17TypeFilterOptionsE
K7:__ZN13RuntimeStaticI15GUIEventManagerLb0EE16StaticInitializeEPv
spj:_Dictionary_2_ToTKey_m2900575080_gshared
PSf:_DaylightTime_get_Delta_m2316831491
r3d:__ZN15RaycastCallback14processTouchesEPKN5physx12PxRaycastHitEj
dBf:_Array_InternalArray__ICollection_Contains_TisUILineInfo_t3621277874_m1175659630_gshared
pth:_WaitHandle_WaitOne_m370363697
Rah:_FactoryCache_Lookup_m1681894361
Xrf:_DateTime_Subtract_m698282245_AdjustorThunk
CWd:__ZN5physx2Gu5RTree15exportExtraDataERNS_22PxSerializationContextE
kQb:__Z29Transfer_Blittable_ArrayFieldI18StreamedBinaryReadILb1EE5RectTIfEEvRT_R9ArrayInfoRK23StaticTransferFieldInfo
tWa:__ZN19ShaderPropertySheet9SetMatrixEN9ShaderLab16FastPropertyNameERK10Matrix4x4fNS_8SetFlagsE
_Ee:_RIPEMD160Managed_Initialize_m3365407578
y8b:__Z29GetTextureSizeAllowedMultiple13TextureFormat
x4g:_IPAddress_HostToNetworkOrder_m1092199707
Szd:__ZNK5physx2Sq10AABBPruner7overlapERKNS0_9ShapeDataERNS0_14PrunerCallbackE
hDf:_SetPropertyUtility_SetStruct_TisSpriteState_t1353336012_m2898060836_gshared
nJe:_SecurityAttribute__ctor_m3425755778
l6b:__ZN21IntermediateRenderers3AddEP20IntermediateRenderer
FYk:_il2cpp_array_element_size
gXj:_InvokableCall__ctor_m738302370
cpd:__ZN5physx6shdfnd5ArrayIPvNS0_19ReflectionAllocatorINS_2Gu30LargePersistentContactManifoldEEEE4copyINS0_15InlineAllocatorILj256ES6_EEEEvRKNS1_IS2_T_EE
Dg:_glCheckFramebufferStatus
yEf:_Array_compare_TisInt32_t2071877448_m840310202_gshared
jek:_InternalEnumerator_1_System_Collections_IEnumerator_get_Current_m442726479_AdjustorThunk
ZX:__ZN19CloudServiceHandler20StartEventDispatcherERKN11UnityEngine15CloudWebService18CloudServiceConfigERNS1_23WebRequestRestHeaderMapE
rck:_InternalEnumerator_1_System_Collections_IEnumerator_get_Current_m790514740_AdjustorThunk
URd:__ZN5physx2Cm12DelegateTaskINS_2Sc5SceneEXadL_ZNS3_19updateCCDSinglePassEPNS_10PxBaseTaskEEEE11runInternalEv
iNc:__ZN5physx6string9sprintf_sEPcjPKcz
wZd:__ZThn8_N5physx19TriangleMeshBuilderD1Ev
U7f:__Z37il2cpp_codegen_get_executing_assemblyPK10MethodInfo
nGc:__ZN5physx2Gu16intersectRayAABBERKNS_6PxVec3ES3_S3_S3_RfS4_
LPh:__Z72RuntimeInvoker_Boolean_t3825574718_Bounds_t3033363703_Bounds_t3033363703PFvvEPK10MethodInfoPvPS4_
du:__ZN21AnimationClipPlayable7SetTimeEd
jni:_GUIStyle_Internal_DrawPrefixLabel_m1693575069
EFf:_Array_InternalArray__IndexOf_TisByte_t3683104436_m3605266236_gshared
gni:_GUIStyle_set_richText_m1853532836
u4b:__ZZL23RegisterLightPropertiesR22GenericPropertyBindingEN22Wrapper_LightIntensity13GetFloatValueEPv
tzj:_RaycastAllCallback_Invoke_m981876639
ioh:_UnicodeEncoding__ctor_m72484327
CPd:__ZN5physx30setupFinalizeSolverConstraintsERNS_13PxcNpWorkUnitERKNS_2Gu13ContactBufferERKNS_20PxcCorrelationBufferERKNS_11PxTransformESB_bPhRKNS_13PxcSolverBodyESF_RKNS_17PxcSolverBodyDataESI_ffffff
wcl:__ZN14dense_hash_mapI10KeyWrapperIP14Il2CppIUnknownEjN6il2cpp5utils11PointerHashIS1_EENS3_14EqualsComparerINSt3__28equal_toIS2_EEEENS9_9allocatorINS9_4pairIKS3_jEEEEE15set_deleted_keyERSF_
s7:__ZN22BuiltinResourceManager16StaticInitializeEPv
R4c:__ZN5physx7NpScene17releaseBatchQueryEPNS_12PxBatchQueryE
K4k:__ZN13Il2CppHashMapIPK14Il2CppAssemblyPK22Il2CppMonoAssemblyNameN6il2cpp5utils11PointerHashIS1_EENSt3__28equal_toIS2_EENSA_9allocatorINSA_4pairIK10KeyWrapperIS2_ES5_EEEEEC2EjRKS9_RKSC_
VOd:__ZN5physx26solveVBlockDefaultFrictionEPNS_13PxsSolverCoreEfjjPNS_13PxcSolverBodyEPNS_17PxcSolverBodyDataEjjPNS_25PxcArticulationSolverDescEjPNS_23PxcSolverConstraintDescEjS9_jRNS_6shdfnd5ArrayINS_24PxsConstraintBatchHeaderENSA_19ReflectionAllocatorISC_EEEESG_PNS_2Cm13SpatialVectorEPNS_25PxcThresholdStreamElementEjRj
fak:_InternalEnumerator_1_System_Collections_IEnumerator_get_Current_m3576641073_AdjustorThunk
UXg:_ClientSessionInfo_SetContext_m2649357891
KWf:_Int32_System_IConvertible_ToInt64_m3790029067_AdjustorThunk
CRe:_RaycasterManager_GetRaycasters_m1154876874
f1g:_SslStreamBase_InternalReadCallback_m2524917586
f6:__ZN8Remapper6RemoveEi
zpg:_List_1_CheckCollection_m2608305187_gshared
bEd:__ZN5physx11writeBack1DERKNS_23PxcSolverConstraintDescERNS_16PxcSolverContextERNS_17PxcSolverBodyDataES6_
Qee:__ZL36CleanupTextRenderingScriptingClassesv
PBc:__ZThn4_N16RayRTreeCallbackILi0ELb0EED0Ev
e7a:__ZN15ReflectionProbe17UseRendererResultEP13ProbeRenderer
Z8e:_Array_BinarySearch_m3270245097
jic:__Z34Mesh_CUSTOM_SetArrayForChannelImplP12Il2CppObject30InternalScriptingShaderChannel34InternalScriptingVertexChannelTypeiP11Il2CppArrayi
A_f:_MonoIO_DeleteFile_m3273821223
Q9f:_BigInteger_GenerateRandom_m2507308768
Nqf:_DateTime_System_IConvertible_ToDouble_m1431748426_AdjustorThunk
QAf:_Array_InternalArray__ICollection_Contains_TisUInt16_t986882611_m510319131_gshared
luf:_Decimal_ToString_m541380585
BIj:_AnimationOffsetPlayable_SetRotation_m1448934280_AdjustorThunk
XYk:_il2cpp_class_is_valuetype
FE:__ZN11UnityEngine9Animation28GenericAnimationBindingCache25RegisterIAnimationBindingEPKN5Unity4TypeEiP17IAnimationBinding
Yyd:__ZN5physx2Gu17GetGeomSweepFuncsEv
OUc:__ZN5physx6shdfnd8PoolBaseINS_15PxsArticulationENS0_16AlignedAllocatorILj64ENS0_9AllocatorEEEE17releaseEmptySlabsEv
pxf:_Enum_ToObject_m2601523252
Iuf:_Delegate_CreateDelegate_m1706525923
g5a:__Z40ProcessCameraIndexListIsNodeVisibleInOutRK22SceneCullingParametersPK9SceneNodePK4AABBR9IndexList
Ykb:__ZN16GraphicsSettings8TransferI17RemapPPtrTransferEEvRT_
I1f:_StreamReader__ctor_m2654332332
_se:__ZN2UI6Canvas13UpdateBatchesEb
Hz:__ZNK23AnimationPlayableOutput11DerivesFromE17ScriptingClassPtr
bHl:_glGetShaderInfoLog__wrapper
Fng:_List_1_CheckCollection_m3968030679_gshared
J9c:__ZN5physx2Gu5Debug9visualizeERKNS_13PxBoxGeometryERNS_2Cm12RenderOutputERKNS5_8Matrix34ERKNS_9PxBounds3Eyfj
dph:_StringBuilder_ToString_m617673931
kAc:__ZN5physx6shdfnd5ArrayIPKvNS0_19ReflectionAllocatorIS3_EEE6resizeEjRKS3_
Yxe:__ZN11UnityEngine7Connect13ConfigHandler12GetListenersERKN4core12basic_stringIcNS2_20StringStorageDefaultIcEEEE
BBa:__ZN9GfxDevice18AllocRenderSurfaceEb
IPd:__ZN5physx31setupFinalizeSolverConstraints4EPNS_21PxcSolverContact4DescERNS_18PxcNpThreadContextEPhffRKNS_6shdfnd3aos5Vec4VES9_S9_S9_
qrd:__ZN5physx7NpScene5flushEb
w_b:__ZN10TagManager32GetSortingLayerUniqueIDFromValueEi
Ljk:_AnchorInfo_get_IsComplete_m1247624133
K_e:_Dropdown_Show_m324374589
B1:__ZL27CleanupCoreScriptingClassesv
PFh:__Z68RuntimeInvoker_RuntimeObject_RuntimeObject_DSAParameters_t1872138834PFvvEPK10MethodInfoPvPS4_
vPj:_AudioMixerPlayable_INTERNAL_CALL_CreateAudioMixerPlayableInternal_m3355685531
kSk:__ZNSt3__27__sort3IRN6il2cpp5utils11collections13ArrayValueMapIPK10Il2CppType17Il2CppInteropData26InteropDataToTypeConverterNS1_8metadata14Il2CppTypeLessENSA_26Il2CppTypeEqualityComparerEE12SortComparerEPS8_EEjT0_SH_SH_T_
TAc:__ZN5physx2Gu13GeometryUnion3setERKNS_10PxGeometryE
uXh:__Z101RuntimeInvoker_Void_t1841601450_RuntimeObject_Int32_t2071877448_Single_t2076509932_Single_t2076509932PFvvEPK10MethodInfoPvPS4_
yMj:_AnimatorControllerPlayable_PlayInFixedTime_m1932606764_AdjustorThunk
VTe:_RaycastResult_get_isValid_m2482925612
Zhc:__Z26AnimationCurve_CUSTOM_InitP12Il2CppObjectP11Il2CppArray
QKl:_glUniform1uiv__wrapper
v4k:__ZN6il2cpp2vm10Reflection7IsEventEP12Il2CppObject
H2:__ZN17PersistentManager26GetStreamNameSpaceInternalEi
OJ:__ZN4FMOD6System11createSoundEPKcjP22FMOD_CREATESOUNDEXINFOPPNS_5SoundE
ISj:_CanvasRenderer_get_cull_m3577089379
Xo:FUNCTION_TABLE_iiifiiii
Nri:_Object_Destroy_m4145850038
O$k:__ZN6il2cpp2vm4Type14IsSystemDBNullEPK10Il2CppType
I4d:__ZThn128_N5physx7profile8ZoneImplINS_28PxProfileNameProviderForwardEED1Ev
i0:__ZN9ShaderLab19CommonPropertyNames13StaticCleanupEPv
wIj:_AnimationOffsetPlayable_INTERNAL_CALL_GetRotationInternal_m3411582030
O3:__Z31scripting_method_get_returntype18ScriptingMethodPtr
xBj:_ScrollRect_UpdateBounds_m3266596336
mAd:__ZN5physx2Sq17AABBTreeUpdateMap10invalidateEjjRNS0_8AABBTreeE
Irb:__ZN15SerializeTraitsI12LightmapDataE8TransferI24GenerateTypeTreeTransferEEvRS0_RT_
Vwj:_LayoutUtility_GetFlexibleWidth_m1731978987
XOd:__ZN5physx28solveParallelDefaultFrictionERNS_18PxsDynamicsContextEjjPNS_13PxcSolverBodyEPNS_17PxcSolverBodyDataEjjPNS_25PxcArticulationSolverDescEjPNS_23PxcSolverConstraintDescEjS9_jPiSA_SA_SA_SA_SA_PNS_25PxcThresholdStreamElementEjSA_PNS_2Cm13SpatialVectorEPKPNS_11PxsBodyCoreERNSD_10BitMapBaseINS_6shdfnd9AllocatorEEEPKPNS_15PxsArticulationEjPViRNSL_5ArrayINS_24PxsConstraintBatchHeaderENSL_19ReflectionAllocatorISW_EEEES10_RNSV_IjNSX_IjEEEES13_PPNS_12PxsRigidBodyEj
hHl:_glStencilOpSeparate__wrapper
I8b:__ZN4Mesh5SetUvEiPKfjj
sta:__ZN7Texture13SetAnisoLimitENS_20AnisotropicFilteringE
Mta:__ZN28LightProbeProxyVolumeManager25UpdateSHCoeffsTextureDataER21LightProbeProxyVolume
nPa:__Z18CreateDecompressor15CompressionType18MemLabelIdentifier
kS:__ZN11AudioModule16SetListenerPauseEb
ui:_emscripten_glCompressedTexSubImage2D
JJa:__ZN13GfxDeviceGLES22MemoryBarrierImmediateEyN2gl17MemoryBarrierTypeE
$ba:__ZZN18SpriteAtlasManagerC1EvEN46EarlyUpdateSpriteAtlasManagerUpdateRegistrator7ForwardEv
qm:_abort
ibl:__ZN6il2cpp6icalls8mscorlib6System4Type18internal_from_nameEP12Il2CppStringbb
Pqa:__ZN6prcoreL26RemapGenericFloatToIntegerI18TexFormatARGBFloat17TexFormatARGB8888EEvPKNS_9InnerInfoE
yll:__ZN6il2cpp6icalls8mscorlib6System10Reflection9MonoField16GetValueInternalEP21Il2CppReflectionFieldP12Il2CppObject
t8b:__Z46GetShaderModelNumericValueFromRequirementsMask18ShaderRequirements
Mne:_cff_ps_has_glyph_names
qzk:_InvokableCall_1__ctor_m2837611051_gshared
BZd:__ZN5physx15writeWordBufferEPKtjbRNS_14PxOutputStreamE
xhk:_PatternCompiler_EmitPosition_m3013268572
nah:_X509SubjectKeyIdentifierExtension__ctor_m1109455121
xGg:_Collection_1_SetItem_m2707773254_gshared
W0e:_Graphic_CreateColorFromAlpha_m2614574534
zrc:__Z44Register_UnityEngine_GUIStyle_SetDefaultFontv
Mil:__GLOBAL__sub_I_ThreadImpl_cpp
oOb:__Z18Transfer_BlittableI18StreamedBinaryReadILb1EELb1EiEvRK29SerializationCommandArgumentsR31RuntimeSerializationCommandInfo
yB:__ZN9BlobWrite8TransferI22OffsetPtrArrayTransferIKN4math7_float3EEEEvRT_PKc17TransferMetaFlags
iIe:_TripleDES_IsWeakKey_m483013953
C7g:_X509Certificate2_get_PrivateKey_m2662162956
k3k:__ZN15dense_hashtableINSt3__24pairIK10KeyWrapperINS1_IPK12PropertyInfoP11Il2CppClassEEEjEES9_17ReflectionMapHashIS8_EN14dense_hash_mapIS9_jSD_NS9_14EqualsComparerINS0_8equal_toIS8_EEEENS0_9allocatorISB_EEE9SelectKeyESI_SK_E12maybe_shrinkEv
fMh:__Z75RuntimeInvoker_RuntimeObject_RuntimeObject_Single_t2076509932_RuntimeObjectPFvvEPK10MethodInfoPvPS4_
BSc:__ZN5physx2Sc7BodySim37checkSleepReadinessBesidesWakeCounterEv
JOb:__Z18Transfer_BlittableI18StreamedBinaryReadILb1EELb1EsEvRK29SerializationCommandArgumentsR31RuntimeSerializationCommandInfo
hy:__ZN26AnimatorControllerPlayable17IsMultithreadableEv
UWh:__Z54RuntimeInvoker_Void_t1841601450_ColorBlock_t2652774230PFvvEPK10MethodInfoPvPS4_
NLe:_Single_System_IConvertible_ToSByte_m3757385387
A$f:_StreamAsyncResult_SetComplete_m2141125667
yta:__ZL21SetAnisoLimitEnumImplN7Texture20AnisotropicFilteringEb
Dwe:__ZN22BaseUnityConnectClient17OnEnterStateReadyEv
Aod:__ZN5physx2Sc10NPhaseCore24createTriggerInteractionERNS0_8ShapeSimES3_NS_7PxFlagsINS_10PxPairFlag4EnumEtEE
qwa:__ZN14GrowableBufferD2Ev
ohc:__Z29Input_CUSTOM_GetMouseButtonUpi
SCc:__ZN5physx2Gu12selectNormalEhff
DXk:__ZN6il2cpp6icalls8mscorlib6System8MonoType16InternalGetEventEP20Il2CppReflectionTypeP12Il2CppStringi
Frh:_Interlocked_CompareExchange_m3339239614
vhe:_UNITY_tt_face_load_maxp
zhc:__Z46Input_CUSTOM_INTERNAL_set_compositionCursorPosRK13Vector2fIcall
Zt:__ZN7mecanim5human12FullBodyMaskEv
Phd:__ZN5physx3Scb14ParticleSystem16releaseParticlesEjRKNS_16PxStrideIteratorIKjEE
I$:__ZN19ShaderPropertySheet11ComputeHashEv
WRk:__ZN30dense_hashtable_const_iteratorI10KeyWrapperIPK19Il2CppGenericMethodES4_N6il2cpp8metadata23Il2CppGenericMethodHashEN14dense_hash_setIS4_S7_NS4_14EqualsComparerINS6_26Il2CppGenericMethodCompareEEENSt3__29allocatorIS4_EEE8IdentityESB_SE_EppEv
zud:__ZN5physx2Sc5Scene21processLostTouchPairsEv
yW:__ZN11UnityEngine15CloudWebService20WebRequestRestClient6IsDoneEv
pj:_llvm_fabs_f32
rXe:_CanvasScaler_HandleScaleWithScreenSize_m80056230
bW:__ZN11UnityEngine15CloudWebService16SessionContainer16GetJsonDataBlockEjRKN4core12basic_stringIcNS2_20StringStorageDefaultIcEEEERS6_PjSA_
klh:_SByte_System_IConvertible_ToUInt64_m2174352876_AdjustorThunk
QId:__ZN5physx22PxcContactConvexConvexERKNS_2Gu13GeometryUnionES3_RKNS_11PxTransformES6_RKfRNS_10PxcNpCacheERNS0_13ContactBufferE
oqh:_UTF7Encoding_InternalGetBytes_m2772055844
iCc:__ZNK5physx2Gu11ConvexHullV12HillClimbingERKNS_6shdfnd3aos5Vec3VE
Cpj:_Dictionary_2_System_Collections_IDictionary_set_Item_m2290664072_gshared
WHh:__Z76RuntimeInvoker_Void_t1841601450_Int64_t909078037_ResourceInfoU26_t3126209420PFvvEPK10MethodInfoPvPS4_
q8f:_SimpleCollator__cctor_m2693747668
euf:_Decimal_CompareTo_m2454501434_AdjustorThunk
V2:__ZN14SafeBinaryReadD2Ev
owh:_UInt16_System_IConvertible_ToChar_m4055364664
Dhd:__ZN5physx2Sc18ParticleSystemCore10setDampingEf
L$b:__Z13RegisterClassI7TextureEvv
XPb:__ZN8Gradient8TransferI18StreamedBinaryReadILb1EEEEvRT_
lPc:__ZN5physx2Sc10NPhaseCore16deleteFilterPairEPNS0_10FilterPairE
jrc:__Z45Register_UnityEngine_GUIStyle_SetFontInternalv
lbl:__ZN6il2cpp6icalls8mscorlib6System4Type15MakeGenericTypeEP20Il2CppReflectionTypeP11Il2CppArray
gTb:__ZN6ShaderD2Ev
Qj:_SDL_PauseAudio
aZk:_il2cpp_class_from_type
F9e:_Array_Sort_m2323017822
$zj:_Scrollbar_UpdateDrag_m3839695926
Fji:_GUILayoutUtility__cctor_m2957755459
lTc:__ZN5physx2Sc5Scene28addActiveBreakableConstraintEPNS0_13ConstraintSimE
h0:__ZN9ShaderLab19CommonPropertyNames16StaticInitializeEPv
j6c:__ZN5physx6shdfnd8PoolBaseINS_16NpParticleSystemENS0_19ReflectionAllocatorIS2_EEE15disposeElementsEv
m4f:_MissingMemberException__ctor_m3710131950
xD:__ZN7mecanim9animation18CreateAvatarOutputEPKNS0_14AvatarConstantEbbRNS_6memory9AllocatorE
c5d:__ZN5physx7profile11EventBufferINS_24PxDefaultContextProviderENS_6shdfnd6MutexTINS0_26WrapperReflectionAllocatorIhEEEENS0_14ScopedLockImplIS7_EENS_24PxProfileNullEventFilterEE10eventValueEtyx
Jrc:__Z45GUIUtility_CUSTOM_Internal_GetKeyboardControlv
XMh:__Z91RuntimeInvoker_Void_t1841601450_RuntimeObject_Int32_t2071877448_RuntimeObject_RuntimeObjectPFvvEPK10MethodInfoPvPS4_
jmh:_CspParameters__ctor_m2546931874
jGc:__ZN5physx2Gu11getBoxEdgesEv
Gvb:__ZN14Texture2DArray23VirtualRedirectTransferER14SafeBinaryRead
g0a:__ZNK6Camera21CalculateCanDoShadowsEv
_sd:__ZNK5physx2Sc5Scene17getBroadPhaseCapsERNS_16PxBroadPhaseCapsE
Z2c:__ZN5physx9NpFactory14onActorReleaseEPNS_7PxActorE
_0e:_Graphic__cctor_m1643894470
Bil:__ZN6il2cpp2os6Thread12SetStackSizeEj
fCh:__Z99RuntimeInvoker_Void_t1841601450_Int32_t2071877448_RuntimeObject_Int32_t2071877448_Int32_t2071877448PFvvEPK10MethodInfoPvPS4_
Y7g:_X509ChainElementEnumerator_get_Current_m2232618221
nVc:__ZN5physx2Sc5Actor15onElementAttachERNS0_7ElementE
PWe:_U3COnFinishSubmitU3Ec__Iterator0_Reset_m2080388334
b9b:__ZNK8Renderer16IsVisibleInSceneEv
pQj:_Behaviour_get_isActiveAndEnabled_m3838334305
rBj:_ScrollRect_set_onValueChanged_m3957749575
W_:__Z13VFormatBufferPciPKcz
ohd:__ZN5physx2Sc18ParticleSystemCore23setSimulationFilterDataERKNS_12PxFilterDataE
QQb:__Z18Transfer_BlittableI18StreamedBinaryReadILb0EELb1EhEvRK29SerializationCommandArgumentsR31RuntimeSerializationCommandInfo
qMk:_U3CCreateWhereIteratorU3Ec__Iterator1D_1_Dispose_m1879652802_gshared
T2e:_Image_GenerateSimpleSprite_m4275440988
eWj:_Display_get_systemHeight_m3377672024
dxh:_UInt16_ToString_m3280699191
Tqa:__ZN6prcoreL27StretchGenericFloatBilinearI15TexFormatRFloatEEvPKNS_9InnerInfoE
gzd:__ZN5physx6shdfnd8internal8HashBaseINS0_4PairIKNS_2Sq13PrunerPayloadEjEES5_NS0_4HashIS5_EENS1_11HashMapBaseIS5_jS9_NS0_9AllocatorEE6GetKeyESB_Lb1EE15reserveInternalEj
qHi:__ZL56_PropertyInfo_t1567586598_CustomAttributesCacheGeneratorP21CustomAttributesCache
Dw:__Z24ProcessAnimationMixBeginP35AnimationPlayableEvaluationConstantP32AnimationPlayableEvaluationInputP33AnimationPlayableEvaluationOutput
Awi:_Rect_Overlaps_m4145874649
oFf:_Array_IndexOf_TisCustomAttributeNamedArgument_t94157543_m745056346_gshared
THa:__Z14PadImageBorderR14ImageReferenceii
P1k:__ZN15dense_hashtableINSt3__24pairIK10KeyWrapperINS1_IPK10MethodInfoP11Il2CppClassEEEjEES9_17ReflectionMapHashIS8_EN14dense_hash_mapIS9_jSD_NS9_14EqualsComparerINS0_8equal_toIS8_EEEENS0_9allocatorISB_EEE9SelectKeyESI_SK_E4findERSA_
YTh:__Z116RuntimeInvoker_Void_t1841601450_Rect_t3681755626_SByte_t454417549_SByte_t454417549_SByte_t454417549_SByte_t454417549PFvvEPK10MethodInfoPvPS4_
p3j:_ArrayReadOnlyList_1_ReadOnlyError_m2289309720_gshared
ex:__ZN27AnimationLayerMixerPlayableD2Ev
RXk:__ZN6il2cpp2vm8basepathEPKc
TCd:__ZN5physx2Gu22gjkRelativePenetrationINS0_9TriangleVENS0_8CapsuleVEEEjRKT_RKT0_RKNS_6shdfnd3aos15PsMatTransformVERKNSB_6FloatVERNSB_5Vec3VESJ_SJ_RSF_PhSL_Rh
S_d:__ZN9Rigidbody14SetIsKinematicEb
QTg:_PKCS1_Verify_v15_m478274703
GL:__ZN12AudioManager39HandlePendingAudioConfigurationCallbackEv
Nk:_emscripten_glIsFramebuffer
C5b:__ZN12_GLOBAL__N_16qAtan2Eff
A9d:__Z13RegisterClassI9RigidbodyEvv
Zof:_Convert_ToInt64_m954367741
Rk:_JS_Sound_SetLoopPoints
Eef:_ArrayList__ctor_m1467563650
BP:__ZN12AudioManager17ShouldSourcePauseEb
msl:__ZN6il2cpp2vm26MetadataAllocGenericMethodEv
iMa:__ZN19ConstantBuffersGLES12RecordRenderEv
Kyd:__ZN5physx13ActorAABBTaskD2Ev
Tuk:_Transform_INTERNAL_set_rotation_m3703763817
zuc:__ZN9JSONWrite8TransferI10RectOffsetEEvRT_PKc17TransferMetaFlags
zHa:__ZN4crnd12symbol_codec11decode_bitsEj
eme:_cf2_doFlex
DMf:_Array_Sort_TisRaycastResult_t21186376_TisRaycastResult_t21186376_m38820193_gshared
ZMj:_Animator_ResetTriggerString_m1445965342
$mb:__ZN10Matrix3x4f8TransferI24GenerateTypeTreeTransferEEvRT_
K_f:_StreamReader__ctor_m3454466728
KL:__ZN4FMOD6System12createReverbEPPNS_6ReverbE
zqk:_Vector2_get_Item_m2792130561
Yw:__ZN7mecanim19ValueArrayBlendNodeILb1EEEvRKNS_10ValueArrayERKNS_14ValueArrayMaskERS1_RS4_RNS_16ValueArrayWeightEf
asa:__Z16MarkDependenciesR27GarbageCollectorThreadStatej
Q9g:_X509ChainElementEnumerator_Reset_m3832280427
FJj:_AnimatorControllerPlayable_SetBoolString_m4011560969
u6f:_MulticastDelegate_RemoveImpl_m2024746777
BXe:_CanvasUpdateRegistry_ParentCount_m2367607495
o6f:_MulticastDelegate_Equals_m3064081489
Bhg:_Activator_CreateInstance_m1465989661
d0:__ZNK9Transform11GetPositionEv
bui:_PlayableHandle_SetPlayStateInternal_m3829195293
kXa:__ZN23SharedMeshRenderingData18UnloadVertexStreamEi
axk:_Vector4_set_Item_m3077071044
cMc:__ZN5physx3Cct13HandleManager3AddEPv
k6b:__ZN31CanvasBatchIntermediateRenderer11AddSubBatchERK16DrawBuffersRangePK19ShaderPropertySheet
kEh:__Z99RuntimeInvoker_Void_t1841601450_RuntimeObject_Int32_t2071877448_Int32_t2071877448_Int32_t2071877448PFvvEPK10MethodInfoPvPS4_
M4b:__ZN19RenderEventsContextC2Ei
kU:__Z6simd4fRKf
JIf:_Array_InternalArray__ICollection_CopyTo_TisColor32_t874517518_m379086718_gshared
RDj:_Slider_ClampValue_m2851810895
sl:_emscripten_glEnable
dki:_GUISkin_set_font_m4009958323
XAk:_UnityEvent_1_FindMethod_Impl_m3813546_gshared
hib:__ZN10TagManager23VirtualRedirectTransferER14SafeBinaryRead
$Td:__ZNK5physx2Sc15ClothFabricCore9getNbSetsEv
Rge:_UNITY_FT_Init_Class_ft_grays_raster
_2a:__Z15InitLightMeshesv
PMi:__ZL97WaitHandle_t677569169_CustomAttributesCacheGenerator_WaitHandle_t677569169____Handle_PropertyInfoP21CustomAttributesCache
fsd:__ZNK5physx7NpScene26getNbContactDataBlocksUsedEv
Cig:_KeyValuePair_2_ToString_m1391611625_AdjustorThunk
ro:FUNCTION_TABLE_iifiii
OHc:__ZN5physx2Gu29computeCapsule_HeightFieldMTDERKNS_21PxHeightFieldGeometryERKNS_11PxTransformERNS0_8CapsuleVEffbjRNS_10PxSweepHitE
sVd:__ZN5physx2Gu11HeightField15exportExtraDataERNS_22PxSerializationContextE
RVa:__ZN22RenderingCommandBuffer36AcquireAndRegisterSharedMaterialDataEP8Material
LMb:__Z18Transfer_BlittableI19StreamedBinaryWriteILb0EELb1E8Vector2fEvRK29SerializationCommandArgumentsR31RuntimeSerializationCommandInfo
Mle:_cf2_arrstack_init
zGi:__ZL65ClassInterfaceAttribute_t910653559_CustomAttributesCacheGeneratorP21CustomAttributesCache
b0k:__ZN15dense_hashtableINSt3__24pairIK10KeyWrapperINS1_IPK14Il2CppAssemblyP11Il2CppClassEEEjEES9_17ReflectionMapHashIS8_EN14dense_hash_mapIS9_jSD_NS9_14EqualsComparerINS0_8equal_toIS8_EEEENS0_9allocatorISB_EEE9SelectKeyESI_SK_E15insert_noresizeERKSB_
I_:__Z15CleanLogHandler7LogTypePKcz
QWb:__ZN9ShaderLab19SerializedSubShader8TransferI19StreamedBinaryWriteILb0EEEEvRT_
k8c:__ZN5physx10NpMaterialC2ERKNS_2Sc12MaterialCoreE
LLd:__ZN5physx9PxTaskMgr10resolveRowEjb
Vph:_UTF32Encoding_GetBytes_m2290150495
tDb:__ZN6Camera17RemoveImageFilterERK11ImageFilter
fJa:__ZNSt3__218__insertion_sort_3IR25ValueParameterArraySorterPN20GpuProgramParameters14ValueParameterEEEvT0_S6_T_
thf:_CaseInsensitiveHashCodeProvider_AreEqual_m2456617355
Pwj:_LayoutUtility_GetLayoutProperty_m4052007472
uzk:_InvokableCall_1_Invoke_m3239892614_gshared
TWa:__ZNSt3__214__split_bufferI20ComputeShaderVariantRNS_9allocatorIS1_EEED2Ev
ece:__ZNSt3__26vectorIN4core12basic_stringIcNS1_20StringStorageDefaultIcEEEE13stl_allocatorIS5_L18MemLabelIdentifier34ELi16EEE7reserveEj
qYg:_Context_set_WriteSequenceNumber_m3356252710
Gte:__ZN2UI26InitializeDeviceForOverlayEi
vTd:__ZNK5physx13NpClothFabric13getRestvaluesEPfj
y0:__Z27LogRepeatingStringWithFlagsRKN4core12basic_stringIcNS_20StringStorageDefaultIcEEEE15LogMessageFlagsi
dFc:__ZN5physx2Gu16_gjkLocalRayCastINS0_9TriangleVENS0_11ConvexHullVEEEbRT_RT0_RKNS_6shdfnd3aos6FloatVERKNS9_5Vec3VESF_RSA_RSD_SH_f
Clg:_Enumerator_MoveNext_m3483405135_gshared
yu:__ZN17AnimationPlayable28ComputeNeedsBindingRebuildedEv
wTc:__ZN5physx6shdfnd8PoolBaseINS_2Cm5BlockIPvLj32EEENS0_19ReflectionAllocatorIS5_EEE17releaseEmptySlabsEv
YEd:__ZN5physx23PxsBroadPhaseContextSap21batchUpdateFewUpdatesEjRPNS_17PxcBroadPhasePairERjS4_
tIc:__ZN5physx3Cct17getSceneTimestampEPKNS0_30InternalCBData_FindTouchedGeomE
fBb:__ZN15ResourceManagerD0Ev
y7g:_X509ExtensionCollection__ctor_m1324282194
lsi:_Physics_Raycast_m2874007225
Xye:__ZN18UnityConnectClient33OnPlayerSessionStateChangedStaticEPS_jyy
xCi:__ZL74CaseInsensitiveHashCodeProvider_t2307530285_CustomAttributesCacheGeneratorP21CustomAttributesCache
gX:__ZNK11UnityEngine15CloudWebService23WebRequestUploadHandler11GetProgressEv
s4j:_InternalEnumerator_1_get_Current_m1943362081_gshared
SEa:__ZN7ApiGLES4LoadE16GfxDeviceLevelGL
Vrb:__ZN18StreamedBinaryReadILb0EE21TransferSTLStyleArrayI13dynamic_arrayI31EnlightenSystemAtlasInformationLj8EEEEvRT_17TransferMetaFlags
t7c:__ZN5physx9NpPhysics15createAggregateEjb
sHa:__ZN4crnd12crn_unpacker22decode_color_endpointsEv
qfl:__ZN15dense_hashtableI10KeyWrapperIP18Il2CppGenericClassES3_N6il2cpp8metadata22Il2CppGenericClassHashEN14dense_hash_setIS3_S6_NS3_14EqualsComparerINS5_25Il2CppGenericClassCompareEEENSt3__29allocatorIS3_EEE8IdentityESA_SD_E15insert_noresizeERKS3_
GKg:_ReadOnlyCollection_1_System_Collections_IList_Clear_m3006875897_gshared
i3b:__ZZL31RegisterOtherRendererPropertiesR22GenericPropertyBindingEN30Wrapper_RendererReceiveShadows13GetFloatValueEPv
j2d:__ZN9Rigidbody5ResetEv
Ulg:_Enumerator_System_Collections_IEnumerator_get_Current_m3866069145_gshared
usi:_Physics_Raycast_m2994111303
Oga:__ZN8Material11SetPassFastEPN9ShaderLab4PassER17ShaderPassContextP6Shaderib
Vye:__ZN11UnityEngine7Connect20BasePersistentValues10SaveValuesER9JSONWrite
fwi:_Rect_get_max_m96665935_AdjustorThunk
CSe:_ExecuteEvents_get_pointerDownHandler_m1172742772
CLd:__ZN5physx9PxTaskMgr12addReferenceEj
l9g:_X509CertificateEnumerator_System_Collections_IEnumerator_MoveNext_m3708362145
cZa:__Z12SetupLODFadeR9GfxDeviceR17ShaderPassContextf
Eob:__ZNK14PlayableOutput7GetTypeEv
uFh:__Z203RuntimeInvoker_Boolean_t3825574718_RuntimeObject_Int32U26_t455636984_Int32_t2071877448_Int32_t2071877448_RuntimeObject_SByte_t454417549_Int32_t2071877448_ContractionU26_t2019974048_ContextU26_t3131521781PFvvEPK10MethodInfoPvPS4_
qok:_X501_ToString_m3328169518
N2a:__ZL24CollectForwardObjectsJobP27CollectForwardObjectsHeader
rij:_Enumerator_System_Collections_IDictionaryEnumerator_get_Entry_m345330700_gshared
B6a:__ZNK25CameraStackRenderingState24ResolveTempToEyeTexturesEv
E4a:__Z13IsNodeVisibleRK9SceneNodeRK4AABBRK22SceneCullingParameters
Cve:__Z57RectTransformUtility_CUSTOM_INTERNAL_CALL_PixelAdjustRectP12Il2CppObjectS0_R5RectTIfE
Khh:_DelayedFixupRecord_FixupImpl_m4249966635
XMl:_emscripten_glStencilMask__wrapper
MRk:__ZN15dense_hashtableI10KeyWrapperIPK19Il2CppGenericMethodES4_N6il2cpp8metadata23Il2CppGenericMethodHashEN14dense_hash_setIS4_S7_NS4_14EqualsComparerINS6_26Il2CppGenericMethodCompareEEENSt3__29allocatorIS4_EEE8IdentityESB_SE_EC2ERKSH_j
kTk:__ZN15dense_hashtableINSt3__24pairIK10KeyWrapperIN6il2cpp5utils13dynamic_arrayIPK10Il2CppTypeLj4EEEEPFvvEEESA_NS3_8metadata19Il2CppSignatureHashEN14dense_hash_mapISA_SD_SG_NSA_14EqualsComparerINSF_22Il2CppSignatureCompareEEENS0_9allocatorISE_EEE9SelectKeyESK_SM_EC2EjRKSG_RKSK_RKSO_
aag:_BigInteger_ToString_m3837784224
sVa:__ZN15RenderNodeQueue7CleanupEv
uNc:__ZN16NovodexAllocator8allocateEjPKcS1_i
l2a:__Z17PrepareShadowMapsRK11CullResultsRK11ActiveLightRK10MinMaxAABB
rrh:_NativeEventCalls_CreateEvent_internal_m1605829321
u7i:__ZL73RuntimePlatform_t1869584967_CustomAttributesCacheGenerator_MetroPlayerX64P21CustomAttributesCache
$8j:_InternalEnumerator_1_System_Collections_IEnumerator_get_Current_m3239681450_AdjustorThunk
K2a:__ZN9ShaderLab10GrabPassesD2Ev
gri:_MonoBehaviour_set_useGUILayout_m2666356651
Rvb:__ZN14Texture2DArray13UploadTextureEv
dje:_tt_cmap14_done
Tsa:__ZN18AwakeFromLoadQueue25RegisterObjectInstanceIDsEv
Xbf:_Buffer_BlockCopy_m1586717258
zJi:__ZL93X509Certificate_t283079845_CustomAttributesCacheGenerator_X509Certificate_GetName_m2354987368P21CustomAttributesCache
R9c:__ZNK5physx2Gu10ConvexMesh14debugVisualizeERNS_2Cm12RenderOutputERKNS2_8Matrix34ERKNS_9PxBounds3Eyfj
jx:__ZNK27AnimationLayerMixerPlayable11DerivesFromE17ScriptingClassPtr
_ce:__ZN20TextRenderingPrivate19NativeTextGenerator15InsertCharacterEiPj
Ssd:__ZN5physx2Sc5Scene22removeBroadPhaseRegionEj
RR:__ZN13ProduceHelperI13AudioListenerLb0EE7ProduceE18MemLabelIdentifier18ObjectCreationMode
uMc:__ZN5physx2Cm12RenderBuffer5clearEv
_9k:__ZNSt3__26vectorIN6il2cpp2vm22EmbeddedResourceRecordENS_9allocatorIS3_EEE21__push_back_slow_pathIS3_EEvOT_
_yf:_CompareInfo_GetSortKey_m3691382873
Eed:__ZNK5physx2Sc9ClothCore21getStiffnessFrequencyEv
_sf:_DBNull_ToString_m3228904745
D5g:_WebHeaderCollection_AddWithoutValidate_m1479880592
hBd:__ZN5physx13PxsCCDContext14postCCDAdvanceEPNS_10PxBaseTaskE
fUg:_RC4_get_IV_m506011366
zpk:_X509Crl__ctor_m2469408229
Eij:_Enumerator_get_CurrentValue_m3562053380_AdjustorThunk
tah:_X509SubjectKeyIdentifierExtension_CopyFrom_m136762226
sIj:_AnimationOffsetPlayable_INTERNAL_CALL_SetPositionInternal_m3711322547
Rjg:_Enumerator_System_Collections_IEnumerator_Reset_m610822832_AdjustorThunk
fcl:__ZN6il2cpp6icalls8mscorlib6System2IO6MonoIO20GetFileSystemEntriesEP12Il2CppStringS6_iiPi
Tic:__Z41MonoBehaviour_Set_Custom_PropUseGUILayoutP12Il2CppObjecth
Ude:_UNITY_FT_Open_Face
wIl:_glGenRenderbuffers__wrapper
QQj:_Bounds_ToString_m1966597703
Xag:_BigInteger_op_Division_m1581119694
VSb:__ZN16ScriptingManagerD0Ev
Xih:_CallbackHandler_Invoke_m1498072969
Qmh:_DSACryptoServiceProvider__ctor_m701823690
xHd:__ZNK5physx10BPWorkTask7getNameEv
vji:_Mathf_Clamp_m2354025655
K5h:_CustomAttributeData_GetCustomAttributes_m2421330738
F3c:__ZN5physx2Sc8ShapeSim16onResetFilteringEv
eel:__ZN30dense_hashtable_const_iteratorINSt3__24pairIK10KeyWrapperINS1_IPKcS4_EEEiEES6_24NamespaceAndNamePairHashN14dense_hash_mapIS6_iS9_NS6_14EqualsComparerI26NamespaceAndNamePairEqualsEENS0_9allocatorIS8_EEE9SelectKeyESD_SF_EppEv
Xuh:_Type_get_IsEnum_m313908919
tfc:__Z44Register_UnityEngine_Component_get_transformv
aDg:_Collection_1_System_Collections_ICollection_CopyTo_m1335644572_gshared
CC:__ZN12_GLOBAL__N_120ProcessPlayableGraphERN8Animator11AnimatorJobER35AnimationPlayableEvaluationConstantR32AnimationPlayableEvaluationInputR33AnimationPlayableEvaluationOutputPFvS4_R17AnimationPlayableEPFvS4_S6_S8_EPFvS8_S4_S6_S8_fESE_MS9_FvPS3_PS5_PS7_E
gtg:_List_1_CheckMatch_m2830747427_gshared
gPa:__ZN17ArchiveFileSystem12MountArchiveEPKcS1_
Ftc:__Z18Transfer_BlittableI9JSONWriteLb1E8Vector4fEvRK29SerializationCommandArgumentsR31RuntimeSerializationCommandInfo
MHj:_AnimationLayerMixerPlayable_SetLayerMaskFromAvatarMask_m2582039992
lo:FUNCTION_TABLE_viififiii
Xre:__ZN2UI13CanvasManagerD0Ev
mjj:_Enumerator_System_Collections_IEnumerator_Reset_m70453843_gshared
zsb:__ZThn32_NK8Renderer14GetSubsetIndexEi
$Hh:__Z58RuntimeInvoker_Byte_t3683104436_IntPtr_t_Int32_t2071877448PFvvEPK10MethodInfoPvPS4_
PNf:_Dictionary_2_Do_CopyTo_TisKeyValuePair_2_t1174980068_TisRuntimeObject_m3279061992_gshared
swk:_Vector3_get_Item_m3616014016
U1b:__ZN13ProduceHelperI15ResourceManagerLb0EE7ProduceE18MemLabelIdentifier18ObjectCreationMode
uCa:__ZN9GfxDevice15ImmediateVertexEfff
t$b:__Z13RegisterClassI8MaterialEvv
erb:__ZNK16LightmapSettings22GetTypeVirtualInternalEv
eyf:_FieldAccessException__ctor_m3893881490
bAa:__ZN13GfxDeviceGLES15SetStencilStateEPK18DeviceStencilStatei
zPh:__Z107RuntimeInvoker_Void_t1841601450_Single_t2076509932_Single_t2076509932_Single_t2076509932_Single_t2076509932PFvvEPK10MethodInfoPvPS4_
_xl:_cycle
Mtk:_TextGenerator_Populate_m4139823822
le:_emscripten_glUniform1iv
mFj:_Text_get_preferredHeight_m452532789
GMe:_String_System_IConvertible_ToDouble_m3860911722
Cdb:__ZN16MemoryFileSystemD2Ev
rdk:_InternalEnumerator_1_get_Current_m3732458101_AdjustorThunk
zSg:_ARC4Managed__ctor_m2922048522
jde:__Z17dynamic_pptr_castIP9Texture2D7TextureET_RK4PPtrIT0_E
XLg:_ReadOnlyCollection_1_System_Collections_IList_set_Item_m1272038804_gshared
t4j:_InternalEnumerator_1_System_Collections_IEnumerator_get_Current_m1931522460_AdjustorThunk
jJe:_SecurityPermission_IsEmpty_m1869313067
e9g:_X509CertificateCollection__ctor_m3709509050
Zec:__Z37Register_UnityEngine_Camera_get_depthv
ieg:_EncryptedPrivateKeyInfo_get_Salt_m2734354394
MQj:_Bounds_SetMinMax_m1523110422
TNg:_ReadOnlyCollection_1_System_Collections_Generic_IListU3CTU3E_set_Item_m1918537449_gshared
EBg:_Collection_1_System_Collections_ICollection_CopyTo_m3896480607_gshared
gTe:_PointerEventData_set_position_m794507622
e4d:__ZN5physx7profile8ZoneImplINS_28PxProfileNameProviderForwardEE10startEventEty
rba:__ZN15dense_hashtableINSt3__24pairIKPKcPK4RTTIEES3_N11TypeManager23ConstCharPtrHashFunctorEN14dense_hash_mapIS3_S7_SA_NS9_19ConstCharPtrEqualToE13stl_allocatorIS8_L18MemLabelIdentifier6ELi16EEE9SelectKeyESC_SF_E12resize_deltaEjj
BBd:__ZN5physx10PxsCCDPair17sweepAdvanceToToiEfb
_cb:__Z23ConvertIntegerToTypePtrItEbPvR14SafeBinaryRead
dD:__ZN7mecanim5human29HumanGetGoalOrientationOffsetENS0_4GoalE
mFb:__ZNK11MonoManager22GetTypeVirtualInternalEv
H2c:__ZN5physx6shdfnd8PoolBaseINS_2Cm5BlockIhLj384EEENS0_19ReflectionAllocatorIS4_EEE17releaseEmptySlabsEv
CRd:__ZN5physx16PxsIslandManager11freeBuffersEv
Mei:_MonoMethod_MakeGenericMethod_impl_m2063853616
qXc:__ZN5physx2Cm12DelegateTaskINS_2Sc17ParticleSystemSimEXadL_ZNS3_21prepareCollisionInputEPNS_10PxBaseTaskEEEE11runInternalEv
aLe:__Z46il2cpp_codegen_get_marshal_directive_exceptionPKc
UXb:__ZN9ShaderLab20SerializedSubProgram14AddMatrixParamEPKcii15ShaderParamTypei
Ie:_glGetActiveUniformBlockName
nw:__ZN7mecanim13CopyValueMaskILb0EEEvPKNS_14ValueArrayMaskEPS1_
CG:__ZN26AnimatorControllerPlayable23ValidateParameterStringE17GetSetValueResultRKN4core12basic_stringIcNS1_20StringStorageDefaultIcEEEE
$Uf:_Guid_AppendByte_m2890893073
uai:_MethodBuilder_Invoke_m1874904900
hdf:_Char_System_IConvertible_ToType_m3106771703_AdjustorThunk
wch:_Interval_Intersects_m3480157390_AdjustorThunk
Thc:__Z39Quaternion_CUSTOM_INTERNAL_CALL_InverseRK11QuaternionfRS_
BZj:_GCHandle_Alloc_m1063472408
CM:__ZN4FMOD7Channel20set3DConeOrientationEP11FMOD_VECTOR
bo:FUNCTION_TABLE_iiifii
Ylh:_CryptoConfig_CreateFromName_m391442950
uhl:__ZN6il2cpp2vm12GenericClass11SetupEventsEP11Il2CppClass
lpe:_tt_delta_interpolate
Yie:_tt_cmap12_get_info
gkf:_SortedList__ctor_m3698381356
oMj:_AnimatorControllerPlayable_PlayInFixedTimeInternal_m3876843019
Zcl:__ZN6il2cpp2vm15ReboxIReferenceEP14Il2CppIUnknownP11Il2CppClass
l2f:_StreamWriter_LowLevelWrite_m4205372900
cNk:__ZN6il2cpp6icalls8mscorlib6System7Decimal14decimalCompareEP19il2cpp_decimal_reprS5_
znl:__ZThn4_N6il2cpp2vm13CachedCCWBaseINS0_13ManagedObjectEE7ReleaseEv
PZc:__ZN5physx26PxcFsComputeJointLoadsSimdERKNS_9PxcFsDataEPKNS_12PxcFsInertiaEPNS_6shdfnd3aos6Mat33VEPKfjjNS_21PxcFsScratchAllocatorE
Mhf:_CollectionBase_System_Collections_IList_get_Item_m2370387510
vnd:__ZN5physx6shdfnd8SyncImpl7getSizeEv
OJl:_glCopyTexImage2D__wrapper
$qk:_ResourceRequest__ctor_m3340010930
w6e:_LayoutElement__ctor_m789941073
tRj:_Camera_FireOnPreCull_m1679634170
ORf:_NumberFormatter_CountTrailingZeros_m2398864634
roa:__Z18ClearByDrawingQuad13GfxClearFlagsRK10ColorRGBAffjR17ShaderPassContext
m0j:_DynamicPropertyCollection_FindProperty_m1233265924
qqa:__ZN6prcoreL17RemapGenericFloatI14TexFormatRHalf15TexFormatRFloatEEvPKNS_9InnerInfoE
SYa:__Z16ShouldUseShadowsb
O9:__ZN15DirectorManager21RebuildStageCallbacksEv
N1g:_TlsStream_SetLength_m1460039587
rra:__ZN19RuntimeSceneManager9LoadSceneERKN4core12basic_stringIcNS0_20StringStorageDefaultIcEEEES6_S6_RK9UnityGUIDiNS_11LoadingModeE
iIa:__ZN7ApiGLES10DrawArraysE16GfxPrimitiveTypejjj
SWj:_Event_PopEvent_m1952528237
VJj:_AnimatorControllerPlayable_SetIntegerString_m3665225671
pK:__ZN10SampleClip13LoadBaseSoundEv
NFc:__ZN5physx2Gu22gjkRelativePenetrationINS0_17ShrunkConvexHullVES2_EEjRKT_RKT0_RKNS_6shdfnd3aos15PsMatTransformVERKNSA_6FloatVERNSA_5Vec3VESI_SI_RSE_PhSK_Rh
xgl:__ZN15dense_hashtableINSt3__24pairIK10KeyWrapperIP12Il2CppObjectEN6il2cpp2gc9CachedCCWEEES5_NS7_5utils11PointerHashIS3_EEN14dense_hash_mapIS5_S9_SD_NS5_14EqualsComparerINS0_8equal_toIS4_EEEENS0_9allocatorISA_EEE9SelectKeyESI_SK_E15insert_noresizeERKSA_
kGg:_Collection_1_Contains_m643401393_gshared
ASd:__ZN5physx2Sc19ParticlePacketShapeC2ERNS0_17ParticleSystemSimEjPNS_16PxvParticleShapeE
qoa:__ZN22DeviceMVPMatricesStateC2ER9GfxDevice
pjk:_Regex_IsMatch_m1286520424
v7c:__ZN5physx9NpPhysics18createTriangleMeshERNS_13PxInputStreamE
to:FUNCTION_TABLE_iiiiifiiiif
yMe:_String__ctor_m372528291
Jn:FUNCTION_TABLE_iifii
bH:__Z64AnimationOffsetPlayable_CUSTOM_INTERNAL_CALL_SetRotationInternalR9HPlayableRK11Quaternionf
hub:__ZNSt3__26vectorI13dynamic_arrayI8Vector2fLj4EENS_9allocatorIS3_EEE6assignINS_11__wrap_iterIPS3_EEEENS_9enable_ifIXaasr21__is_forward_iteratorIT_EE5valuesr16is_constructibleIS3_NS_15iterator_traitsISC_E9referenceEEE5valueEvE4typeESC_SC_
K6k:__ZN6il2cpp2vm10Reflection12HasAttributeEP9FieldInfoP11Il2CppClass
jJj:_AnimatorControllerPlayable_GetFloat_m1229536053_AdjustorThunk
Csa:__ZNSt3__26__treeIiNS_4lessIiEE13stl_allocatorIiL18MemLabelIdentifier1ELi16EEE7destroyEPNS_11__tree_nodeIiPvEE
Oc:invoke_viiifi
j5f:_LongComparer_Compare_m3981323622
nvj:_EqualityComparer_1__cctor_m3033994022_gshared
Lxa:__ZNK11AssetBundle14GetPreloadDataEiR13dynamic_arrayIiLj4EE
qfg:_EncryptedData_get_EncryptedContent_m2732115576
Sf:_JS_Sound_SetPosition
Nik:_Assertion_set_FalseExpression_m1781616372
pah:_X509SubjectKeyIdentifierExtension_FromHexChars_m2515150420
qha:__ZN19RenderBufferManager13GetTempBufferEii17DepthBufferFormat19RenderTextureFormatj22RenderTextureReadWrite14VRTextureUsagei23RenderTextureMemoryless
AUk:__ZL13GetSharedInstPK17Il2CppGenericInst
jBi:__ZL51IReflect_t3412036974_CustomAttributesCacheGeneratorP21CustomAttributesCache
gVe:_StandaloneInputModule_SendSubmitEventToSelectedObject_m3421155293
vgi:_RenderPipelineManager_CleanupRenderPipeline_m2242901458
EQk:__ZNK15dense_hashtableINSt3__24pairIK10KeyWrapperIPKcEP11Il2CppClassEES5_N6il2cpp5utils11StringUtils12StringHasherIS4_EEN14dense_hash_mapIS5_S8_SE_NS5_14EqualsComparerINSB_13VmStringUtils21CaseSensitiveComparerEEENS0_9allocatorIS9_EEE9SelectKeyESJ_SL_E3endEv
tUj:_Component_GetComponentsInChildren_m908027537
Lwe:__ZN22BaseUnityConnectClient17SaveSessionValuesEv
$1j:_CallContextRemotingData_Clone_m2226242476
v2:__Z63ThreadAndSerializationSafeCheckSetMonoBehaviourBeingTransferredP13MonoBehaviour
Tad:__ZNK5physx7NpCloth14getNbParticlesEv
rPc:__ZN5physx2Sc10NPhaseCore24releaseShapeInstancePairEPNS0_19ShapeInstancePairLLEjj
Q2a:__Z24SetupActiveLightsContextR21ActiveLightingContextRK12ActiveLightsRK11CullResultsP14ShadowMapCacheRK10MinMaxAABB
Hkc:__Z38Sprite_CUSTOM_INTERNAL_get_textureRectP12Il2CppObjectP5RectTIfE
Wsf:_DBNull_System_IConvertible_ToUInt32_m2681284284
w5k:__ZNK15dense_hashtableINSt3__24pairIK10KeyWrapperIPK22Il2CppGenericParameterEPK24MonoGenericParameterInfoEES6_N6il2cpp5utils11PointerHashIS4_EEN14dense_hash_mapIS6_SA_SF_NS6_14EqualsComparerINS0_8equal_toIS5_EEEENS0_9allocatorISB_EEE9SelectKeyESK_SM_E3endEv
g7b:__ZN9TextAsset7SetTextERKN4core12basic_stringIcNS0_20StringStorageDefaultIcEEEE
yjb:__ZN6Camera8TransferI24GenerateTypeTreeTransferEEvRT_
ewj:_EqualityComparer_1__cctor_m416314417_gshared
Sa:invoke_iiiiiiif
La:invoke_iiiiiiii
jqi:_Mesh_GetUVChannel_m364477864
I8g:_X509ChainElementCollection_Contains_m3599995067
l6a:__ZN8Renderer17PendingAddToSceneEv
o3c:__ZN5physx7NpActor18releaseConstraintsERNS_12PxRigidActorE
AMc:__ZN5physx6shdfnd5ArrayINS_11PxDebugLineENS0_19ReflectionAllocatorIS2_EEE8recreateEj
FKj:_AnimatorControllerPlayable_GetLayerName_m1429074517_AdjustorThunk
bMl:b124
bNl:b127
aNl:b126
zNl:b129
Vjc:__Z52Register_UnityEngine_RectTransform_INTERNAL_get_rectv
A1e:_GridLayoutGroup_set_spacing_m118889422
WGi:__ZL70TypeLibImportClassAttribute_t2390314680_CustomAttributesCacheGeneratorP21CustomAttributesCache
YAb:__ZN18StreamedBinaryReadILb0EE21TransferSTLStyleArrayI13dynamic_arrayI16SplashScreenLogoLj4EEEEvRT_17TransferMetaFlags
gld:__ZNK5physx14NpRigidDynamic25getContactReportThresholdEv
ZLe:_Single_CompareTo_m2081476257
QBf:_Array_InternalArray__ICollection_Remove_TisX509ChainStatus_t4278378721_m4127982424_gshared
hfc:__Z47Register_UnityEngine_Camera_get_allCamerasCountv
Mtf:_Decimal_GetBits_m3520401316
Owe:__ZN22BaseUnityConnectClient20StartEventDispatcherEv
R8b:__ZNSt3__26vectorIj13stl_allocatorIjL18MemLabelIdentifier1ELi16EEE6assignIPKtEENS_9enable_ifIXaasr21__is_forward_iteratorIT_EE5valuesr16is_constructibleIjNS_15iterator_traitsIS9_E9referenceEEE5valueEvE4typeES9_S9_
UB:__ZN7mecanim9animation16EvaluateAvatarIKEPKNS0_14AvatarConstantEPKNS0_11AvatarInputEPNS0_12AvatarOutputEPNS0_12AvatarMemoryEPNS0_15AvatarWorkspaceEb
LIa:__ZL25ProgramUniformMatrix4x3fvPK7ApiGLESjiihPKv
cOd:__Z22updateIslandsToProcessRKN5physx2Cm10BitMapBaseINS_6shdfnd9AllocatorEEEPKjRKNS_11NodeManagerERS4_
Gti:_PlayableGraph_INTERNAL_CALL_CreateScriptOutputInternal_m348659249
yUa:__ZN12InputManager13InputEndFrameEv
Njf:_SyncHashtable__ctor_m2029869827
I8k:__ZN6il2cpp2vm6Thread5SetupEP12Il2CppThread
E_d:__ZN8Collider30GetRelativePositionAndRotationERK9TransformR10Matrix4x4f
HBd:__ZN5physx35PxcSweepEstimateAnyShapeHeightfieldERKNS_11PxsCCDShapeES2_PKNS_12PxsRigidBodyES5_RKNS_11PxTransformES8_f
gPg:_ReadOnlyCollection_1_System_Collections_IList_Remove_m2200089035_gshared
VMc:__ZN5physx3Cct13BoxControllerC2ERKNS_16PxControllerDescERNS_9PxPhysicsEPNS_7PxSceneE
zBg:_Collection_1_CheckWritable_m2756357359_gshared
dzl:___munmap
R3e:_InputField_get_characterLimit_m2386380888
pcj:__ZL68ColorBlock_t2652774230_CustomAttributesCacheGenerator_m_PressedColorP21CustomAttributesCache
Lof:_Convert_ToInt64_m1722087499
Jg:_localtime_r
eWa:__ZN22RenderingCommandBuffer13GetAndCheckRTE24BuiltinRenderTextureTypeRKN9ShaderLab16FastPropertyNameEPKcPP13RenderTexture
Pti:_PlayableHandle_GetInputCount_m3249715311
gQ:__ZN4FMOD5Sound11getDefaultsEPfS1_S1_Pi
IGi:__ZL65InterfaceTypeAttribute_t4113096249_CustomAttributesCacheGeneratorP21CustomAttributesCache
Lg:_strftime
Aha:__ZN7Texture33SetStoredColorSpaceNoDirtyNoApplyE17TextureColorSpace
K5:__ZN12FileAccessorD2Ev
uwb:__ZN14VertexDataInfoC2Ev
$xf:_Exception_GetObjectData_m2653827630
zwk:_Vector3_Equals_m2692262876_AdjustorThunk
K7j:_InternalEnumerator_1_get_Current_m2415979394_gshared
uPb:__ZL17Transfer_GUIStyleI18StreamedBinaryReadILb1EELb1EEvRK29SerializationCommandArgumentsR31RuntimeSerializationCommandInfo
bBj:_ScrollRect_SetDirtyCaching_m1491302821
Tti:_PlayableHandle_SetInputCount_m2001045454
tXk:__ZN6il2cpp6icalls8mscorlib6SystemL9IsPrivateEPK12PropertyInfo
NBd:__ZNK5physx18PxcConvexTriangles16getPolygonNormalEj
kLh:__Z72RuntimeInvoker_DateTime_t693205669_DateTime_t693205669_Int32_t2071877448PFvvEPK10MethodInfoPvPS4_
M5h:_CustomAttributeData_GetCustomAttributes_m3258419955
t0:__ZN9shadertag10InitializeEv
eZa:__ZN13BatchRenderer20RenderSingleWithPassER17ShaderPassContextPK18SharedMaterialDataP6ShaderPN9ShaderLab4PassEiPKNS7_10GrabPassesEjib15BatchBreakCause
v5d:__ZN5physx24NpPtrTableStorageManager8canReuseEjj
Htb:__ZN15QualitySettings14QualitySetting8TransferI24GenerateTypeTreeTransferEEvRT_
vIf:_Array_InternalArray__ICollection_CopyTo_TisParameterModifier_t1820634920_m4127516211_gshared
gPe:_DecoderReplacementFallback__ctor_m2344783488
P3h:_OutOfMemoryException__ctor_m239206850
Ypd:__ZN5physx2Sc27ConstraintProjectionManager33processConstraintForGroupBuildingEPNS0_13ConstraintSimERNS0_20ScratchAllocatorListIS3_Lj64EEE
k0e:_GraphicRegistry_UnregisterGraphicForCanvas_m820096873
uqe:__Z28Font_Get_Custom_PropMaterialP12Il2CppObject
jrl:__ZN6il2cpp6icalls8mscorlib6System9Threading16NativeEventCalls19ResetEvent_internalE12Il2CppIntPtr
VMh:__Z88RuntimeInvoker_RuntimeObject_RuntimeObject_RuntimeObject_RuntimeObject_Int32_t2071877448PFvvEPK10MethodInfoPvPS4_
zDg:_Collection_1_Remove_m4136193368_gshared
OVd:__ZN5physx20InternalTriangleMesh17allocateTrianglesEjb
WRe:_EventTrigger_OnPointerUp_m2791622548
kDj:_Shadow_set_useGraphicAlpha_m141905402
b8b:__ZN22BlockMemoryCacheWriter14LockCacheBlockEjPPhS1_
bod:__ZN5physx2Cm29ConstraintImmediateVisualizer19visualizeDoubleConeERKNS_11PxTransformEfb
axc:__Z22TransferField_NonArrayI8JSONRead27Converter_SimpleNativeClassI8GUIStyleEEvRK23StaticTransferFieldInfoR31RuntimeSerializationCommandInfoRT0_
nAc:__ZN5physx6shdfnd5ArrayINS_13PxExtendedBoxENS0_19ReflectionAllocatorIS2_EEE8recreateEj
pHd:__ZN5physx20ProcessBPResultsTask11runInternalEv
BTc:__ZN5physx6shdfnd5ArrayIPvNS0_19ReflectionAllocatorINS_2Cm5BlockIS2_Lj16EEEEEE4copyINS0_15InlineAllocatorILj256ES7_EEEEvRKNS1_IS2_T_EE
ph:_llvm_eh_typeid_for
T5b:__Z13RegisterClassI10GameObjectEvv
TSk:__ZNK15dense_hashtableINSt3__24pairIK10KeyWrapperIN6il2cpp5utils13dynamic_arrayIPK10Il2CppTypeLj4EEEEPFvvEEESA_NS3_8metadata19Il2CppSignatureHashEN14dense_hash_mapISA_SD_SG_NSA_14EqualsComparerINSF_22Il2CppSignatureCompareEEENS0_9allocatorISE_EEE9SelectKeyESK_SM_E5beginEv
NCi:__ZL53HashValues_t2390200547_CustomAttributesCacheGeneratorP21CustomAttributesCache
s7g:_X509BasicConstraintsExtension_get_PathLengthConstraint_m3004531343
kKj:_AnimatorControllerPlayable_INTERNAL_CALL_ResetTriggerString_m2112584758
Gz:__ZNK23AnimationPlayableOutput7GetTypeEv
Eqd:__ZN5physx7NpScene19getActiveTransformsERjh
ewi:_Rect_get_max_m96665935
sPc:__ZN5physx2Sc10NPhaseCore39pool_deleteParticleElementRbElementPairEPNS0_35ParticleElementRbElementInteractionEjj
s4f:_MissingMemberException__ctor_m4277447068
BAd:__ZN5physx6shdfnd8internal8HashBaseIjjNS0_4HashIjEENS1_11HashSetBaseIjS4_NS0_9AllocatorELb0EE6GetKeyES6_Lb0EE6createERKjRb
bgi:_StrongNameKeyPair_System_Runtime_Serialization_ISerializable_GetObjectData_m1693082120
pRb:__Z18Transfer_BlittableI18StreamedBinaryReadILb0EELb1E8Vector4fEvRK29SerializationCommandArgumentsR31RuntimeSerializationCommandInfo
pjl:__ZN6il2cpp2vm6Method8GetParamEPK10MethodInfoj
WXf:_Int64_CompareTo_m1953686218
kOf:_BaseInvokableCall_ThrowOnInvalidArg_TisSingle_t2076509932_m3470174535_gshared
acl:__ZN6il2cpp6icalls8mscorlib6System2IO6MonoIO4ReadE12Il2CppIntPtrP11Il2CppArrayiiPi
xMl:_glBindVertexArray__wrapper
kZd:__ZN5physx6shdfnd5ArrayINS_11RTreeNodeNQENS0_19ReflectionAllocatorIS2_EEE19resizeUninitializedEj
nQc:__ZNK5physx2Sc16InteractionScene18getLLIslandManagerEv
Mmh:_DSA_Create_m3450041777
jma:__ZN8Material8TransferI14SafeBinaryReadEEvRT_
kBd:__ZN5physx17PxcNpMemBlockPool34acquireExceptionalConstraintMemoryEj
upb:__ZN12CubemapArray17UploadToGfxDeviceEv
DBj:_ScrollRect_AdjustBounds_m1033723448
Dqa:__ZN6prcoreL17RemapGenericFloatI15TexFormatRGHalf17TexFormatRGBAHalfEEvPKNS_9InnerInfoE
Qkg:_Enumerator_System_Collections_IEnumerator_Reset_m2200349770_gshared
K3h:_OrdinalComparer__ctor_m2952942058
wCd:__ZN5physxL23PxcSweepConvexTrianglesERKNS_11PxsCCDShapeES2_RKNS_11PxTransformES5_S5_S5_fRNS_6PxVec3ES7_RNS_10PxcNpCacheERNS_18PxcNpThreadContextERKNS_2Cm23FastVertex2ShapeScalingERNS_2Gu9TriangleVEf
X8c:__ZNK5physx7NpShape16getPlaneGeometryERNS_15PxPlaneGeometryE
e8g:_X509Chain_CheckRevocationOnChain_m2441901351
snl:__ZN6il2cpp2vm13ManagedObject14QueryInterfaceERK10Il2CppGuidPPv
uZd:__ZN5physx27InternalTriangleMeshBuilder14fillRemapTableEv
LK:__ZN11AudioSource4StopEb
OXc:__ZN5physx6shdfnd8PoolBaseINS_13NpRigidStaticENS0_19ReflectionAllocatorIS2_EEE17releaseEmptySlabsEv
oIb:__ZN14SafeBinaryRead21TransferSTLStyleArrayI13dynamic_arrayI10Matrix4x4fLj4EEEEvRT_17TransferMetaFlags
lHg:_Collection_1_CheckWritable_m732350052_gshared
icf:_Byte_System_IConvertible_ToDecimal_m1036493607
uga:__Z25GetSplashScreenBackgroundRK5RectTIfE
qba:__ZN14dense_hash_mapIPKcPK4RTTIN11TypeManager23ConstCharPtrHashFunctorENS5_19ConstCharPtrEqualToE13stl_allocatorINSt3__24pairIKS1_S4_EEL18MemLabelIdentifier6ELi16EEEixERSB_
Tze:__ZN13RuntimeStaticI19UnityConnectServiceLb0EE16StaticInitializeEPv
dfk:_DefaultComparer_Compare_m1247109616_gshared
qgi:_ResourceManager__ctor_m498829021
SMa:__ZN18GlslGpuProgramGLESD2Ev
sab:__ZN13RenderTexture14SetVolumeDepthEi
p4d:__ZThn116_NK5physx7profile8ZoneImplINS_28PxProfileNameProviderForwardEE10hasClientsEv
FKd:__ZN5physx2Gu20pcmContactCapsuleBoxERKNS0_13GeometryUnionES3_RKNS_11PxTransformES6_RKfRNS0_5CacheERNS0_13ContactBufferE
OZh:__Z88RuntimeInvoker_Int32_t2071877448_UIVertex_t1204258818_UIVertex_t1204258818_RuntimeObjectPFvvEPK10MethodInfoPvPS4_
Yih:_SerializationCallbacks__ctor_m722356782
Gxc:__ZN10Matrix4x4f8TransferI8JSONReadEEvRT_
wvf:_StackTrace__ctor_m772333217
j2:__ZN17PersistentManager18ReadObjectThreadedEi
fEa:__ZN25TransformFeedbackSkinning31CleanupTransformFeedbackShadersEv
Nnl:__ZN6il2cpp6icalls8mscorlib6System7Runtime16CompilerServices14RuntimeHelpers15InitializeArrayEP11Il2CppArray12Il2CppIntPtr
hYa:__Z22scripting_object_unbox18ScriptingObjectPtr
ade:__ZNK20TextRenderingPrivate8FontImpl19GetCharacterAdvanceEjijfPj
ytl:__ZN6il2cpp6icalls8mscorlib4Mono8Security12Cryptography18KeyPairPersistence16_IsUserProtectedEP12Il2CppString
G3g:_DefaultUriParser__ctor_m4218024811
k7h:_DerivedType_GetField_m3960169619
xtf:_Decimal_System_IConvertible_ToInt16_m3159038792_AdjustorThunk
Mub:__ZN10VertexData8TransferI18StreamedBinaryReadILb0EEEEvRT_
CXc:__ZN5physx2Sc5Scene9addStaticERNS0_10StaticCoreEPKPvjj
Vfg:_PKCS12_GetExistingParameters_m2413397265
wMk:_Nullable_1_get_Value_m1743067844_gshared
Eab:__ZN14PreloadManager16UpdatePreloadingEv
Emb:__ZN14SafeBinaryRead21TransferSTLStyleArrayI19StaticArrayTransferIiLi4EEEEvRT_17TransferMetaFlags
kxd:__ZN5physx2Sc5Scene9addShapesEPKPvjjRNS0_8RigidSimEPNS_12PxsRigidBodyERPNS0_8ShapeSimEPNS_9PxBounds3E
Pdl:__ZNK15dense_hashtableINSt3__24pairIK10KeyWrapperINS1_IPKcS4_EEEiEES6_24NamespaceAndNamePairHashN14dense_hash_mapIS6_iS9_NS6_14EqualsComparerI26NamespaceAndNamePairEqualsEENS0_9allocatorIS8_EEE9SelectKeyESD_SF_E10test_emptyEj
Pkl:__ZN14dense_hash_mapI10KeyWrapperIPK19Il2CppGenericMethodEP10MethodInfoN6il2cpp8metadata23Il2CppGenericMethodHashENS4_14EqualsComparerINS8_26Il2CppGenericMethodCompareEEENSt3__29allocatorINSD_4pairIKS4_S6_EEEEEC2EjRKS9_RKSC_
vJd:__ZN5physx23PxcPCMContactConvexMeshERKNS_2Gu13GeometryUnionES3_RKNS_11PxTransformES6_RKfRNS_10PxcNpCacheERNS0_13ContactBufferE
Jfb:__ZNK21UnityDefaultAllocatorI17LowLevelAllocatorE8ContainsEPKv
yi:_emscripten_get_main_loop_timing
q_f:_DirectoryInfo__ctor_m3750996792
zWe:_BaseMeshEffect_ModifyMesh_m2134816219
Gtb:__ZN24GenerateTypeTreeTransfer21TransferSTLStyleArrayINSt3__26vectorIN15QualitySettings14QualitySettingENS1_9allocatorIS4_EEEEEEvRT_17TransferMetaFlags
BPf:_Array_InternalArray__get_Item_TisAnimatorClipInfo_t3905751349_m2163447872_gshared
qzb:__ZNSt3__26vectorI9InputAxisNS_9allocatorIS1_EEE6resizeEj
lZa:__ZN13BatchRendererC2ER15RenderLoopStatsRK15RenderNodeQueuebbb
qJe:_SecurityElement_IsValidAttributeValue_m483287146
_Yb:__ZNK2UI13RectTransform22GetTypeVirtualInternalEv
pq:getTempRet0
FJd:__ZN5physx2Gu33MultiplePersistentContactManifold24addManifoldContactPointsEPNS0_21MeshPersistentContactEjPPNS0_15PCMContactPatchEjRKNS_6shdfnd3aos6FloatVESB_h
$2e:_Image_AddQuad_m1603575622
aUg:_PrivateKeyInfo_RemoveLeadingZero_m3396807048
D9k:__ZN6il2cpp6icalls8mscorlib6System9ThreadingL21lookup_cached_cultureEP12Il2CppThreadi
N3a:__ZN18DeferredRenderLoopD2Ev
Via:__ZNK16TypeTreeIterator4NameEv
i5:__ZN15FileSystemEntry3SetEPKc
yQd:__ZN5physx6shdfnd5ArrayIPNS_13PxcNpMemBlockENS0_19ReflectionAllocatorIS3_EEE6resizeEjRKS3_
IDe:_MACTripleDES__ctor_m884945242
lM:__ZN20SoundChannelInstance15ParameterBuffer5ApplyEPN4FMOD7ChannelE
Zce:__ZN20TextRenderingPrivate19NativeTextGenerator9InsertTabEv
Lii:_Rect_set_y_m4294916608
X3d:__ZN5physx7profile8ZoneImplINS_28PxProfileNameProviderForwardEE21setProfileZoneManagerEPNS_20PxProfileZoneManagerE
$we:__ZN11UnityEngine15PlatformWrapper24GetRuntimePlatformStringEv
hj:_glIsEnabled
vKc:__ZN5physx3Cct17CapsuleController15setFootPositionERKNS_14PxExtendedVec3E
THc:__ZN5physx2Gu33PCMCapsuleVsMeshContactGeneration13generateEEMTDERKNS_6shdfnd3aos5Vec3VES6_RKNS3_6FloatVES6_jS6_S6_PNS0_21MeshPersistentContactERj
_Db:__Z25scripting_class_get_image17ScriptingClassPtr
lj:_emscripten_glDrawElementsInstanced
xy:__ZN26AnimatorControllerPlayable27SetupStateMachineBehavioursEv
CSg:_ARC4Managed_Dispose_m4102232694
WSg:_HMAC_Initialize_m3052649104
Hwa:__ZN18JobBatchDispatcherD2Ev
VYb:__ZN9Transform17MainThreadCleanupEv
Xpl:_GC_clear_hdr_marks
eHl:_glScissor__wrapper
tNl:_emscripten_glCreateShader__wrapper
ole:_cff_fd_select_get
nGi:__ZL73CompilationRelaxationsAttribute_t238494011_CustomAttributesCacheGeneratorP21CustomAttributesCache
tHe:_SHA512Managed_processBlock_m3220567420
V2g:_NameObjectCollectionBase_get_Keys_m446053925
vj:_emscripten_glGetShaderiv
nN:__ZN4FMOD6System10getVersionEPj
tRd:__ZN5physx2Sc7BodySim10sleepCheckEffb
fGf:_Array_InternalArray__IndexOf_TisSByte_t454417549_m1427585061_gshared
bre:__ZN2UI6Canvas23VirtualRedirectTransferER24GenerateTypeTreeTransfer
Tlf:_Decimal_u64_m3991988111
Wxk:_Predicate_1_BeginInvoke_m2959352225_gshared
rsj:_Dictionary_2_CopyToCheck_m2147716750_gshared
Hnk:_X509Certificate_Parse_m1764345628
Hbe:__ZN13TextRendering4Font13AwakeFromLoadE17AwakeFromLoadMode
TMl:_emscripten_glCullFace__wrapper
bBa:__ZN9GfxDevice21ReleaseSharedMeshDataEP14SharedMeshData
fAb:__ZNSt3__27__sort5IRNS_6__lessINS_4pairIPKN5Unity4TypeE7Hash128EES8_EEPS8_EEjT0_SC_SC_SC_SC_T_
lkf:_Enumerator_Reset_m466659019
cpl:_GC_unreachable_finalize_mark_proc
Hg:___syscall192
sXh:__Z70RuntimeInvoker_Single_t2076509932_Int32_t2071877448_Single_t2076509932PFvvEPK10MethodInfoPvPS4_
Dk:_emscripten_glGetProgramiv
j2j:_ConstructionCall_GetObjectData_m3974358557
Njc:__Z43RectTransform_CUSTOM_INTERNAL_get_anchorMaxP12Il2CppObjectP13Vector2fIcall
WCh:__Z50RuntimeInvoker_Void_t1841601450_Single_t2076509932PFvvEPK10MethodInfoPvPS4_
Y3c:__ZN5physx14NpShapeManagerC2Ev
Yla:__ZN8Material28UpdateHashesOnPropertyChangeEN9ShaderLab16FastPropertyNameE
zkc:__Z53Register_UnityEngine_SortingLayer_GetLayerValueFromIDv
qhf:_CaseInsensitiveComparer_Compare_m1192858479
oGb:__Z18Transfer_BlittableI14SafeBinaryReadLb1E8Vector4fEvRK29SerializationCommandArgumentsR31RuntimeSerializationCommandInfo
u7e:_LayoutRebuilder_Clear_m2390054824
kDa:__ZN13GfxDeviceGLES20SetComputeBufferDataE15ComputeBufferIDPKvjj
w5h:_Default_SelectMethod_m622251293
tt:__ZN8Animator23VirtualRedirectTransferER19StreamedBinaryWriteILb0EE
bA:__ZN11UnityEngine9Animation32CreateAnimatorGenericBindingsOptERKNS0_20AnimationSetBindingsER9TransformPKN7mecanim9animation14AvatarConstantEPKNS0_21AvatarBindingConstantEbRNS6_6memory9AllocatorER8Animator
Ddl:__ZN6il2cpp2vm5Image13ClassFromNameEPK11Il2CppImagePKcS6_
LCl:dynCall_vdddddd
bWb:__ZN24GenerateTypeTreeTransfer21TransferSTLStyleArrayINSt3__26vectorIN9ShaderLab14SerializedPassENS1_9allocatorIS4_EEEEEEvRT_17TransferMetaFlags
d1:__ZL32MarkLevelGameManagerDependenciesR27GarbageCollectorThreadState
rDa:__ZNK13GfxDeviceGLES26HasActiveRandomWriteTargetEv
HBe:__ZN20UnityWebRequestProtoI19TransportJavaScript16AtomicRefCounter14RedirectHelper14ResponseHelper15DownloadHandler13UploadHandler12HeaderHelper14AsyncOperationE5BeginEv
XHl:_glGetActiveUniformsiv__wrapper
wkc:__Z43Register_UnityEngine_Material_EnableKeywordv
Rzc:__ZNK5physx3Cct10Controller16getInternalStateERNS_17PxControllerStateE
n3:__ZN13MonoBehaviour19SetupScriptingCacheE17ScriptingClassPtrP10MonoScript
YMk:__ZL9rshift128PyS_
ws:__Z20AnimationEventToMonoRK14AnimationEventR18MonoAnimationEvent
Okj:_ShimEnumerator_get_Current_m3610131784_gshared
kwd:__ZN5physx10PxsContext15setScratchBlockEPvj
q8i:__ZL74UnityEventBase_t828812576_CustomAttributesCacheGenerator_m_PersistentCallsP21CustomAttributesCache
jaa:__ZZN15DirectorManager15InitializeClassEvEN52PreLateUpdateDirectorUpdateAnimationBeginRegistrator7ForwardEv
Ebl:__ZN6il2cpp2vm13LivenessState18ShouldProcessValueEP12Il2CppObjectP11Il2CppClass
r8h:_EnumBuilder_GetElementType_m1228393631
ROc:__ZN5physx2Cm27getDynamicGlobalPoseAlignedERKNS_11PxTransformES3_S3_RS1_
Rti:_PlayableHandle_GetInputCountInternal_m2692879798
zVb:__ZNSt3__26vectorIN9ShaderLab14SerializedPassENS_9allocatorIS2_EEE8__appendEj
bXd:__ZN5physx6shdfnd5ArrayIPvNS0_19ReflectionAllocatorIN17PxcPoolMallocData10PoolData32EEEE15growAndPushBackERKS2_
RUb:__ZNSt3__26vectorIN9ShaderLab20SerializedSubProgram13BufferBindingENS_9allocatorIS3_EEEC2INS_11__wrap_iterIPS3_EEEET_SB_RKS5_PNS_9enable_ifIXaasr21__is_forward_iteratorISB_EE5valuesr16is_constructibleIS3_NS_15iterator_traitsISB_E9referenceEEE5valueEvE4typeE
m4b:__ZZL23RegisterLightPropertiesR22GenericPropertyBindingEN20Wrapper_LightColorb213GetFloatValueEPv
AXh:__Z133RuntimeInvoker_RuntimeObject_Vector2_t2243707579_Vector2_t2243707579_Single_t2076509932_Int32_t2071877448_RuntimeObject_RuntimeObjectPFvvEPK10MethodInfoPvPS4_
Oqb:__ZN9Texture2D23VirtualRedirectTransferER18StreamedBinaryReadILb0EE
ewf:_Double_System_IConvertible_ToUInt16_m286326038_AdjustorThunk
ghh:_TypeInfo__ctor_m1475908211
wib:__ZNSt3__26__treeINS_12__value_typeIN4core12basic_stringIcNS2_20StringStorageDefaultIcEEEEjEENS_19__map_value_compareIS6_S7_NS_4lessIS6_EELb1EEE13stl_allocatorIS7_L18MemLabelIdentifier6ELi16EEE7destroyEPNS_11__tree_nodeIS7_PvEE
V3:__ZN16ScriptingManager27NativeTypeForScriptingClassE17ScriptingClassPtr
f8g:_X509Chain_WrapUp_m1072032285
bpk:_X509CertificateEnumerator_System_Collections_IEnumerator_MoveNext_m1448966539
qie:_get_sfnt_table
lCg:_Collection_1_IsSynchronized_m3261594010_gshared
Bmi:_GUIStyle_GetNumCharactersThatFitWithinWidth_m3760066083
q$b:__Z13RegisterClassI5LightEvv
iTe:_PointerEventData_set_pressPosition_m2094137883
umh:_DES_get_Key_m2584608215
$4a:__ZL22ScheduleSceneNodesJobsP25ScheduleSceneNodesJobDataj
PEd:__ZN5physx22concludeContactCoulombERKNS_23PxcSolverConstraintDescERNS_16PxcSolverContextE
kl:_emscripten_set_canvas_size
igd:__ZNK5physx15NpParticleFluid12getStiffnessEv
Kif:_Hashtable__ctor_m741952536
vgk:_Comparer_1__cctor_m2253684996_gshared
hVb:__ZNSt3__26vectorIN9ShaderLab20SerializedSubProgramENS_9allocatorIS2_EEE8__appendEj
TZ:__ZN20DynamicHeapAllocatorI17LowLevelAllocatorE8AllocateEji
NZa:__ZN20DynamicPropertySheet15SetVectorQueuedERKN9ShaderLab16FastPropertyNameERK8Vector4fN19ShaderPropertySheet8SetFlagsE
eOe:_String_Format_m1263743648
QMg:_ReadOnlyCollection_1_System_Collections_IEnumerable_GetEnumerator_m4248982967_gshared
cB:__ZN7mecanim9animation22EvaluateAvatarRetargetEPKNS0_14AvatarConstantEPKNS0_11AvatarInputEPNS0_12AvatarOutputEPNS0_12AvatarMemoryEPNS0_15AvatarWorkspaceEb
Hnb:__ZN14RenderSettings23VirtualRedirectTransferER19StreamedBinaryWriteILb0EE
Utc:__ZL26Transfer_SimpleNativeClassI9JSONWrite10RectOffsetLb0EEvRK29SerializationCommandArgumentsR31RuntimeSerializationCommandInfo
EGa:__ZN17GenericDynamicVBO10AllocateVBEjR21DynamicVBOChunkHandle
Oog:_List_1_get_Item_m1547593893_gshared
fml:__ZN4utf88internal14get_sequence_4IPKcEENS0_9utf_errorERT_S5_Rj
b_f:_Path_GetPathRoot_m1269357080
VId:__ZL27PxcTestFacesSepAxesBackfaceRKN5physx2Gu13PolygonalDataES3_RKNS_2Cm8Matrix34ES7_RKNS4_23FastVertex2ShapeScalingESA_S7_RKNS_6PxVec3ERfRSB_RjPjSG_fSD_
cfl:__ZN30dense_hashtable_const_iteratorI10KeyWrapperIP18Il2CppGenericClassES3_N6il2cpp8metadata22Il2CppGenericClassHashEN14dense_hash_setIS3_S6_NS3_14EqualsComparerINS5_25Il2CppGenericClassCompareEEENSt3__29allocatorIS3_EEE8IdentityESA_SD_EppEv
zRe:_EventSystem_SetSelectedGameObject_m2211816110
Il:_glMapBufferRange
Gqb:__ZN9Texture2D8TransferI18StreamedBinaryReadILb0EEEEvRT_
nhc:__Z31Input_CUSTOM_GetMouseButtonDowni
rjc:__Z75Register_UnityEngine_Playables_PlayableHandle_INTERNAL_CALL_IsValidInternalv
I6b:__ZN13PlayableGraph4PlayEv
vbd:__ZNK5physx7NpCloth23getExternalAccelerationEv
HXa:__ZNK9Transform16GetLocalPositionEv
Qxa:__ZN13LoadOperation19IntegrateTimeSlicedEi
c3j:_ArrayReadOnlyList_1_get_Item_m176001975_gshared
nGd:__ZN5physx16PxsBroadPhaseMBP9updatePPUEPNS_10PxBaseTaskE
Agg:_X501__cctor_m3795360380
CDa:__ZN13GfxDeviceGLES22DispatchComputeProgramE12ObjectHandleI18ComputeProgram_TagPvE15ComputeBufferIDj
Zmi:_GUIStyle_set_contentOffset_m2138084868
pCg:_Collection_1_System_Collections_ICollection_CopyTo_m4193844941_gshared
Eof:_Convert_ToInt32_m2297793940
Yva:__Z17TransformAABBSlowRK4AABBRK10Matrix4x4fRS_
Brb:__ZN15SerializeTraitsI13dynamic_arrayI7Hash128Lj8EEE19ResizeSTLStyleArrayERS2_i18MemLabelIdentifier
s6k:__ZN13Il2CppHashMapINSt3__24pairIPK9FieldInfoP11Il2CppClassEEj17ReflectionMapHashIS7_ENS0_8equal_toIS7_EENS0_9allocatorINS1_IK10KeyWrapperIS7_EjEEEEEC2EjRKS9_RKSB_
TTb:__ZN9ShaderLab21SerializedShaderState8TransferI14SafeBinaryReadEEvRT_
Kzl:_ftruncate
sGe:_RSAPKCS1SignatureFormatter_SetKey_m2365816458
lme:_cf2_stack_pushInt
rid:__ZN5physx6shdfnd8PoolBaseINS_16NpParticleSystemENS0_19ReflectionAllocatorIS2_EEE12allocateSlabEv
KLd:__ZN5physx9PxTaskMgr12dispatchTaskEjb
frh:_CompressedStack__ctor_m276924800
OSe:_ExecuteEvents_get_cancelHandler_m1964324668
ena:__ZN15SerializeTraitsINSt3__24pairIN4core12basic_stringIcNS2_20StringStorageDefaultIcEEEES6_EEE8TransferI24GenerateTypeTreeTransferEEvRS7_RT_
Epi:_Matrix4x4__ctor_m2771358574_AdjustorThunk
fIl:b81
eIl:b80
JKa:__ZN7ApiGLES19CreateSparseTextureEjj14GraphicsFormatiiiiRiS1_S1_
z4:__ZN18ResourceImageGroup7CleanupEv
tJl:b85
FRc:__ZN5physx2Gu36closestPtPointTetrahedronTesselationEPNS_6shdfnd3aos5Vec3VES4_S4_RjRS3_S6_
vJl:b87
uJl:b86
iJd:__ZN5physx25PxcPCMContactSphereConvexERKNS_2Gu13GeometryUnionES3_RKNS_11PxTransformES6_RKfRNS_10PxcNpCacheERNS0_13ContactBufferE
U3b:__ZN13ProduceHelperI4MeshLb0EE7ProduceE18MemLabelIdentifier18ObjectCreationMode
_Tg:_PrivateKeyInfo_Decode_m1053025782
Dfg:_PKCS12_Decrypt_m2457743414
tob:__ZN8Playable19SetOutputConnectionEPS_i
ZPk:__ZN15dense_hashtableINSt3__24pairIK10KeyWrapperIPK11Il2CppClassEPKcEES6_N6il2cpp5utils11PointerHashIS3_EEN14dense_hash_mapIS6_S9_SE_NS6_14EqualsComparerINS0_8equal_toIS5_EEEENS0_9allocatorISA_EEE9SelectKeyESJ_SL_EC2ERKSO_j
wm:_glDeleteShader
iM:__ZN11SoundHandle8Instance15UpdateLoadStateEv
Wxf:_Exception_GetType_m3898489832
yqa:__ZN6prcoreL17RemapGenericFloatI15TexFormatRGHalf16TexFormatRGFloatEEvPKNS_9InnerInfoE
n6c:__ZN5physx6shdfnd8PoolBaseINS_10NpMaterialENS0_19ReflectionAllocatorIS2_EEE15disposeElementsEv
qzg:_Stack_1_Peek_m1548778538_gshared
nkg:_Enumerator_System_Collections_IEnumerator_get_Current_m2408426667_AdjustorThunk
hDj:_Shadow_set_effectColor_m3110056844
Mcc:__Z27scripting_add_internal_callPKcPKv
LJf:_Array_InternalArray__Insert_TisUriScheme_t1876590943_m2728325409_gshared
c6k:__ZN13Il2CppHashMapINSt3__24pairIPK9EventInfoP11Il2CppClassEEj17ReflectionMapHashIS7_ENS0_8equal_toIS7_EENS0_9allocatorINS1_IK10KeyWrapperIS7_EjEEEEEC2EjRKS9_RKSB_
Ifl:__GLOBAL__sub_I_GarbageCollector_cpp
iBc:__ZL21ContactReductionAllInRN5physx2Gu13ContactBufferEjjRKNS_7PxMat33EPKNS_6PxVec3EPKh
opk:_X509Store_CheckStore_m1027496478
Kt:__ZN26AnimatorControllerPlayable18SetLayerAutoWeightEv
fc:invoke_vffff
kAl:__ZNSt3__212basic_stringIcNS_11char_traitsIcEENS_9allocatorIcEEEC2ERKS5_jjRKS4_
PNe:_String_Contains_m4017059963
Jek:_DefaultComparer_Compare_m1606207039_gshared
ote:__ZN2UI14CanvasRenderer12SyncMaterialENS0_8SyncFlagE
ltl:__ZN6il2cpp2vm9Parameter30GetDefaultParameterValueObjectEPK10MethodInfoPK13ParameterInfoPb
G_b:__ZN15dense_hashtableINSt3__24pairIKN4core12basic_stringIcNS2_20StringStorageDefaultIcEEEE10vector_setI4PPtrI11SpriteAtlasENS0_4lessISB_EE13stl_allocatorISB_L18MemLabelIdentifier79ELi16EEEEES6_20StringHash32FunctionIS6_EN14dense_hash_mapIS6_SH_SK_NS0_8equal_toIS6_EESE_ISI_LSF_79ELi16EEE9SelectKeyESN_SO_E12maybe_shrinkEv
AKf:_Array_InternalArray__set_Item_TisLabelData_t3712112744_m2253365137_gshared
Pqi:_MonoBehaviour_Invoke_m666563676
buf:_Decimal_decimalDiv_m900036616
s2f:_StringReader__ctor_m643998729
B4g:_IPv6Address_TryParse_m2220524278
hie:_UNITY_tt_face_done_kern
d0j:_Context_get_DefaultContext_m2211922324
xqc:__Z59GUIStyle_CUSTOM_Internal_GetNumCharactersThatFitWithinWidth13Il2Cpp_IntPtrP12Il2CppStringf
Xwb:__ZN12BoneWeights48TransferI24GenerateTypeTreeTransferEEvRT_
pUg:_RSAManaged_GetPaddedValue_m2972141669
kH:__Z62AnimationPlayableOutput_CUSTOM_INTERNAL_CALL_InternalSetTargetR15HPlayableOutputP12Il2CppObject
Hfa:__Z19scripting_gc_enablev
nBe:__ZN20UnityWebRequestProtoI19TransportJavaScript16AtomicRefCounter14RedirectHelper14ResponseHelper15DownloadHandler13UploadHandler12HeaderHelper14AsyncOperationE9DoRequestEv
qTa:__ZZ23InitPlayerLoopCallbacksvEN41InitializationPlayerUpdateTimeRegistrator7ForwardEv
Gjk:_AnchorInfo__ctor_m617409099
e5d:__ZN5physx7profile11EventBufferINS_24PxDefaultContextProviderENS_6shdfnd6MutexTINS0_26WrapperReflectionAllocatorIhEEEENS0_14ScopedLockImplIS7_EENS_24PxProfileNullEventFilterEE9stopEventEty
ive:__Z55Register_UnityEngine_CanvasRenderer_DisableRectClippingv
Ach:_Interval_CompareTo_m2909556284_AdjustorThunk
qwb:__ZN14SafeBinaryRead21TransferSTLStyleArrayI13dynamic_arrayI11ColorRGBA32Lj4EEEEvRT_17TransferMetaFlags
zOj:_AudioClip_get_length_m3881628918
rbh:_Interpreter_GetLastDefined_m2450713313
Xik:_Parser_ParseAssertionType_m3316669790
DXb:__ZN9ShaderLab7Program27CreateFromSerializedProgramERKNS_17SerializedProgramE10ShaderTypeiP16PropertyNamesSetPK6Shader
KCj:_Selectable_get_isPointerDown_m774209881
PYb:__ZNSt3__27__sort4IRNS_6__lessIN4core12basic_stringIcNS2_20StringStorageDefaultIcEEEES6_EEPS6_EEjT0_SA_SA_SA_T_
qDl:dynCall_viiiifii
G4k:__ZN6il2cpp2gc19AppendOnlyGCHashMapINSt3__24pairIPK11Il2CppImageP11Il2CppClassEEP22Il2CppReflectionModule17ReflectionMapHashIS9_ENS2_8equal_toIS9_EEEC2Ev
g2:__Z20GetPersistentManagerv
ype:_UNITY_TT_Set_Var_Design
Zca:__ZN21SystemInfoStringCache16StaticInitializeEPv
MVg:_TlsStream__ctor_m4117943603
t1k:__ZN15dense_hashtableINSt3__24pairIK10KeyWrapperIPK10Il2CppTypeEjEES6_N6il2cpp8metadata14Il2CppTypeHashEN14dense_hash_mapIS6_jSB_NS6_14EqualsComparerINSA_26Il2CppTypeEqualityComparerEEENS0_9allocatorIS8_EEE9SelectKeyESF_SH_E12maybe_shrinkEv
DKf:_Array_InternalArray__set_Item_TisParameterModifier_t1820634920_m3126548327_gshared
kQc:__ZN5physx2Sc7BodySim18internalWakeUpBaseEf
gkl:__ZN6il2cpp2gc16GarbageCollector23MakeDescriptorForObjectEPji
Rfi:_ParameterModifier_t1820634920_marshal_pinvoke
aDb:__ZNK13MonoBehaviour7GetNameEv
gsa:__ZN19ScriptingInvocation28AdjustArgumentsToMatchMethodEv
ofl:__ZN15dense_hashtableI10KeyWrapperIP18Il2CppGenericClassES3_N6il2cpp8metadata22Il2CppGenericClassHashEN14dense_hash_setIS3_S6_NS3_14EqualsComparerINS5_25Il2CppGenericClassCompareEEENSt3__29allocatorIS3_EEE8IdentityESA_SD_E6insertERKS3_
_P:__Z15_CheckFMODError11FMOD_RESULTPKciS1_
slb:__Z20RenderMultipleMeshesRK15RenderNodeQueueRK18RenderMultipleData17ShaderChannelMask
B$k:__ZN6il2cpp2vm4Type19GetGenericParameterEPK10Il2CppType
Kue:__Z51Register_UnityEngine_CanvasGroup_get_blocksRaycastsv
cdk:_InternalEnumerator_1_get_Current_m2826780083_gshared
VLl:b119
q0j:_Context_UnregisterDynamicProperty_m4064851633
Dxc:__ZN8JSONRead21TransferSTLStyleArrayI13dynamic_arrayI11ColorRGBA32Lj4EEEEvRT_18MemLabelIdentifier17TransferMetaFlags
sUd:__ZN5physx13BigConvexData5VLoadERNS_13PxInputStreamE
P2k:__ZNK15dense_hashtableINSt3__24pairIK10KeyWrapperINS1_IPK11Il2CppImageP11Il2CppClassEEEjEES9_17ReflectionMapHashIS8_EN14dense_hash_mapIS9_jSD_NS9_14EqualsComparerINS0_8equal_toIS8_EEEENS0_9allocatorISB_EEE9SelectKeyESI_SK_E3endEv
$d:_glBeginQuery
k4h:_Assembly_GetCustomAttributes_m95309865
Whi:_GUILayoutUtility_INTERNAL_CALL_Internal_GetWindowRect_m3236664463
uyd:__ZN5physx11NodeManager6resizeEj
jVa:__ZN6Camera12RenderStereoENS_10RenderFlagE8CullFlagPNS_24PerformEyeRenderFunctionE
ASg:_RC4__ctor_m1585026462
Yda:__ZN20LocalFileSystemPosix10ToAbsoluteEPKc
ilb:__ZN20TierGraphicsSettings8TransferI19StreamedBinaryWriteILb0EEEEvRT_
R9j:_InternalEnumerator_1_get_Current_m2286118957_AdjustorThunk
gGf:_Array_InternalArray__IndexOf_TisX509ChainStatus_t4278378721_m1338369069_gshared
Urd:__ZNK5physx7NpScene28getSceneQueryStaticTimestampEv
en:f0
wff:_ArrayListWrapper_set_Capacity_m2792463350
Byl:_getcwd
Q1d:__ZNSt3__26vectorI9CollisionNS_9allocatorIS1_EEE21__push_back_slow_pathIKS1_EEvRT_
wJj:_AnimatorControllerPlayable_GetBool_m3606320557
sfb:__ZN25ThreadsafeLinearAllocatorD2Ev
Vzd:__ZN5physx2Sq10AABBPruner11preallocateEj
ega:__Z21SendMessageToEveryoneRK17MessageIdentifier11MessageData
EKl:b116
g8:__ZN21BillboardBatchManager16StaticInitializeEPv
Zki:_Object_get_name_m2079638459
a$:__ZN12_GLOBAL__N_138ArchiveRedirectFileSystemStaticDestroyEPv
Nxf:_EventHandler_Invoke_m1137722757
rpb:__ZN12CubemapArray34UpdateFileTextureUploadInstructionEP26FileAssetUploadInstructionj
tpd:__ZN5physx2Sc19ShapeInstancePairLLC2ERNS0_8ShapeSimES3_RNS0_9ActorPairENS_7PxFlagsINS_10PxPairFlag4EnumEtEE
P5f:_MonoType_IsSubclassOf_m2211166238
h9k:__ZN6il2cpp6icalls8mscorlib6System5Array9GetLengthEP11Il2CppArrayi
pe:_emscripten_glUniform3iv
NDg:_Collection_1_System_Collections_ICollection_CopyTo_m2859266050_gshared
IKa:__Z23CreateSparseTextureGLES9TextureIDii14GraphicsFormati
fql:_GC_continue_reclaim
uff:_ArrayListWrapper_get_Count_m2207944952
M9g:_X509ChainElementCollection_System_Collections_IEnumerable_GetEnumerator_m2559704689
a7g:_PublicKey_get_Key_m126090744
Sde:__ZNSt3__23mapIN20TextRenderingPrivate7FontRefEP11FT_FaceRec_NS_4lessIS2_EENS_9allocatorINS_4pairIKS2_S4_EEEEEixERS9_
lPa:__ZN17ArchiveFileSystem10AddStorageEP20ArchiveStorageReader
eed:__ZN5physx2Sc9ClothCore16setStretchConfigENS_22PxClothFabricPhaseType4EnumERKNS_20PxClothStretchConfigE
_Tj:_Color_Equals_m661618137
ESj:_CanvasRenderer_SplitIndicesStreamsInternal_m817541557
_6d:_PxCreateFoundation
ssg:_List_1_RemoveAll_m4125997475_gshared
$uj:_EqualityComparer_1_System_Collections_IEqualityComparer_GetHashCode_m1203798961_gshared
lOk:__ZN6il2cpp2vm5Class15GetEnumBaseTypeEP11Il2CppClass
Csi:_Physics_Raycast_m2009151399
_pb:__ZNK9Texture2D16GetNpotTexelSizeEv
fxj:_Mask_get_rectTransform_m3304369086
juk:_TooltipAttribute__ctor_m2640804852
T7d:__ZN13dynamic_arrayItLj2EE6insertEPtPKtS3_
JGa:__ZN9GfxDevice22GetDefaultVertexBufferE26GfxDefaultVertexBufferTypej
nCg:_Collection_1__ctor_m3903788797_gshared
lMg:_ReadOnlyCollection_1_System_Collections_ICollection_CopyTo_m1129689124_gshared
Tyl:___fseeko_unlocked
YJl:_glGetActiveUniform__wrapper
Lyl:_sscanf
EMc:__ZN5physx3Cct17CapsuleControllerC2ERKNS_16PxControllerDescERNS_9PxPhysicsEPNS_7PxSceneE
Kwb:__ZN14SafeBinaryRead21TransferSTLStyleArrayINSt3__26vectorI17BlendShapeChannelNS1_9allocatorIS3_EEEEEEvRT_17TransferMetaFlags
uoa:__Z17BeginSplashScreenv
bVj:_ControllerColliderHit_get_moveDirection_m3053186297
OWb:__ZN9ShaderLab16SerializedShader8TransferI19StreamedBinaryWriteILb0EEEEvRT_
Xwh:_UInt32_Parse_m2400360707
uD:__ZN7mecanim9animation18CreateAvatarMemoryEPKNS0_14AvatarConstantERNS_6memory9AllocatorE
elf:_Stack_Pop_m3788808882
Hij:_Enumerator_VerifyCurrent_m4246196125_AdjustorThunk
csf:_DateTime_op_Equality_m1867073872
mC:__ZN7mecanim8skeleton16SkeletonPoseCopyIN4math4trsXENS2_7affineXEEEvPKNS0_13SkeletonPoseTIT_EEPNS5_IT0_EE
oGa:__ZN18GfxFramebufferGLES18GetFramebufferNameERK20GfxRenderTargetSetup
Q_k:__ZN6il2cpp2vm14TypeNameParser12ParseVersionERKNSt3__212basic_stringIcNS2_11char_traitsIcEENS2_9allocatorIcEEEERtSB_SB_SB_
Ybl:__ZN6il2cpp6icalls8mscorlib6System2IO6MonoIO11GetFileTypeE12Il2CppIntPtrPi
Zoc:__Z30Event_Get_Custom_PropCharacterP12Il2CppObject
K9:__ZN13PlayableGraph27SchedulePlayableDestructionERK9HPlayable
PIc:__ZN5physx6shdfnd5ArrayINS_12PxDebugPointENS0_19ReflectionAllocatorIS2_EEE15growAndPushBackERKS2_
_Gl:_glGetFramebufferAttachmentParameteriv__wrapper
yAe:__Z13RegisterClassI20UnityConnectSettingsEvv
kHb:__Z22scripting_array_length17ScriptingArrayPtr
mJe:_SecurityElement_GetAttribute_m4288291176
ldk:_InternalEnumerator_1_System_Collections_IEnumerator_get_Current_m2389982234_gshared
o$d:__ZN8Collider13AwakeFromLoadE17AwakeFromLoadMode
JBk:_IndexedSet_1_get_Count_m2839545138_gshared
xva:__ZN14SafeBinaryRead20TransferTypelessDataEjPvi
tgi:_RenderPipelineManager_get_currentPipeline_m679160301
xnd:__ZN5physx6shdfnd13ReadWriteLockC2Ev
Msc:__ZN9rapidjson13GenericReaderINS_4UTF8IcEES2_13JSONAllocatorE10ParseFalseILj1ENS_25GenericInsituStringStreamIS2_EENS_15GenericDocumentIS2_S3_S3_EEEEvRT0_RT1_
jHj:_AnimationClipPlayable_INTERNAL_CALL_SetApplyFootIKInternal_m4116451205
FP:__ZN13dynamic_arrayI12SoundChannelLj4EE9push_backERKS0_
Q$:__Z19GetActiveColorSpacev
svj:_EqualityComparer_1__cctor_m1672307556_gshared
Bfh:_SoapTypeAttribute_get_IsInteropXmlElement_m2941294827
Uyb:__ZN14SpriteRenderer18UpdateCachedSpriteEv
ylg:_Enumerator_System_Collections_IEnumerator_get_Current_m3542273247_gshared
Ndf:_Char_System_IConvertible_ToUInt32_m1557991717_AdjustorThunk
noh:_Encoding_get_UTF8Unmarked_m628720656
KRf:_NumberFormatter_RoundBits_m1545255255
x0:__Z6StrCmpPKcS0_
lYb:__Z21CheckGpuProgramUsable20ShaderGpuProgramType
f5h:_Binder__cctor_m3736115807
yjl:__ZN6il2cpp2os9Directory20GetFileSystemEntriesERKNSt3__212basic_stringIcNS2_11char_traitsIcEENS2_9allocatorIcEEEESA_iiPi
KZh:__Z84RuntimeInvoker_Int32_t2071877448_Color32_t874517518_Color32_t874517518_RuntimeObjectPFvvEPK10MethodInfoPvPS4_
O2c:__ZN5physx6shdfnd5ArrayIPvNS0_19ReflectionAllocatorINS_2Cm5BlockIhLj128EEEEEE4copyINS0_15InlineAllocatorILj256ES7_EEEEvRKNS1_IS2_T_EE
Rce:__ZN20TextRenderingPrivate19NativeTextGenerator5SetupEv
t6c:__ZN5physx6shdfnd8PoolBaseINS_16NpConnectorArrayENS0_19ReflectionAllocatorIS2_EEE15disposeElementsEv
WAb:__ZN12AspectRatios8TransferI18StreamedBinaryReadILb0EEEEvRT_
p8d:__ZN14PhysicsManager19CreatePvdConnectionEv
b6b:__ZN10GameObject14CopyPropertiesERS_
arc:__Z44Register_UnityEngine_GUIStyle_get_fixedWidthv
NFe:_RSACryptoServiceProvider_Common_m2581564813
Pnk:_X509CertificateEnumerator_MoveNext_m4060814498
dLj:_AnimatorControllerPlayable_INTERNAL_CALL_GetCurrentAnimatorClipInfoInternal_m3360626147
s0f:_MemoryStream_CheckIfClosedThrowDisposed_m2253054610
A3j:_ArrayReadOnlyList_1_GetEnumerator_m634288642_gshared
$ab:__ZNK13ScreenManager12IsFullScreenEv
mzl:_rand
BHl:_emscripten_glFramebufferRenderbuffer__wrapper
f6j:_InternalEnumerator_1_get_Current_m2345377791_AdjustorThunk
C5c:__ZNK5physx12NpConstraint9getActorsERPNS_12PxRigidActorES3_
ukl:__ZN6il2cpp5utils9PathUtils7CombineIcEENSt3__212basic_stringIT_NS3_11char_traitsIS5_EENS3_9allocatorIS5_EEEERKNS0_10StringViewIS5_EERKSA_
_Hb:__ZN14SafeBinaryRead21TransferSTLStyleArrayINSt3__26vectorI17AnimationCurveTplIfE13stl_allocatorIS4_L18MemLabelIdentifier1ELi16EEEEEEvRT_17TransferMetaFlags
pec:__Z60Register_UnityEngine_AsyncOperation_set_allowSceneActivationv
XWd:__ZN5physx6shdfnd8PoolBaseIN17PxcPoolMallocData10PoolData16ENS0_19ReflectionAllocatorIS3_EEE15disposeElementsEv
V_d:__ZN9Rigidbody23UpdateInterpolationNodeEv
sih:_ObjectManager_RegisterObject_m872610295
H4a:__Z22PrepareOptimizedPlanesPK5PlaneiPKN4math7_float4E
Kwi:_RectOffset_t3387826427_marshal_pinvoke
f0e:_Graphic_SetVerticesDirty_m1607014370
uY:__ZN11UnityEngine15CloudWebService17WebFileDownloaderINS0_20WebRequestRestClientENS0_23WebRequestRestHeaderMapEE10InitializeERKN4core12basic_stringIcNS5_20StringStorageDefaultIcEEEE
e8:__ZN17UniqueIDGenerator15CreatePureIndexEv
wrc:__Z59Register_UnityEngine_GUIStyle_Internal_GetCursorFlashOffsetv
et:__ZN11UnityEngine9Animation28GenericAnimationBindingCache15DidReloadDomainEv
Ohg:_AppDomain_InternalGetProcessGuid_m1278588156
u5e:_InputField_MoveRight_m386206014
cEh:__Z116RuntimeInvoker_Boolean_t3825574718_RuntimeObject_Int32_t2071877448_RuntimeObject_Int32_t2071877448_Int32_t2071877448PFvvEPK10MethodInfoPvPS4_
tZf:_BinaryReader_ReadBoolean_m2892291883
BNk:__ZN15dense_hashtableINSt3__24pairIK10KeyWrapperIPK22Il2CppGenericParameterEP11Il2CppClassEES6_N6il2cpp5utils11PointerHashIS4_EEN14dense_hash_mapIS6_S9_SE_NS6_14EqualsComparerINS0_8equal_toIS5_EEEENS0_9allocatorISA_EEE9SelectKeyESJ_SL_E14squash_deletedEv
IBb:__ZNSt3__26__treeINS_12__value_typeIN4core12basic_stringIcNS2_20StringStorageDefaultIcEEEE4PPtrI6ObjectEEENS_19__map_value_compareIS6_SA_NS_4lessIS6_EELb1EEE13stl_allocatorISA_L18MemLabelIdentifier51ELi16EEE7destroyEPNS_11__tree_nodeISA_PvEE
XTh:__Z139RuntimeInvoker_Void_t1841601450_IntPtr_t_Rect_t3681755626_RuntimeObject_SByte_t454417549_SByte_t454417549_SByte_t454417549_SByte_t454417549PFvvEPK10MethodInfoPvPS4_
x4b:__ZZL23RegisterLightPropertiesR22GenericPropertyBindingEN18Wrapper_LightRange13SetFloatValueEPvf
KZg:_TlsServerCertificate_validateCertificates_m1988583701
H2j:_Action_1_Invoke_m3661933365_gshared
e0:__ZNK9Transform18TransformDirectionERK8Vector3f
QSd:__ZN5physx21PxsBodyTransformVault6updateEv
Hii:_GUILayoutEntry_SetHorizontal_m1828181654
VMl:_emscripten_glClearStencil__wrapper
JAc:__ZL29GeomMTDCallback_CapsuleConvexRN5physx6PxVec3ERfRKNS_10PxGeometryERKNS_11PxTransformES5_S8_
NTk:__ZN15dense_hashtableINSt3__24pairIK10KeyWrapperIPK11Il2CppClassEPKcEES6_N6il2cpp5utils11PointerHashIS3_EEN14dense_hash_mapIS6_S9_SE_NS6_14EqualsComparerINS0_8equal_toIS5_EEEENS0_9allocatorISA_EEE9SelectKeyESJ_SL_E12resize_deltaEjj
XAl:__ZNK10__cxxabiv120__si_class_type_info27has_unambiguous_public_baseEPNS_19__dynamic_cast_infoEPvi
fFl:_glTexSubImage3D__wrapper
Oah:_FactoryCache_Add_m2602974721
IGa:__Z30AddDefaultStreamsToMeshBuffersR9GfxDeviceR11MeshBuffersj17ShaderChannelMaskS3_
c7:__ZL16GetInterfaceImpl18UnityInterfaceGUID
FTf:_RegionInfo_construct_internal_region_from_name_m3316088619
EOk:__ZN6il2cpp2vmL17SetupFieldOffsetsENS0_15FieldLayoutKindEP11Il2CppClassjRKNSt3__26vectorIjNS4_9allocatorIjEEEE
lng:_List_1_System_Collections_IList_get_Item_m936612973_gshared
nml:__ZN6il2cpp6icalls8mscorlib6System15MonoCustomAttrs27GetCustomAttributesInternalEP12Il2CppObjectP20Il2CppReflectionTypeb
fyc:__ZN8JSONRead21TransferSTLStyleArrayI13dynamic_arrayI8Vector3fLj4EEEEvRT_18MemLabelIdentifier17TransferMetaFlags
DEa:__Z24PluginsSetGraphicsDevicePvi18GfxDeviceEventType
Cih:_ObjectReader_ReadAssembly_m869834280
tra:__ZN14PreloadManager35WaitForAllAsyncOperationsToCompleteEv
Njd:__ZN5physx14NpRigidDynamicC2ERKNS_11PxTransformE
ZHg:_Collection_1_IsSynchronized_m971497175_gshared
wEc:__Z27sweepCCTBox_HeightFieldGeomRKN5physx10PxGeometryERKNS_11PxTransformERKNS_2Gu3BoxERKNS_6PxVec3EfRNS_10PxSweepHitENS_7PxFlagsINS_9PxHitFlag4EnumEtEEf
ySe:_ExecuteEvents_Execute_m1617536317
wEj:_Text_get_cachedTextGeneratorForLayout_m1357670532
IL:__ZL31InitializeAudioScriptingClassesv
CXa:__Z14SortGUIByDepthP10GUIElementS0_
rWf:_NumberFormatter_NumberToString_m126384393
cJl:_emscripten_glVertexAttrib4fv__wrapper
y2j:_LogicalCallContext__ctor_m3173272863
VC:__ZN12_GLOBAL__N_120ProcessRootMotionMixER33AnimationPlayableEvaluationOutputR35AnimationPlayableEvaluationConstantR32AnimationPlayableEvaluationInputS1_f
rAc:__ZN5physx3Cct9SweepTest18updateTouchedGeomsEPKNS0_30InternalCBData_FindTouchedGeomERKNS0_13UserObstaclesERKNS_17PxExtendedBounds3ERKNS_19PxControllerFiltersERKNS_6PxVec3E
B4f:_MonoCustomAttrs__cctor_m2608447972
eWf:_Int32_FindSign_m3803672540
ojj:_Enumerator_System_Collections_IEnumerator_Reset_m70453843_AdjustorThunk
l5d:_PxCloseExtensions
Iea:__ZNK20LocalFileSystemPosix21GetAvailableDiskSpaceEPKcRy
ada:__ZNSt3__26__treeIiNS_4lessIiEENS_9allocatorIiEEE7destroyEPNS_11__tree_nodeIiPvEE
CVg:_CipherSuite_InitializeCipher_m229247572
v7g:_X509Certificate2__ctor_m1095336775
pAa:__ZNK9GfxDevice14GetWorldMatrixEv
gfi:_MonoProperty_GetGetMethod_m1100580870
V6a:__Z19scripting_array_new17ScriptingClassPtrjj
yP:__ZN11SoundHandle13CreateChannelEb
ZHh:__Z90RuntimeInvoker_Void_t1841601450_IntPtr_t_Int32_t2071877448_RuntimeObject_Int32_t2071877448PFvvEPK10MethodInfoPvPS4_
nrb:__ZN14SafeBinaryRead21TransferSTLStyleArrayI13dynamic_arrayI12LightmapDataLj4EEEEvRT_17TransferMetaFlags
gig:_ArgumentException__ctor_m3312963299
oVb:__ZNSt3__26vectorIN9ShaderLab20SerializedSubProgram16TextureParameterENS_9allocatorIS3_EEE6assignIPS3_EENS_9enable_ifIXaasr21__is_forward_iteratorIT_EE5valuesr16is_constructibleIS3_NS_15iterator_traitsISA_E9referenceEEE5valueEvE4typeESA_SA_
rSk:__ZN13Il2CppHashMapIN6il2cpp5utils13dynamic_arrayIPK10Il2CppTypeLj4EEEPFvvENS0_8metadata19Il2CppSignatureHashENS9_22Il2CppSignatureCompareENSt3__29allocatorINSC_4pairIK10KeyWrapperIS6_ES8_EEEEEC2EjRKSA_RKSB_
pMk:_U3CCreateWhereIteratorU3Ec__Iterator1D_1_MoveNext_m3533253043_gshared
m5k:__ZN15dense_hashtableINSt3__24pairIK10KeyWrapperIPK22Il2CppGenericParameterEPK24MonoGenericParameterInfoEES6_N6il2cpp5utils11PointerHashIS4_EEN14dense_hash_mapIS6_SA_SF_NS6_14EqualsComparerINS0_8equal_toIS5_EEEENS0_9allocatorISB_EEE9SelectKeyESK_SM_E15set_deleted_keyERKSB_
TZb:__ZN6prcoreL11inner_clearILj2EEEvPhjjj
rah:_X509SubjectKeyIdentifierExtension__ctor_m3887138480
Gjg:_Enumerator_System_Collections_IEnumerator_get_Current_m2853089017_AdjustorThunk
Sdd:__ZNK5physx2Sc9ClothCore20getNbCollisionPlanesEv
nh:_emscripten_exit_fullscreen
lxd:__ZN5physx6shdfnd5ArrayINS_9PxBounds3ENS0_15InlineAllocatorILj192ENS0_19ReflectionAllocatorIS2_EEEEE8recreateEj
WUd:__ZNK5physx13GuMeshFactory17getNbHeightFieldsEv
s3e:_InputField_get_mesh_m3276583786
EZj:_GCHandle_Free_m1639542352_AdjustorThunk
kil:__ZN6il2cpp6icalls8mscorlib6System6String19InternalAllocateStrEi
$xc:__Z29Transfer_Blittable_ArrayFieldI8JSONRead11QuaternionfEvRT_R9ArrayInfoRK23StaticTransferFieldInfo
hAd:__ZNK5physx2Gu12OBBAABBTestsILb1EEclENS_6shdfnd3aos5Vec3VES5_
dfc:__Z45Register_UnityEngine_Camera_get_targetDisplayv
A3b:__ZNK24RendererAnimationBinding15GenerateBindingERKN4core12basic_stringIcNS0_20StringStorageDefaultIcEEEEbRN11UnityEngine9Animation14GenericBindingE
xkb:__Z15GetFlareManagerv
Mzc:__ZN5physx3Cct9SweepTestD2Ev
$z:__ZN8Animator13GetAvatarRootEv
_Uj:_ControllerColliderHit_get_transform_m3183428555
lxl:___toread
fY:__ZN19CloudServiceHandler10QueueEventEPN11UnityEngine15CloudWebService14CloudEventInfoE
yBl:___cxa_is_pointer_type
fOe:_String_Concat_m56707527
XC:__ZN7mecanim9animation16EvaluateAvatarDXEPKNS0_14AvatarConstantEPKNS0_11AvatarInputEPNS0_12AvatarMemoryEPNS0_15AvatarWorkspaceEPNS0_12AvatarOutputE
XJa:__ZN4gles20DestroyRenderSurfaceEP7ApiGLESP17RenderSurfaceGLES
Fjg:_Enumerator_System_Collections_IEnumerator_get_Current_m2853089017_gshared
Mlc:__Z34Transform_CUSTOM_SetAsFirstSiblingP12Il2CppObject
Tna:__ZN17PersistentManager40GlobalToLocalSerializedFileIndexInternalERK26SerializedObjectIdentifier
vV:__ZN11UnityEngine15CloudWebService17SessionEventQueue14ParseEventDataERKN4core12basic_stringIcNS2_20StringStorageDefaultIcEEEE
iQe:_BaseEventData_get_selectedObject_m3551206992
U8f:_SimpleCollator_CompareOrdinal_m2176988387
Ayf:_CCGregorianCalendar_GetYear_m1289900195
c5c:__ZN12GeomQueryAnyIN5physx10PxSweepHitEE7geomHitERKNS0_2Sq17SceneQueryManagerERKNS0_15MultiQueryInputERKNS3_9ShapeDataERKNS0_10PxGeometryERKNS0_11PxTransformENS0_7PxFlagsINS0_9PxHitFlag4EnumEtEEjPS1_fbPNS0_9PxBounds3E
pWf:_Int16_ToString_m2592645088
UEa:__ZN13TranslateGLES4InitERK12GraphicsCaps16GfxDeviceLevelGL
OCc:__ZN43CapsuleHeightfieldContactGenerationCallback7onEventEjPj
jT:__Z60AudioClipPlayable_CUSTOM_INTERNAL_CALL_GetPauseDelayInternalR9HPlayable
c3d:__ZThn4_N12MemoryStream4readEPvj
$jh:_SerializationInfoEnumerator_Reset_m2206466680
zHl:_emscripten_glGetShaderPrecisionFormat__wrapper
cGk:_GenericEqualityComparer_1_Equals_m1934771410_gshared
ttl:__ZN6il2cpp5utils9Exception26FormatInvalidCastExceptionEPK11Il2CppClassS4_
uCb:__ZNSt3__26vectorIN30RuntimeInitializeOnLoadManager15ClassMethodInfoE13stl_allocatorIS2_L18MemLabelIdentifier12ELi16EEE8__appendEj
F1b:__ZN13ProduceHelperI10TagManagerLb0EE7ProduceE18MemLabelIdentifier18ObjectCreationMode
Wtl:__ZN6il2cpp2os6Memory12AlignedAllocEjj
Pnl:__ZN6il2cpp8metadataL7CompareEPK10Il2CppTypeS3_
H6h:_TypeBuilder_get_is_created_m736553860
ehi:_GameObject_set_layer_m2712461877
hUg:_RSAManaged__ctor_m1370411656
jpb:__ZN12CubemapArray23VirtualRedirectTransferER17RemapPPtrTransfer
acc:__ZL27GetComponentsImplementationILb0ELi0EEbR10GameObjectbRK17CompareParametersRK39GetComponentsImplementation_ReturnValue
I5g:_WebHeaderCollection_GetObjectData_m3940120977
JDb:__ZN9Scripting36IsSystemCollectionsGenericDictionaryE17ScriptingClassPtr
rzj:_Raycast3DCallback_EndInvoke_m3234280377
O3c:__ZN5physx12NpConstraint12actorDeletedEPNS_12PxRigidActorE
VYe:_ColorTweenCallback__ctor_m3619686788
c5:__ZL16ReadTypeTreeImplILb0EEbR8TypeTreeRK16TypeTreeIteratorRPKhS6_i
Djc:__Z28PlayableOutputValidityChecksRK15HPlayableOutput
Qy:__ZN27AnimationLayerMixerPlayable16SetLayerMaskCopyEjRKN7mecanim6bitsetILj70EEEPKNS0_8skeleton12SkeletonMaskE
yOc:__ZN5physx2Sc8ShapeSim18reinsertBroadPhaseEv
Ynb:__ZNK22BuiltinResourceManager21GetResourceInstanceIDEPKN5Unity4TypeERKN4core12basic_stringIcNS4_20StringStorageDefaultIcEEEE
KCa:__ZN9GfxDevice15BeginFrameStatsEv
lgc:__Z42Register_UnityEngine_RectOffset_set_bottomv
Gff:_ArrayListWrapper_IndexOf_m3574835167
KG:__Z92Register_UnityEngine_Animations_AnimationClipPlayable_INTERNAL_CALL_GetAnimationClipInternalv
b_a:__ZN28LightProbeProxyVolumeContext8CopyFromERKS_
wni:_GUIUtility_TakeCapture_m3115231813
y6a:__ZN23TransformChangeDispatch32QueueTransformChangeIfHasChangedER18TransformHierarchy
X2a:__ZN18DeferredRenderLoop15RenderFinalPassEP13RenderTextureS1_
YJa:__ZN7ApiGLES18DeleteRenderbufferERj
iSc:__ZN5physx6shdfnd5ArrayIPvNS0_15InlineAllocatorILj256ENS0_19ReflectionAllocatorINS_16NpConnectorArrayEEEEEE15growAndPushBackERKS2_
MIa:__ZL23ProgramUniformMatrix4fvPK7ApiGLESjiihPKv
xza:__ZN7ApiGLES13CreateTextureEjj14GraphicsFormatiiiii
b4b:__ZN13ProduceHelperI11LightProbesLb0EE7ProduceE18MemLabelIdentifier18ObjectCreationMode
UHd:__ZN5physx14SingleAABBTaskC2Ev
YUb:__ZN9ShaderLab20SerializedSubProgram15MatrixParameter8TransferI14SafeBinaryReadEEvRT_
ccc:__ZL27GetComponentsImplementationILb0ELi1EEbR10GameObjectbRK17CompareParametersRK39GetComponentsImplementation_ReturnValue
Ioe:_Round_Down_To_Grid
Zqh:_UTF8Decoder__ctor_m1460357288
Lja:__ZN13RenderTexture7ReleaseEv
Vxb:__ZN10MeshFilter23VirtualRedirectTransferER14SafeBinaryRead
Zlf:_Convert_ToByte_m1201588964
dyb:__ZN12MeshRenderer17MainThreadCleanupEv
dec:__Z36AsyncOperation_Get_Custom_PropIsDoneP12Il2CppObject
EMa:__ZN22CreateGpuProgramOutput12CreateParamsEv
F0c:__ZNK5physx18NpArticulationLink11getChildrenEPPNS_18PxArticulationLinkEj
MEa:__ZNK14GfxContextGLES13GetDefaultFBOEv
PBf:_Array_InternalArray__ICollection_Remove_TisSByte_t454417549_m2474211570_gshared
nQd:__Z15atomIntegrationfPKPN5physx11PxsBodyCoreEPKPNS_12PxsRigidBodyEjPKNS_2Cm13SpatialVectorEPNS_13PxcSolverBodyEPNS_17PxcSolverBodyDataEPS9_RjSH_
qga:__ZN14GraphicsHelper5ClearE13GfxClearFlagsRK10ColorRGBAffjR17ShaderPassContext
zmd:__ZN5physx13NpRigidStatic11createShapeERKNS_10PxGeometryEPKPNS_10PxMaterialEtNS_7PxFlagsINS_11PxShapeFlag4EnumEhEE
z8b:__Z13GetImagePixelI10ColorRGBAfET_PKhii13TextureFormat15TextureWrapModeS5_ii
dZk:_il2cpp_class_is_enum
O8k:__ZN6il2cpp2vm6Thread49CheckCurrentThreadForInterruptAndThrowIfNecessaryEv
Ula:__ZNSt3__23mapIN9ShaderLab16FastPropertyNameEN18UnityPropertySheet11UnityTexEnvENS_4lessIS2_EENS_9allocatorINS_4pairIKS2_S4_EEEEEixERS9_
yza:__ZNK13TranslateGLES25GetTextureTargetDimensionEj
kWc:__ZN5physx11NpAggregate22removeActorAndReinsertERNS_7PxActorEb
PXd:__ZZL19ExtractHullPolygonsRjRN5physx2Gu9ContainerERKNS0_17ConvexHullBuilderEPS2_S3_EN5Local9FloodFillES3_PKNS0_11AdjTriangleEjPb
Qhk:_PatternCompiler_EmitInfo_m597931026
yRg:_ModulusRing_Multiply_m3113924743
clc:__Z47Texture2D_CUSTOM_INTERNAL_CALL_GetPixelBilinearP12Il2CppObjectffR10ColorRGBAf
rte:__ZZN2UI6Canvas15InitializeClassEvEN39FunctorImpl_1413kCanvasHierarchyChanged4CallEPviR11MessageData
mj:_emscripten_glVertexAttrib4f
Ukg:_Enumerator_System_Collections_IEnumerator_get_Current_m3461301268_AdjustorThunk
yJg:_ReadOnlyCollection_1_System_Collections_IEnumerable_GetEnumerator_m531171980_gshared
MXb:__ZNSt3__26vectorIN20GpuProgramParameters14ConstantBufferENS_9allocatorIS2_EEE8__appendEj
NMf:_Array_Sort_TisUILineInfo_t3621277874_m3105833015_gshared
Qo:FUNCTION_TABLE_vf
j6f:_MonoType_GetGenericArguments_m2708198481
rng:_List_1_AddEnumerable_m2489692396_gshared
UYc:__ZN5physx14NpArticulation26setMaxProjectionIterationsEj
VLc:__ZN5physx3Cct15ObstacleContext14removeObstacleEj
yxk:_WaitForSecondsRealtime__ctor_m1734539010
ay:__ZN7mecanim12statemachine24CreateStateMachineMemoryEPKNS0_20StateMachineConstantERNS_6memory9AllocatorE
Lmj:_Enumerator_get_Current_m419581838_AdjustorThunk
PCa:__ZN9GfxDevice18SetGlobalDepthBiasEff
sWk:__ZN6il2cpp6icalls8mscorlib6System8MonoType12get_AssemblyEP20Il2CppReflectionType
WDk:_EqualityComparer_1__cctor_m3664711181_gshared
h7d:__ZN15CapsuleCollider9SetCenterERK8Vector3f
zj:_emscripten_glGetPointerv
MC:__ZN8Animator22ApplyBuiltinRootMotionEv
S3d:__ZN5physx7profile8ZoneImplINS_28PxProfileNameProviderForwardEE17handleBufferFlushEPKhj
hWc:__ZN5physx2Sc5ActorC2ERNS0_16InteractionSceneEhNS0_14IslandNodeInfo4TypeE
NZc:__ZN5physx21PxcArticulationHelper16prepareDataBlockERNS_9PxcFsDataEPKNS_19PxsArticulationLinkEtPNS_11PxTransformEPNS_12PxcFsInertiaEPNS_30PxcArticulationJointTransformsEj
Kcl:__ZN30dense_hashtable_const_iteratorINSt3__24pairIK10KeyWrapperIP14Il2CppIUnknownEjEES5_N6il2cpp5utils11PointerHashIS3_EEN14dense_hash_mapIS5_jSB_NS5_14EqualsComparerINS0_8equal_toIS4_EEEENS0_9allocatorIS7_EEE9SelectKeyESG_SI_EppEv
Red:__ZN5physx15NpActorTemplateINS_7PxClothEED2Ev
L7h:_DerivedType_get_UnderlyingSystemType_m3904230233
udd:__ZN5physx2Sc9ClothCore16setRestPositionsEPKNS_6PxVec4E
jXa:__Z27ConvertSubMeshesToTrianglesR13dynamic_arrayI7SubMeshLj4EERS_ItLj2EE
doc:__ZN5IMGUI14GUIWindowStateD2Ev
V8g:_X509Certificate2Collection__ctor_m819526826
pL:__ZN12AudioManager5ResetEv
i1h:__Z75RuntimeInvoker_RuntimeObject_Single_t2076509932_RuntimeObject_RuntimeObjectPFvvEPK10MethodInfoPvPS4_
LSg:_KeyBuilder_Key_m3814433741
hig:_ArgumentException__ctor_m158205422
_Ef:_Array_compare_TisVector3_t2243707580_m3709184876_gshared
X1e:_HorizontalLayoutGroup_SetLayoutHorizontal_m3237355818
Kqa:__ZN6prcoreL17RemapGenericFloatI17TexFormatRGBAHalf15TexFormatRGHalfEEvPKNS_9InnerInfoE
rkl:__ZN6il2cpp6icalls8mscorlib6System11Environment20GetWindowsFolderPathEi
Zfj:__ZL60AspectRatioFitter_t3114550109_CustomAttributesCacheGeneratorP21CustomAttributesCache
Mw:__ZN7mecanim5human18HumanPoseBlendNodeERNS0_9HumanPoseEPS1_f
yke:_UNITY_FT_RoundFix
VXb:__ZN9ShaderLab20SerializedSubProgram15AddTextureParamEPKcii16TextureDimension
FEc:__ZNK5physx2Gu15HeightFieldUtil12traceSegmentI24ConvexVsHeightfieldSweepLb0ELb0ELb1EEEvRKNS_6PxVec3ES6_PT_PS5_
yQ:__ZNK18AudioMixerPlayable11DerivesFromE17ScriptingClassPtr
yUd:__ZNK5physx12PxConvexMesh19getConcreteTypeNameEv
fyb:__ZNK12MeshRenderer22GetTypeVirtualInternalEv
eFc:__ZN5physx2Gu19gjkLocalPenetrationINS0_9TriangleVENS0_17ShrunkConvexHullVEEEjRKT_RKT0_RKNS_6shdfnd3aos6FloatVERNSB_5Vec3VESG_SG_RSC_PhSI_Rhb
UN:__ZN4FMOD6System17setSoftwareFormatEi17FMOD_SOUND_FORMATii18FMOD_DSP_RESAMPLER
MGc:__ZN5physx2Gu15GJKLocalRayCastERNS0_9TriangleVERNS0_4BoxVERKNS_6shdfnd3aos6FloatVERKNS6_5Vec3VESC_RS7_RSA_SE_fb
wOc:__ZN5physx2Sc13ShapeIterator4initERKNS0_8ActorSimE
xyl:_write
lma:__ZN14SafeBinaryRead19TransferSTLStyleMapINSt3__23mapIN4core12basic_stringIcNS3_20StringStorageDefaultIcEEEES7_NS1_4lessIS7_EE13stl_allocatorINS1_4pairIKS7_S7_EEL18MemLabelIdentifier1ELi16EEEEEEvRT_17TransferMetaFlags
Xse:__ZN2UI6Canvas27UpdateEventIndexesRecursiveERi
BV:__ZN11UnityEngine15CloudWebService16SessionContainer21PrepareDataErrorEventERN4core12basic_stringIcNS2_20StringStorageDefaultIcEEEE
zge:_UNITY_FT_Outline_New
NNb:__Z19TransferField_ArrayI19StreamedBinaryWriteILb0EE27Converter_SimpleNativeClassI8GUIStyleEEvRK23StaticTransferFieldInfoR31RuntimeSerializationCommandInfoRT0_
ffe:__ZN20TextRenderingPrivate8TextMesh23VirtualRedirectTransferER18StreamedBinaryReadILb0EE
u8c:__ZN5physx14NpArticulationC2Ev
cMj:_AnimatorControllerPlayable_CrossFade_m1077061813_AdjustorThunk
Xgh:_RemotingServices_RegisterInternalChannels_m1827304423
vli:_GUIStyle_get_onNormal_m1675201777
As:__ZL32CleanupAnimationScriptingClassesv
Bvc:__Z35Transfer_Blittable_FixedBufferFieldI8JSONReadiEvRK29SerializationCommandArgumentsR31RuntimeSerializationCommandInfo
vVk:__ZNSt3__213__vector_baseIN6il2cpp2os19SocketHandleWrapperENS_9allocatorIS3_EEED2Ev
JQ:__ZNK19AudioPlayableOutput11DerivesFromE17ScriptingClassPtr
tni:_GUIStyleState_Cleanup_m705006206
yNh:__Z77RuntimeInvoker_RuntimeObject_Int32_t2071877448_RuntimeObject_SByte_t454417549PFvvEPK10MethodInfoPvPS4_
Kc:invoke_viiffi
DTf:_RegionInfo_GetByTerritory_m3452395101
ibb:__ZN13sorted_vectorINSt3__24pairIN4core12basic_stringIcNS2_20StringStorageDefaultIcEEEEPK17MessageIdentifierEEN10vector_mapIS6_S9_NS0_4lessIS6_EENS0_9allocatorISA_EEE13value_compareESF_E10insert_oneERKSA_
lsh:_Thread_GetCachedCurrentUICulture_m5590127
Fwk:_Vector3_Dot_m3161182818
ZXe:_ColorBlock_set_pressedColor_m587704489_AdjustorThunk
Wwg:_List_1_CheckMatch_m4018158235_gshared
Ipd:__ZN5physx6shdfnd8PoolBaseINS_2Sc9ActorPairENS0_19ReflectionAllocatorIS3_EEE12allocateSlabEv
vTk:__ZN6il2cpp2vm13MetadataCache38GetMethodInfoFromMethodDefinitionIndexEi
gcf:_Byte_System_IConvertible_ToDateTime_m1583041031
Uic:__Z39MonoBehaviour_CUSTOM_GetScriptClassNameP12Il2CppObject
dIk:__ZL24UnresolvedVirtualCall_68P12Il2CppObjectS0_iS0_S0_S0_S0_S0_S0_PK10MethodInfo
Dub:__ZN10VertexData8TransferI24GenerateTypeTreeTransferEEvRT_
Nkl:__ZN13Il2CppHashMapIPK19Il2CppGenericMethodP10MethodInfoN6il2cpp8metadata23Il2CppGenericMethodHashENS6_26Il2CppGenericMethodCompareENSt3__29allocatorINS9_4pairIK10KeyWrapperIS2_ES4_EEEEEC2EjRKS7_RKS8_
bwj:_EqualityComparer_1_System_Collections_IEqualityComparer_Equals_m1089835085_gshared
j4a:__ZL10CullLightsRK22SceneCullingParametersR11CullResults
e$e:_Dropdown__cctor_m264401557
h9e:_Array_IndexOf_m2819632474
ngk:_Comparer_1__cctor_m3996541505_gshared
Xx:__ZN7mecanim12statemachine20GetBlendTreeConstantERKNS0_13StateConstantEi
Lqd:__ZN5physx7NpScene21setDominanceGroupPairEhhRKNS_20PxDominanceGroupPairE
l7b:__Z40GetTemporaryCachePathApplicationSpecificv
YAa:__ZN9GfxDevice16EndAsyncJobFrameEv
the:_UNITY_tt_face_load_hhea
qXj:_PersistentCall__ctor_m2079279187
xlf:_Convert_ToBase64String_m1936815455
tl:___syscall3
wl:___syscall6
yl:___syscall4
AW:__ZN11UnityEngine15CloudWebService20WebRequestRestClient17GetResponseStatusEv
LWe:_ColorBlock_get_fadeDuration_m987725262
Plh:_CryptographicException__ctor_m2415891459
occ:__ZN9Scripting25BroadcastScriptingMessageER10GameObjectPKc18ScriptingObjectPtr
Nl:_emscripten_glShaderBinary
j8e:_Array_InternalArray__RemoveAt_m1126483634
yRj:_Camera_INTERNAL_CALL_RaycastTry_m1030092423
wea:__ZNK20LocalFileSystemPosix6ExistsERK13FileEntryData
nUc:__ZN5physx35NpArticulationJointGetBodiesFromScbERNS_3Scb17ArticulationJointERPNS0_4BodyES5_
$u:__ZN7mecanim5human19MaskHasLeftFootGoalERKNS_6bitsetILj70EEE
TTd:__ZNK5physx2Sc15ClothFabricCore16getTetherLengthsEPfj
XZh:__Z101RuntimeInvoker_Int32_t2071877448_RuntimeObject_Color32_t874517518_Int32_t2071877448_Int32_t2071877448PFvvEPK10MethodInfoPvPS4_
tqi:_Mesh_get_colors32_m4153271224
swe:__Z58Register_UnityEngine_Canvas_GetETC1SupportedCanvasMaterialv
_Pb:__ZN17AnimationCurveTplIfE8TransferI18StreamedBinaryReadILb1EEEEvRT_
xsf:_DateTimeOffset_GetHashCode_m3312197462_AdjustorThunk
nye:__ZN18UnityConnectClientD2Ev
vYk:_il2cpp_set_data_dir
Avd:__ZN5physx2Sc13ConstraintSim8getForceERNS_6PxVec3ES3_
oKh:__Z51RuntimeInvoker_Double_t4078015681_Int32_t2071877448PFvvEPK10MethodInfoPvPS4_
Mlk:_Uri_get_IsUnc_m2111738174
Fsk:_DataUtility_INTERNAL_CALL_GetPadding_m1621366113
tAc:__ZN5physx15PxGeometryQuery18computePenetrationERNS_6PxVec3ERfRKNS_10PxGeometryERKNS_11PxTransformES6_S9_
Kbi:_TypeBuilder_IsValueTypeImpl_m1499671481
yxe:__ZN11UnityEngine15PlatformWrapper30GetGraphicsDriverLibraryStringEv
N8d:__ZN5Unity12PhysicsQueryC2Ev
TTg:_EncryptedPrivateKeyInfo_Decode_m1706190306
dRb:__Z18Transfer_BlittableI18StreamedBinaryReadILb0EELb0E4AABBEvRK29SerializationCommandArgumentsR31RuntimeSerializationCommandInfo
AE:__ZN16MecanimAnimation24DeleteAnimatedPropertiesERP26IAnimatedPropertyEvaluator
Epf:_Convert_ToUInt16_m1665900934
CTf:_RegionInfo__ctor_m2058831971
KUa:__Z14DrawGUITextureRK5RectTIfEP7Texture11ColorRGBA32P8Materiali
DEj:_Text_get_supportRichText_m3291105891
txi:_RectTransform_GetParentSize_m1571597933
zB:__ZN9BlobWrite8TransferI22OffsetPtrArrayTransferIKN4math7_float4EEEEvRT_PKc17TransferMetaFlags
y6e:_LayoutElement_set_ignoreLayout_m1530090081
gja:__ZN15TextureSettings8TransferI24GenerateTypeTreeTransferEEvRT_
_gk:_MatchCollection_GetEnumerator_m3516985966
nvc:__ZN9JSONWrite8TransferI4AABBEEvRT_PKc17TransferMetaFlags
loh:_UTF7Encoding__ctor_m2365939916
tQa:__ZN25MultiBlocksMemoryFileData9SetLengthEy
ntk:_TextGenerationSettings_Equals_m3944651893_AdjustorThunk
BVj:_DelegatePInvokeWrapper_StateChanged_t2480912210
wxj:_MatEntry__ctor_m3650167335
_Qd:__ZNK18ScBeforeSolverTask7getNameEv
Qpb:__ZNK9Texture2D20GetRuntimeMemorySizeEv
ewh:_TypeInitializationException__ctor_m2993591639
iEd:__ZN5physx14solve1D4_BlockEPKNS_23PxcSolverConstraintDescEjRNS_16PxcSolverContextE
Wm:_emscripten_glUniform2iv
SAc:__ZL33GeomMTDCallback_ConvexHeightFieldRN5physx6PxVec3ERfRKNS_10PxGeometryERKNS_11PxTransformES5_S8_
Opi:_Matrix4x4_ToString_m1982554457_AdjustorThunk
Dde:_UNITY_FT_Outline_Transform
Ykc:__Z60Register_UnityEngine_Sprites_DataUtility_Internal_GetMinSizev
SOk:__ZN6il2cpp2vm5Class10GetMethodsEP11Il2CppClassPPv
W$a:__Z30AddDefaultStreamsToMeshBuffersR9GfxDeviceR11MeshBuffersRK16DrawBuffersRange17ShaderChannelMaskS6_
XJe:_Hash_GetObjectData_m315532943
BJa:__ZN7ApiGLES17DeleteFramebufferERN2gl6HandleILNS0_10ObjectTypeE9EEES3_
ILa:__ZN15UniformTFMethod13MapBoneBufferEj
eXg:_RecordProtocol_SendAlert_m2816808523
Zre:__ZN2UI14CanvasRendererD2Ev
UMj:_Animator_SetFloat_m956158019
pJd:__ZN5physx26PxcPCMContactCapsuleConvexERKNS_2Gu13GeometryUnionES3_RKNS_11PxTransformES6_RKfRNS_10PxcNpCacheERNS0_13ContactBufferE
m9k:__ZN6il2cpp6icalls8mscorlib6System5Array8SetValueEP11Il2CppArrayP12Il2CppObjectS5_
F2f:_SynchronizedReader_Read_m1399666181
Idi:_MonoEvent_get_Name_m2796714646
g6k:__ZN15dense_hashtableINSt3__24pairIK10KeyWrapperINS1_IPK9EventInfoP11Il2CppClassEEEjEES9_17ReflectionMapHashIS8_EN14dense_hash_mapIS9_jSD_NS9_14EqualsComparerINS0_8equal_toIS8_EEEENS0_9allocatorISB_EEE9SelectKeyESI_SK_E15set_deleted_keyERKSB_
qfa:__Z9SetupArgviPPKc
GTe:_PointerEventData_set_worldNormal_m2025727441
Xml:__ZN6il2cpp2vm4Enum21GetEnumValuesAndNamesEP11Il2CppClassPP11Il2CppArrayS6_
lYg:_Context_get_SentConnectionEnd_m3114190867
lXc:__ZN5physx10PxsContext17addParticleSystemEPNS_15PxsParticleDataERKNS_26PxvParticleSystemParameterEb
hVc:__ZN5physx3Scb5Scene13addRigidNoSimINS0_4BodyELb1ELb1EEEvRT_RNS0_13ObjectTrackerE
kpb:__ZN12CubemapArray23VirtualRedirectTransferER24GenerateTypeTreeTransfer
I5:__ZN12FileAccessor4OpenER15FileSystemEntry14FilePermission16FileAutoBehavior
YKg:_ReadOnlyCollection_1__ctor_m2364452928_gshared
xjl:__ZN6il2cpp2os9Directory6CreateERKNSt3__212basic_stringIcNS2_11char_traitsIcEENS2_9allocatorIcEEEEPi
JMj:_AnimatorControllerPlayable_Play_m1490151611_AdjustorThunk
cGc:__ZL19sweepBoxVsTrianglesjPKN5physx10PxTriangleERKNS_2Gu3BoxERKNS_6PxVec3EfRNS_10PxSweepHitENS_7PxFlagsINS_9PxHitFlag4EnumEtEEbPKj
x6a:__ZN23TransformChangeDispatch32QueueTransformChangeIfHasChangedERK15TransformAccess
jTe:_PointerEventData_set_clickTime_m3931922487
jX:__ZNSt3__24listIP19CloudServiceHandler13stl_allocatorIS2_L18MemLabelIdentifier86ELi16EEE6removeERKS2_
CRf:_NumberFormatter_AppendNonNegativeNumber_m629862866
y3d:__ZN9Rigidbody18AddForceAtPositionERK8Vector3fS2_i
yYj:_ResourceInfo__ctor_m2401359321_AdjustorThunk
Sjl:__ZN6il2cpp2os26LibraryNamePrefixAndSuffixC2EPKcS3_
Dif:_Hashtable__ctor_m392789568
Prh:_Mutex_CreateMutex_internal_m2352956576
jqh:_UTF7Encoding__cctor_m4192443836
eqc:__Z31GUIStyle_CUSTOM_SetFontInternalP12Il2CppObjectS0_
B:tempValue
GVf:_Int16_System_IConvertible_ToSingle_m3277935657
M1:__Z29scripting_class_from_fullnamePKcS0_S0_
pzj:_Raycast3DCallback_Invoke_m2271859924
vy:__ZN26AnimatorControllerPlayable18DeallocateBindingsEv
$Ac:__ZN5physx2Gu29ConvexVsMeshContactGeneration20generateLastContactsEv
PMj:_AnimatorControllerPlayable_HasState_m3003093532
gie:_UNITY_FT_Stream_ReadAt
vgd:__ZN5physx2Sc17ParticleSystemSim16getParticleStateEv
eQd:__ZN5physx6shdfnd5ArrayINS_25PxsCompoundContactManagerENS0_19ReflectionAllocatorIS2_EEE8recreateEj
bjj:_Enumerator_get_CurrentKey_m2387752419_AdjustorThunk
Xli:_GUIStyle_get_lineHeight_m2132859383
MI:__Z87Register_UnityEngine_Animations_AnimatorControllerPlayable_INTERNAL_CALL_GetFloatStringv
GSk:__ZN15dense_hashtableINSt3__24pairIK10KeyWrapperIN6il2cpp5utils13dynamic_arrayIPK10Il2CppTypeLj4EEEEPFvvEEESA_NS3_8metadata19Il2CppSignatureHashEN14dense_hash_mapISA_SD_SG_NSA_14EqualsComparerINSF_22Il2CppSignatureCompareEEENS0_9allocatorISE_EEE9SelectKeyESK_SM_E9set_valueEPSE_RKSE_
FLg:_ReadOnlyCollection_1_System_Collections_Generic_IListU3CTU3E_RemoveAt_m2137782652_gshared
ETf:_RegionInfo__ctor_m997788172
MXj:_UnityEvent_FindMethod_Impl_m3303953986
tj:_glReadBuffer
kwh:_UInt16_System_IConvertible_ToBoolean_m887616848
aHd:__ZN5physx14PxsAABBManagerC2ERNS_2Cm13EventProfilerERNS_19PxcScratchAllocatorE
wS:__ZN11AudioModule22CreateAudioClipFromWWWEP10IWWWStreamPKcbbi
$oh:_StringBuilder_set_Length_m3039225444
XFg:_Collection_1_System_Collections_IList_Contains_m3870109702_gshared
XAf:_Array_InternalArray__ICollection_Contains_TisRaycastResult_t21186376_m3188614988_gshared
nqf:_CultureAwareComparer_GetHashCode_m3681260951
Vte:__Z13RegisterClassIN2UI11CanvasGroupEEvv
VZb:__ZN6prcoreL11inner_clearILj4EEEvPhjjj
Xf:_emscripten_glClear
yzj:_Selectable__ctor_m1440593935
m1a:__ZN15SHConstantCacheC2ER13BatchRendererR15RenderLoopStats
nJk:__ZL25UnresolvedVirtualCall_132P12Il2CppObject17Color_t2020392075faaaPK10MethodInfo
J9:__ZNK8Playable6HandleEv
Z0a:__Z30SetupBakedOcclusionForGeometrybRK26SharedLightmapSettingsDataRK15LightmapIndicesR17ShaderPassContext
R3:__ZN14MessageHandler28MessageIDToMessageIdentifierEi
d4g:_HttpRequestCreator_Create_m3607509610
_ub:__ZNK11SpriteAtlas20GetRuntimeRenderDataEPK6Sprite
esl:__ZN6il2cpp2vm10WaitHandle19NewManualResetEventEb
Avk:_UISystemProfilerApi_EndSample_m2059427490
pMg:_ReadOnlyCollection_1_System_Collections_IList_Contains_m3707723158_gshared
hAh:_Version_GetHashCode_m880841176
mw:__ZN7mecanim14ValueArrayCopyILb0EEEvPKNS_10ValueArrayEPS1_
tH:__Z51Register_UnityEngine_Animator_get_hasBoundPlayablesv
GMk:_Nullable_1_ToString_m1238126148_AdjustorThunk
me:emscriptenWebGLGetUniform
yp:FUNCTION_TABLE_iiiiiiiiiii
gIc:__ZN5physx2Gu19sweepCapsuleCapsuleERKNS0_7CapsuleES3_RKNS_6PxVec3EfRfRS4_S8_jRt
S5a:__ZL10CleanUpJobP20CullingGroupsJobData
Sdf:_Char_CompareTo_m3044885427_AdjustorThunk
oDc:__ZN5physx2Gu22computeMTD_PlaneConvexERNS_6PxVec3ERfRKNS_7PxPlaneERKNS_20PxConvexMeshGeometryERKNS_11PxTransformE
zak:_InternalEnumerator_1_System_Collections_IEnumerator_get_Current_m2035754659_AdjustorThunk
Uxb:__ZN10MeshFilter23VirtualRedirectTransferER24GenerateTypeTreeTransfer
rUd:__ZN5physx13BigConvexData4LoadERNS_13PxInputStreamE
BUa:__ZN13RenderManager15BatchModeUpdateEv
fub:__ZN14SafeBinaryRead21TransferSTLStyleArrayI13dynamic_arrayI8Vector2fLj4EEEEvRT_17TransferMetaFlags
Sna:__ZN17PersistentManager51InstanceIDToLocalSerializedObjectIdentifierInternalEiR31LocalSerializedObjectIdentifier
q2c:__ZN5physx2Sc8ActorSim24postDominanceGroupChangeEv
Qd:_glVertexAttribIPointer
VCe:_HMAC_set_HashName_m457235014
f9b:__ZNK6Sprite10GetPaddingE20SpriteRenderDataMode
i3c:__ZN5physx2Cm8PtrTable5clearERNS0_22PtrTableStorageManagerE
fAf:_Array_InternalArray__ICollection_Contains_TisTableRange_t2011406615_m605506746_gshared
jpj:_Dictionary_2_Add_m1296007576_gshared
mpf:_Decimal_op_Explicit_m729046406
SLc:__ZN5physx3Cct15ObstacleContext7releaseEv
y0e:_Graphic_OnEnable_m2900261811
ODd:__ZN5physx27solveFrictionBlockWriteBackEPKNS_23PxcSolverConstraintDescEjRNS_16PxcSolverContextEPNS_25PxcThresholdStreamElementEjPi
amh:_CryptographicUnexpectedOperationException__ctor_m3552441227
Cff:_ArrayListWrapper_Clear_m321161741
y5e:_InputField_LineDownCharacterPosition_m2690468785
fie:_UNITY_ft_glyphslot_alloc_bitmap
RMf:_Array_Sort_TisVector2_t2243707579_TisVector2_t2243707579_m2582252549_gshared
kyh:_UInt64_System_IConvertible_ToDouble_m2828923873
K0b:__ZZN2UI13RectTransform15InitializeClassEvEN31FunctorImpl_62kTransformChanged4CallEPviR11MessageData
Vsg:_List_1_System_Collections_IList_set_Item_m1129584681_gshared
Bje:_ft_raster1_render
Zjc:__Z57Register_UnityEngine_RectTransform_INTERNAL_set_anchorMaxv
Png:_List_1_set_Capacity_m491101164_gshared
fAl:__ZNKSt3__221__basic_string_commonILb1EE20__throw_length_errorEv
xph:_StringBuilder_Insert_m1733097906
Kj:_JS_SystemInfo_GetMemory
U0g:_SslStreamBase_get_HashStrength_m480059173
lKa:__ZN18GfxFramebufferGLES13ReadbackImageER14ImageReferenceiiiiii
tnj:_ValueCollection_System_Collections_Generic_ICollectionU3CTValueU3E_Clear_m3271993638_gshared
ilf:_Enumerator_MoveNext_m1419609883
yM:__ZN4FMOD7Channel19setReverbPropertiesEPK29FMOD_REVERB_CHANNELPROPERTIES
p3:__ZN13MonoBehaviour22GetScriptFullClassNameEv
lQd:__ZN5physx6shdfnd4sortIPNS_15PxsContactPatchENS_27SortBoundsPredicateManifoldENS0_19ReflectionAllocatorIS3_EEEEvPT_jRKT0_RKT1_j
nwk:_Vector2__cctor_m3670745621
n4g:_ServicePointManager_FindServicePoint_m3137356168
gua:__ZN20SphericalHarmonicsL211AddWeightedERKS_f
YTe:_PointerInputModule_GetPointerData_m1695674453
uji:__Z14bankers_roundff
aJh:__Z90RuntimeInvoker_Void_t1841601450_RuntimeObject_RuntimeObject_RuntimeObject_SByte_t454417549PFvvEPK10MethodInfoPvPS4_
mKb:__Z19TransferField_ArrayI17RemapPPtrTransfer27Converter_SimpleNativeClassI8GUIStyleEEvRK23StaticTransferFieldInfoR31RuntimeSerializationCommandInfoRT0_
iqf:_Convert_ToUInt64_m345450801
JMk:_Predicate_1_BeginInvoke_m2559992383_gshared
osc:__ZN9JSONWrite8TransferI10ColorRGBAfEEvRT_PKc17TransferMetaFlags
KVj:_Debug_Log_m920475918
lLc:__ZN5physx3Cct26CharacterControllerManager16createControllerERKNS_16PxControllerDescE
L3:__Z25scripting_method_get_name18ScriptingMethodPtr
gkc:__Z35Register_UnityEngine_Resources_Loadv
NIb:__Z19TransferField_ArrayI14SafeBinaryRead16Converter_StringEvRK23StaticTransferFieldInfoR31RuntimeSerializationCommandInfoRT0_
Bzl:_rename
rql:_GC_exit_check
B6f:_NotSupportedException__ctor_m3232764727
D3g:_TypeConverterAttribute_Equals_m2330345916
UBc:__ZNK5physx2Gu15OBBTriangleTest10obbTriTestERKNS_6PxVec3ES4_S4_
_Nh:__Z90RuntimeInvoker_Boolean_t3825574718_Int32_t2071877448_Int32U26_t455636984_Int32_t2071877448PFvvEPK10MethodInfoPvPS4_
A7g:_X509Certificate2_get_NotAfter_m3430171627
Yrf:_DateTime_ToString_m1117481977
g_f:_MonoIO_CreateDirectory_m379525469
qB:__ZN9BlobWrite8TransferI22OffsetPtrArrayTransferI9OffsetPtrIN7mecanim12statemachine18StateMachineMemoryEEEEEvRT_PKc17TransferMetaFlags
Ife:_UNITY_ft_smooth_renderer_class_pic_free
Fvg:_List_1_System_Collections_IList_Remove_m3763718607_gshared
OQ:__ZN19AudioPlayableOutput22OnConnectionHashChangeEv
aNe:_String_Concat_m2000667605
sVk:__ZN6il2cpp2os19SocketHandleWrapperC2ERKS1_
Fll:__ZN6il2cpp2vm6String8NewUtf16EPKDsi
Wil:__ZN6il2cpp2os10ThreadImpl12QueueUserAPCEPFvPvES2_
Lde:__ZN20TextRenderingPrivate15DynamicFontData36GetFaceForCharacterIfAvailableInFontERKNS_7FontRefERKNSt3__26vectorI4PPtrIN13TextRendering4FontEE13stl_allocatorIS9_L18MemLabelIdentifier34ELi16EEEEj
IQf:_ExecuteEvents_GetEventHandler_TisRuntimeObject_m3333041576_gshared
NHc:__ZNK5physx2Gu15HeightFieldUtil12traceSegmentI25CapsuleTraceSegmentReportLb0ELb0ELb1EEEvRKNS_6PxVec3ES6_PT_PS5_
ape:_UNITY_FT_Hypot
oId:__ZN5physx10PxsContext23prepareCMDiscreteUpdateEPNS_10PxBaseTaskE
waf:_BitConverter_ToInt64_m1329623425
r1b:__ZN8RendererC2E12RendererType18MemLabelIdentifier18ObjectCreationMode
L2c:__ZN5physx6shdfnd5ArrayIPvNS0_19ReflectionAllocatorINS_2Cm5BlockIhLj256EEEEEE4copyINS0_15InlineAllocatorILj256ES7_EEEEvRKNS1_IS2_T_EE
fg:_emscripten_glGetError
R4k:__ZN15dense_hashtableINSt3__24pairIK10KeyWrapperIPK14Il2CppAssemblyEPK22Il2CppMonoAssemblyNameEES6_N6il2cpp5utils11PointerHashIS4_EEN14dense_hash_mapIS6_SA_SF_NS6_14EqualsComparerINS0_8equal_toIS5_EEEENS0_9allocatorISB_EEE9SelectKeyESK_SM_E14squash_deletedEv
lN:__Z14FMOD_FILE_SeekPvjS_
Edh:_MethodCall_get_Properties_m1893707917
p6c:__ZN5physx6shdfnd8PoolBaseINS_11NpAggregateENS0_19ReflectionAllocatorIS2_EEE15disposeElementsEv
Ekj:_ShimEnumerator_get_Entry_m2387156530_gshared
eTk:__ZN14dense_hash_mapI10KeyWrapperIN6il2cpp5utils13dynamic_arrayIPK10Il2CppTypeLj4EEEEPFvvENS1_8metadata19Il2CppSignatureHashENS8_14EqualsComparerINSB_22Il2CppSignatureCompareEEENSt3__29allocatorINSG_4pairIKS8_SA_EEEEEC2EjRKSC_RKSF_
$Gc:__ZThn4_N16RayRTreeCallbackILi1ELb1EE14processResultsEjPj
p7a:__ZNK13RenderTexture32CalculateNeedsInvertedProjectionEv
GLc:__ZN5physx2Gu17RadixSortBuffered4SortEPKfj
ng:emscriptenWebGLGet
Fwi:_Rect_GetHashCode_m559954498_AdjustorThunk
S5:__Z19CanReplaceComponentRN5Unity9ComponentEPKNS_4TypeEPN4core12basic_stringIcNS5_20StringStorageDefaultIcEEEE
D2b:__ZN12CubemapArray11InitTextureEiii13TextureFormatb
Fpa:__ZN6prcoreL18BlitIntegerToFloatERK14ImageReferenceRS0_
Mbc:__Z17GetSceneBuildInfoRKN4core12basic_stringIcNS_20StringStorageDefaultIcEEEEiR14SceneBuildInfo
lSk:__ZNSt3__27__sort4IRN6il2cpp5utils11collections13ArrayValueMapIPK10Il2CppType17Il2CppInteropData26InteropDataToTypeConverterNS1_8metadata14Il2CppTypeLessENSA_26Il2CppTypeEqualityComparerEE12SortComparerEPS8_EEjT0_SH_SH_SH_T_
yqi:_Mesh_SetUVs_m841280343
F7g:_X509Certificate2_get_SignatureAlgorithm_m3069898012
uRc:__ZN27ConvexVsMeshOverlapCallbackC2ERKN5physx2Gu10ConvexMeshERKNS0_11PxMeshScaleERKNS0_2Cm23FastVertex2ShapeScalingERKNS0_11PxTransformESE_bRKNS1_3BoxE
Hmi:_GUIStyle_INTERNAL_CALL_Internal_CalcSizeWithConstraints_m1203344891
ZB:__ZN7mecanim5human13HumanFixTwistEPKNS0_5HumanEPNS_8skeleton13SkeletonPoseTIN4math4trsXEEES9_iiRKf
E0a:__ZL24AssignProjectorQueuesJobP30AssignProjectorQueuesJobHeader
Dth:_TimeSpan_get_Hours_m3804628138
Lfl:__ZN14dense_hash_mapI10KeyWrapperIP12Il2CppObjectEN6il2cpp2gc9CachedCCWENS4_5utils11PointerHashIS1_EENS3_14EqualsComparerINSt3__28equal_toIS2_EEEENSB_9allocatorINSB_4pairIKS3_S6_EEEEEC2EjRKS9_RKSE_
MSk:__ZN15dense_hashtableINSt3__24pairIK10KeyWrapperIN6il2cpp5utils13dynamic_arrayIPK10Il2CppTypeLj4EEEEPFvvEEESA_NS3_8metadata19Il2CppSignatureHashEN14dense_hash_mapISA_SD_SG_NSA_14EqualsComparerINSF_22Il2CppSignatureCompareEEENS0_9allocatorISE_EEE9SelectKeyESK_SM_E4swapERSP_
SXb:__ZN9ShaderLab20SerializedSubProgram14SetConstBufferEPKci
lig:_ArgumentNullException__ctor_m911049464
W8d:__ZN13PhysicsModule17SetRigidBodyStateER9RigidbodyRKN8IPhysics14RigidBodyStateE
wDk:_Check_Source_m3385315029
vQg:_Comparison_1_Invoke_m345024424_gshared
Ble:_cf2_getStdVW
xNg:_ReadOnlyCollection_1_System_Collections_IList_Insert_m3936197025_gshared
G_:__Z40DebugStringToFilePostprocessedStacktraceRK21DebugStringToFileData
qzd:__ZN5physx2Sq12BucketPruner11shiftOriginERKNS_6PxVec3E
ixc:__Z29Transfer_Blittable_ArrayFieldI8JSONReadjEvRT_R9ArrayInfoRK23StaticTransferFieldInfo
KUc:__ZN5physx6shdfnd5ArrayIPNS_2Sc16ArticulationCoreENS0_19ReflectionAllocatorIS4_EEE15growAndPushBackERKS4_
_ri:_Object_GetInstanceID_m1920497914
$9j:_InternalEnumerator_1_get_Current_m314017974_AdjustorThunk
Ug:__setLetterbox
MOd:__ZN5physx19normalizePartitionsERNS_6shdfnd5ArrayIjNS0_19ReflectionAllocatorIjEEEEPNS_23PxcSolverConstraintDescEPKNS_13PxcSolverBodyEjjS5_
Ktk:_TextGenerator_Populate_Internal_m1817393161
PCc:__ZN18ContactCapsuleMesh20processTriangleCacheILj16EEEbRN5physx2Gu13TriangleCacheIXT_EEE
Owb:__ZNSt3__26vectorI17BlendShapeChannelNS_9allocatorIS1_EEE6assignINS_11__wrap_iterIPS1_EEEENS_9enable_ifIXaasr21__is_forward_iteratorIT_EE5valuesr16is_constructibleIS1_NS_15iterator_traitsISA_E9referenceEEE5valueEvE4typeESA_SA_
H6e:_LayoutElement_set_preferredWidth_m3072758716
o6g:_AsnEncodedData_ToString_m724151831
$Ua:__ZN11TimeManager11GetRealtimeEv
rQc:__ZN5physx2Sc16InteractionScene25removeFromActiveActorListERNS0_5ActorE
kBe:__ZN20UnityWebRequestProtoI19TransportJavaScript16AtomicRefCounter14RedirectHelper14ResponseHelper15DownloadHandler13UploadHandler12HeaderHelper14AsyncOperationE26Job_ExecuteUnityWebRequestEPS8_
yN:__ZN29AudioEffectInternalDefinitionC2EP26UnityAudioEffectDefinitionb
udi:_MonoMethodInfo_GetDeclaringType_m4186531677
Dfh:_SoapTypeAttribute_SetReflectionObject_m1566293812
PMc:__ZN5physx3Ext21InertiaTensorComputer6rotateERKNS_7PxMat33E
iGk:_Enumerator_System_Collections_IEnumerator_Reset_m2573763156_AdjustorThunk
$gh:_RemotingServices_CreateClientProxy_m1631035355
Qyh:_UInt64_ToString_m2892887310
RNd:__ZN5physx22PxcDiscreteNarrowPhaseERNS_18PxcNpThreadContextERNS_13PxcNpWorkUnitE
ava:_stbir_resize
Ukl:__ZN15dense_hashtableINSt3__24pairIK10KeyWrapperIPK19Il2CppGenericMethodEP10MethodInfoEES6_N6il2cpp8metadata23Il2CppGenericMethodHashEN14dense_hash_mapIS6_S9_SD_NS6_14EqualsComparerINSC_26Il2CppGenericMethodCompareEEENS0_9allocatorISA_EEE9SelectKeyESH_SJ_EC2ERKSM_j
oJd:__ZN5physx23PxcPCMContactCapsuleBoxERKNS_2Gu13GeometryUnionES3_RKNS_11PxTransformES6_RKfRNS_10PxcNpCacheERNS0_13ContactBufferE
TPa:__Z37ReadDirectoryInfo_UnityWebAndUnityRawR12FileAccessorRKN20ArchiveStorageHeader6HeaderERNS1_13DirectoryInfoE
r0:__ZNSt3__26__treeINS_12__value_typeIPKciEENS_19__map_value_compareIS3_S4_15compare_tstringIS3_ELb1EEENS_9allocatorIS4_EEE7destroyEPNS_11__tree_nodeIS4_PvEE
Gsj:_Dictionary_2_ToTValue_m1381983709_gshared
t6f:_MulticastDelegate_KPM_m1592985119
Dqi:_MeshCollider_set_sharedMesh_m4192566451
IIg:_Collection_1_ConvertItem_m3941916604_gshared
OZa:__ZN20DynamicPropertySheet14SetValueQueuedEN9ShaderLab16FastPropertyNameEN19ShaderPropertySheet12PropertyTypeEjNS2_8SetFlagsE
Ise:__ZN2UI6Canvas26MarkAllNestedCanvasesDirtyEv
Ycl:__ZN6il2cpp2vm12ReboxIfBoxedEP14Il2CppIUnknownP11Il2CppClass
hMa:__ZN16GeometryJobTasks20ScheduleGeometryJobsER9GfxDevicePFvP15GeometryJobDataEPK22GeometryJobInstructionjb
cdb:__ZN25PathNamePersistentManagerD2Ev
i2:__ZN17PersistentManager48IntegrateObjectAndUnlockIntegrationMutexInternalEi
Vca:__ZZ29InitializeSortingGroupManagerPvEN44PostLateUpdateSortingGroupsUpdateRegistrator7ForwardEv
uq:__ZN6Object12SetHideFlagsENS_9HideFlagsE
p2d:__ZN9Rigidbody23VirtualRedirectTransferER14SafeBinaryRead
CHl:_emscripten_glGetFramebufferAttachmentParameteriv__wrapper
hVa:__ZN13RendererScene15InitializeUmbraEv
uNj:_AnimatorTransitionInfo_IsName_m2561957738_AdjustorThunk
Sta:__Z28CalculateGlobalMatrixInverse23TransformAccessReadOnly
suc:__ZN4PPtrI6ObjectE8TransferI9JSONWriteEEvRT_
zBi:__ZL60SecurityAttribute_t2016950496_CustomAttributesCacheGeneratorP21CustomAttributesCache
Ewb:__ZN13dynamic_arrayI12BoneWeights4Lj16EE18resize_initializedEjRKS0_12ResizePolicy
TTe:_PointerEventData_ToString_m1218584363
rqh:_UTF7Encoding_GetCharCount_m2589913583
Jgd:__ZNK5physx15PxsParticleData15getWorldBoundsVEv
F$d:__ZN15CapsuleCollider13AwakeFromLoadE17AwakeFromLoadMode
m3:__ZN13MonoBehaviour19ReleaseMonoInstanceEv
F0f:_MemoryStream_CalculateNewCapacity_m3533542025
LIc:__ZN12_GLOBAL__N_124HfTrianglesEntityReport27onEventEjPj
i_c:__ZNK5physx2Sc15ArticulationSim16createDriveCacheEfj
cuh:_TimeSpan_Equals_m4102942751_AdjustorThunk
snj:_ValueCollection_System_Collections_Generic_ICollectionU3CTValueU3E_Add_m1903672223_gshared
K1c:__ZN5physx17PxsContactManager16resetCachedStateEv
lBe:__ZN12HeaderHelper14SetUnvalidatedERKN4core12basic_stringIcNS0_20StringStorageDefaultIcEEEES6_b
TJ:__ZN4FMOD6SoundI7releaseEv
Gld:__ZN5physx20NpRigidActorTemplateINS_14PxRigidDynamicEE15setActorSimFlagEb
HQa:__ZN10MemoryFile9SetLengthEy
axh:_UInt16_ToString_m2038947049_AdjustorThunk
sLj:_AnimatorControllerPlayable_GetNextAnimatorClipInfoInternal_m1102604948
ZDb:__Z28scripting_class_is_interface17ScriptingClassPtr
hi:_glTexStorage2D
TJf:_Array_InternalArray__Insert_TisRaycastHit2D_t4063908774_m3174907903_gshared
GXb:__ZNK9ShaderLab10SubProgram14EnsureCompiledEv
FAh:__Z79RuntimeInvoker_Boolean_t3825574718_RuntimeObject_RuntimeObject_SByte_t454417549PFvvEPK10MethodInfoPvPS4_
vjh:_ObjectManager_RecordFixup_m3572285566
i5d:__ZN5physx7profile10DataBufferINS_6shdfnd6MutexTINS0_26WrapperReflectionAllocatorIhEEEENS0_14ScopedLockImplIS6_EEE17handleBufferFlushEPKhj
fkf:_SortedList_InitTable_m460350503
B3:__Z18BuildScriptClassId17ScriptingClassPtr
T6j:_InternalEnumerator_1_get_Current_m4279678504_AdjustorThunk
h3b:__ZN8Renderer28HandleParentHierarchyChangesEPK23TransformAccessReadOnlyj
Sea:__ZL31DeleteLastPathNameComponentImplRKN4core12basic_stringIcNS_20StringStorageDefaultIcEEEEPKc
e$b:__Z13RegisterClassI18DelayedCallManagerEvv
qye:__ZN18UnityConnectClient15GetCloudServiceEv
AKb:__Z18Transfer_BlittableI24GenerateTypeTreeTransferLb0EiEvRK29SerializationCommandArgumentsR31RuntimeSerializationCommandInfo
xRd:__ZN5physx20PxsConstraintProjectEPKNS_13PxsConstraintEbf
p9c:__ZN5physx7NpShape7setFlagENS_11PxShapeFlag4EnumEb
TDb:__ZL28SerializationCommandGroupForRK31TransferFunctionScriptingTraits17ScriptingClassPtr17ScriptingFieldPtrRK20CoreScriptingClasses
jib:__ZN10TagManager32RegisterDefaultTagsAndLayerMasksEv
kui:_PlayableHandle_SetDuration_m1990009798_AdjustorThunk
uNd:__ZN5physx2Sc35ParticleElementRbElementInteraction12onDeactivateEj
TTk:__ZN15dense_hashtableINSt3__24pairIK10KeyWrapperIPKcEP11Il2CppClassEES5_N6il2cpp5utils11StringUtils12StringHasherIS4_EEN14dense_hash_mapIS5_S8_SE_NS5_14EqualsComparerINSB_13VmStringUtils21CaseSensitiveComparerEEENS0_9allocatorIS9_EEE9SelectKeyESJ_SL_E15insert_noresizeERKS9_
_rh:_SynchronizationLockException__ctor_m549086841
_ef:_ArrayList_InsertRange_m1478230997
TEa:__ZN4gles8InitCapsEP7ApiGLESP12GraphicsCapsR16GfxDeviceLevelGL
Goa:__ZN6prcore14BlitImageFloatERK14ImageReferenceRS0_NS0_8BlitModeE
kwa:__Z24CalculateVertexLightDataRK15SharedLightDataR14GfxVertexLight
Jpi:_Matrix4x4_Equals_m1321236479_AdjustorThunk
Ri:_glEnable
Rra:__ZN15dense_hashtableINSt3__24pairIKiiEEi21InstanceIDHashFunctorN14dense_hash_mapIiiS4_NS0_8equal_toIiEE13stl_allocatorIS3_L18MemLabelIdentifier1ELi16EEE9SelectKeyES7_SA_E12maybe_shrinkEv
NXa:__ZNK25CameraStackRenderingState21GetImageEffectTextureEb
ukh:_RuntimeMethodHandle__ctor_m2437574937_AdjustorThunk
avd:__ZN5physx2Sq8AABBTreeC2Ev
ctc:__Z35Transfer_Blittable_FixedBufferFieldI9JSONWriteiEvRK29SerializationCommandArgumentsR31RuntimeSerializationCommandInfo
Bwh:_UInt16_System_IConvertible_ToInt64_m2835280558_AdjustorThunk
USi:__ZL53g_UnityEngine_Assembly_CustomAttributesCacheGeneratorP21CustomAttributesCache
kyk:_Predicate_1_BeginInvoke_m3926587117_gshared
BBb:__ZNSt3__26vectorI4PPtrI6ObjectE13stl_allocatorIS3_L18MemLabelIdentifier51ELi16EEE6assignINS_11__wrap_iterIPS3_EEEENS_9enable_ifIXaasr21__is_forward_iteratorIT_EE5valuesr16is_constructibleIS3_NS_15iterator_traitsISD_E9referenceEEE5valueEvE4typeESD_SD_
ny:__ZN26AnimatorControllerPlayable17ProcessRootMotionEP35AnimationPlayableEvaluationConstantP32AnimationPlayableEvaluationInputP33AnimationPlayableEvaluationOutput
Iqg:_List_1_get_Item_m1231764300_gshared
XAh:__Z94RuntimeInvoker_Boolean_t3825574718_Int32_t2071877448_SByte_t454417549_ExceptionU26_t1467204777PFvvEPK10MethodInfoPvPS4_
JZe:_DefaultControls_CreateToggle_m1568873127
qsj:_Dictionary_2_InitArrays_m2270022740_gshared
_we:__ZN11UnityEngine7Connect15DeviceInfoEvent16CollectExtraInfoEv
$ml:__ZN6il2cpp2os11Environment22SetEnvironmentVariableERKNSt3__212basic_stringIcNS2_11char_traitsIcEENS2_9allocatorIcEEEESA_
zUd:__ZN5physx2Gu10ConvexMeshD2Ev
Iph:_UnicodeEncoding_GetChars_m3765282346
AYf:_IntPtr__ctor_m4104029105
I4k:__ZN6il2cpp2gc19AppendOnlyGCHashMapIPK10Il2CppTypeP20Il2CppReflectionTypeNS_8metadata14Il2CppTypeHashENS7_26Il2CppTypeEqualityComparerEEC2Ev
lbk:_InternalEnumerator_1_System_Collections_IEnumerator_get_Current_m771161214_AdjustorThunk
r5f:_MonoType_get_attributes_m1493788675
hsl:__ZN6il2cpp6icalls8mscorlib6System10Reflection9FieldInfo25internal_from_handle_typeE12Il2CppIntPtrS5_
fof:_Convert_ToDouble_m4236754739
Z_e:_Dropdown_CreateItem_m2702141380
VCi:__ZL48Stack_t1043988394_CustomAttributesCacheGeneratorP21CustomAttributesCache
Dp:FUNCTION_TABLE_viifi
Gp:FUNCTION_TABLE_viiff
ET:__Z75AudioPlayableGraphExtensions_CUSTOM_INTERNAL_CALL_InternalCreateAudioOutputR14HPlayableGraphP12Il2CppStringP15HPlayableOutput
COc:__ZNK5physx2Sc8ShapeSim10getBodySimEv
Fdi:_MonoEvent_GetAddMethod_m4289563120
$Ai:__ZL37Type_t_CustomAttributesCacheGeneratorP21CustomAttributesCache
ppe:_UNITY_tt_face_free_hdmx
z_k:__ZN6il2cpp2vm14TypeNameParser5ParseEb
dzj:_ReflectionMethodsCache__ctor_m1835220
P2c:__ZN5physx6shdfnd5ArrayIPvNS0_19ReflectionAllocatorINS_2Cm5BlockIhLj128EEEEEE15growAndPushBackERKS2_
wAe:__ZN23UnityPurchasingSettingsC2Ev
twf:_Double_ToString_m1864290157
uyb:__ZNK9Transform13GetWorldScaleEv
X9c:__ZN5physx14NpShapeManager15setupSceneQueryERNS_2Sq17SceneQueryManagerERKNS_12PxRigidActorERKNS_7NpShapeE
gva:__ZL37stbir__resample_horizontal_downsampleP11stbir__infoiPf
nsa:__ZNK5Unity9Component38MarkGameObjectAndComponentDependenciesER27GarbageCollectorThreadState
_Mj:_Animator_get_hasBoundPlayables_m3670407842
V_:__ZL16OutOfMemoryErrorjj18MemLabelIdentifieriPKc
AWc:__ZNK5physx2Sc9ClothCore23getExternalAccelerationEv
Cgf:_SynchronizedArrayListWrapper_Contains_m2259439339
a4:__ZNK11TypeManager15ClassNameToRTTIEPKcb
yGc:__ZN5physx2Gu13coarseCullingERKNS_6PxVec3ES3_ffRKNS_10PxTriangleE
QRb:__Z18Transfer_BlittableI18StreamedBinaryReadILb0EELb1EdEvRK29SerializationCommandArgumentsR31RuntimeSerializationCommandInfo
wUf:_Guid__ctor_m2599802704
e$f:_FileStream_get_CanRead_m4148920720
WNd:__ZN5physx2Sc5Scene29processNarrowPhaseTouchEventsEv
wHa:__ZN4crnd12symbol_codec32decode_receive_static_data_modelERNS_25static_huffman_data_modelE
F0b:__ZN18ScriptingArguments8AddFloatEf
RSf:_GregorianCalendar_set_CalendarType_m2438362222
gBf:_Array_InternalArray__ICollection_Contains_TisVector2_t2243707579_m3625698589_gshared
DYc:__ZN5physx6shdfnd5ArrayIPvNS0_15InlineAllocatorILj256ENS0_19ReflectionAllocatorINS_18NpArticulationLinkEEEEEE15growAndPushBackERKS2_
Wtc:__Z18Transfer_BlittableI9JSONWriteLb0EaEvRK29SerializationCommandArgumentsR31RuntimeSerializationCommandInfo
XU:__ZN11UnityEngine15CloudWebService14DataDispatcher34OnSessionContainerArchivedAndReadyERNS0_16SessionContainerE
ATf:_NumberFormatInfo_GetFormat_m3247563525
YLc:__ZNK5physx3Cct15ObstacleContext11getObstacleEj
XVg:_CipherSuiteCollection__ctor_m2154226461
IMb:__Z18Transfer_BlittableI19StreamedBinaryWriteILb0EELb0E8Vector3fEvRK29SerializationCommandArgumentsR31RuntimeSerializationCommandInfo
$hi:_RectOffset__ctor_m2227510254
RTb:__ZN14SafeBinaryRead19TransferSTLStyleMapINSt3__23mapIN4core12basic_stringIcNS3_20StringStorageDefaultIcEEEEiNS1_4lessIS7_EENS1_9allocatorINS1_4pairIKS7_iEEEEEEEEvRT_17TransferMetaFlags
Yge:_gray_move_to
bnh:_DSAParameters_t1872138834_marshal_pinvoke
b2j:_ConstructionCall_InitDictionary_m4046452035
D3k:__ZN6il2cpp2vm10Reflection14GetEventObjectEP11Il2CppClassPK9EventInfo
oXg:_TlsStream_Write_m2271546135
Ebc:__Z30RegisterValidateMethodCallbackiPF18ScriptingMethodPtrS_17ScriptingClassPtrP6ObjectEPKc
qzf:_CultureInfo_ConstructInternalLocaleFromCurrentLocale_m1342751405
Noh:_Latin1Encoding_GetString_m3553289597
Ayd:__ZN5physx13IslandManager6resizeEj
uie:_tt_cmap_init
Ta:invoke_viidi
tfl:__ZN15dense_hashtableI10KeyWrapperIP18Il2CppGenericClassES3_N6il2cpp8metadata22Il2CppGenericClassHashEN14dense_hash_setIS3_S6_NS3_14EqualsComparerINS5_25Il2CppGenericClassCompareEEENSt3__29allocatorIS3_EEE8IdentityESA_SD_E12maybe_shrinkEv
j0b:__ZN9TextAssetC2E18MemLabelIdentifier18ObjectCreationMode
vTc:__ZN5physx6shdfnd8PoolBaseINS_2Cm5BlockIPvLj16EEENS0_19ReflectionAllocatorIS5_EEE17releaseEmptySlabsEv
hWj:_Display_RecreateDisplayList_m3412638488
xNl:_emscripten_glCheckFramebufferStatus__wrapper
l8k:__ZNK15dense_hashtableINSt3__24pairIK10KeyWrapperIP11Il2CppClassES4_EES5_N6il2cpp8metadata16SZArrayClassHashEN14dense_hash_mapIS5_S4_SA_NS5_14EqualsComparerINS9_19SZArrayClassCompareEEENS0_9allocatorIS7_EEE9SelectKeyESE_SG_E12test_deletedEj
IMc:__ZL20updateMassAndInertiabRN5physx11PxRigidBodyEPKfjPKNS_6PxVec3Eb
Cwc:__Z18Transfer_BlittableI8JSONReadLb0EdEvRK29SerializationCommandArgumentsR31RuntimeSerializationCommandInfo
s5d:__ZN5physx24NpPtrTableStorageManagerC2Ev
KYh:__Z83RuntimeInvoker_Boolean_t3825574718_NavigationU26_t3929175072_Navigation_t1571958496PFvvEPK10MethodInfoPvPS4_
mwe:__Z44Register_UnityEngine_Canvas_set_sortingOrderv
ssh:_Thread_ClrState_m822263449
g9f:_SimpleCollator_LastIndexOfOrdinalIgnoreCase_m550798345
IVk:__ZN6il2cpp2vm21ThreadPoolCompartment13QueueWorkItemEP17Il2CppAsyncResult
qAa:__ZNK9GfxDevice13GetViewMatrixEv
rrd:__ZN5physx7NpScene15flushSimulationEb
j8c:__ZN5physx6shdfnd8PoolBaseINS_10NpMaterialENS0_19ReflectionAllocatorIS2_EEE12allocateSlabEv
X4:__ZN8TypeTree8BlobReadERPKhS1_ib
dYd:__ZN5physx18ReducedVertexCloudC2EPKNS_6PxVec3Ej
Lpj:_Dictionary_2_System_Collections_Generic_ICollectionU3CSystem_Collections_Generic_KeyValuePairU3CTKeyU2CTValueU3EU3E_Remove_m3080541539_gshared
Ksa:__ZN18LoadSceneOperation23GetAllowSceneActivationEv
gjb:__ZN6CameraD0Ev
Hag:_ModulusRing_Multiply_m386339435
aba:__ZN31CanvasBatchIntermediateRenderer16StaticInitializeEPv
p1e:_GraphicRaycaster_U3CRaycastU3Em__0_m3971200721
RLg:_ReadOnlyCollection_1_System_Collections_IList_RemoveAt_m3004588099_gshared
zx:__ZN7mecanim12AndValueMaskILb0EEEvPKNS_14ValueArrayMaskEPS1_
Nnf:_Decimal_op_Implicit_m4246329390
nig:_ArgumentNullException__ctor_m2252076819
O8a:__ZN10GameObjectC2E18MemLabelIdentifier18ObjectCreationMode
_fe:_raccess_guess_apple_double
E2g:_ListDictionary_GetEnumerator_m1511032609
Tih:_SerializationInfo__ctor_m4016423422
sIa:__ZL18ProgramUniform1uivPK7ApiGLESjiihPKv
O2b:__ZN14Texture2DArray13RebuildMipMapEv
NPk:__ZN13Il2CppHashSetIPK17Il2CppGenericInstN6il2cpp8metadata21Il2CppGenericInstHashENS4_24Il2CppGenericInstCompareENSt3__29allocatorI10KeyWrapperIS2_EEEEC2EjRKS5_RKS6_
GGb:__Z18Transfer_BlittableI14SafeBinaryReadLb1EaEvRK29SerializationCommandArgumentsR31RuntimeSerializationCommandInfo
dkl:__ZN6il2cpp2gc16GarbageCollector14RemoveWeakLinkEPPv
TXb:__ZN9ShaderLab20SerializedSubProgram14AddVectorParamEPKcii15ShaderParamTypei
yOg:_ReadOnlyCollection_1_System_Collections_IEnumerable_GetEnumerator_m1734360860_gshared
KYj:_ResourceSet_ReadResources_m1669023823
wgg:_PKCS12_RemoveCertificate_m1590055870
Z8k:__ZN6il2cpp2vm6Thread7SetNameEP12Il2CppThreadP12Il2CppString
b_i:__ZL107Collision_t2876846408_CustomAttributesCacheGenerator_Collision_t2876846408____frictionForceSum_PropertyInfoP21CustomAttributesCache
cga:__ZN13ScreenManager18SetAllowCursorLockEb
pW:__ZN11UnityEngine15CloudWebService10RestClientINS0_23WebRequestRestHeaderMapEE16SetRequestHeaderERKN4core12basic_stringIcNS4_20StringStorageDefaultIcEEEESA_
rCb:__ZN30RuntimeInitializeOnLoadManager15ClassMethodInfo8TransferI14SafeBinaryReadEEvRT_
fgj:__ZL73CanvasScaler_t2574720772_CustomAttributesCacheGenerator_m_ScreenMatchModeP21CustomAttributesCache
PS:__ZL22InitializeModule_Audiov
dzd:__ZN5physx2Sq11PruningPoolD0Ev
_db:__ZN16MemoryFileSystem8IsLockedERK13FileEntryData
XGd:__ZN3MBP15removeBoxPrunerEj
Tvk:_Vector2_get_Item_m2792130561_AdjustorThunk
mdi:_MonoCMethod_Invoke_m931478014
vCh:__Z86RuntimeInvoker_Int32_t2071877448_Int16_t4041245914_Int32_t2071877448_Int32_t2071877448PFvvEPK10MethodInfoPvPS4_
RYj:_SatelliteContractVersionAttribute__ctor_m2605651717
zl:_emscripten_glBindRenderbuffer
Spc:__Z32GUIStyle_Set_Custom_PropClippingP12Il2CppObjecti
mql:_GC_dirty_init
d9e:_Array_Copy_m1969461849
lih:_MessageFormatter_ReadMethodResponse_m4134629501
Sgl:__ZN6il2cpp2vm5Field14GetValueObjectEP9FieldInfoP12Il2CppObject
Kte:__ZNK2UI6Canvas16GetTargetDisplayEv
Bxf:_Environment_get_OSVersion_m1247315981
YDc:__ZL15SweepBoxCapsulePKN5physx3Cct9SweepTestEPKNS0_11SweptVolumeEPKNS0_11TouchedGeomERKNS_14PxExtendedVec3ERKNS_6PxVec3ERNS0_12SweptContactE
L8:__ZN6Object17FindObjectsOfTypeEPKN5Unity4TypeER13dynamic_arrayIPS_Lj4EEb
qDb:__ZN13MonoBehaviour17RemoveFromManagerEv
BSd:__ZN5physx2Sc19ParticlePacketShapeD2Ev
Rtb:__ZL11DecodeValuePPKcS0_
dlj:_ShimEnumerator_MoveNext_m2013866013_gshared
HZ:__ZN13MemoryManagerC2Ev
pLa:__ZN12SkinMeshInfo10DeallocateEPS_
fvk:_Transform_SetParent_m1963830867
USa:__ZN20ArchiveStorageReader28AcquireAndPrefillUnusedBlockEjPNS_11CacheResultE
H2b:__Z12NHxRoughnessIA4_tEvP9Texture2DPT_iiii
k9:__ZN18AsyncUploadManagerD2Ev
HZb:__ZN9Transform5ResetEv
tMb:__Z22TransferField_NonArrayI24GenerateTypeTreeTransfer16Converter_StringEvRK23StaticTransferFieldInfoR31RuntimeSerializationCommandInfoRT0_
lie:_UNITY_FT_CMap_New
Ufa:__Z17MainLoopKeepalivePv
mWc:__ZN5physx7NpScene16addActorInternalERNS_7PxActorE
Sgk:_MatchCollection__ctor_m1944681790
yDe:_HMACSHA512__ctor_m1667460019
K5a:__Z24ScheduleCullingAllGroupsR8JobFenceRK22SceneCullingParameters4PPtrI6CameraERK13CullingOutputRK13dynamic_arrayIP12CullingGroupLj4EERKS_
wxl:_printf_core
W4a:__Z14CalcHullBoundsPK8Vector3fPKhhRK5PlaneRK10Matrix4x4fR10MinMaxAABB
lgh:_RealProxy__ctor_m2147093603
fQ:__ZNK14SoundHandleAPI12GetFrequencyEv
JZa:__Z19SetupLODFadeKeywordR17ShaderPassContexti
Zhe:_UNITY_FT_Stream_ReadFields
GSf:_DateTimeFormatInfo_GetAllDateTimePatternsInternal_m1587126173
Sol:_GC_set_fl_marks
KKa:__ZL25CheckCopyTextureArgumentsRK7ApiGLESP11GLESTextureS3_
d9:__ZN13dynamic_arrayI26EnlightenSystemInformationLj8EE6insertEPS0_PKS0_S4_
Rhe:_tt_name_entry_ascii_from_utf16
v6f:_MulticastNotSupportedException__ctor_m2164514827
Iqf:_DateTime_System_IConvertible_ToChar_m2489529194_AdjustorThunk
YLb:__Z29Transfer_Blittable_ArrayFieldI24GenerateTypeTreeTransferyEvRT_R9ArrayInfoRK23StaticTransferFieldInfo
QM:__ZN4FMOD7SystemI9playSoundE17FMOD_CHANNELINDEXPNS_5SoundEbPPNS_7ChannelE
V8d:__ZN13PhysicsModule31GetColliderComponentsInChildrenERK10GameObjectbbR13dynamic_arrayIPN5Unity9ComponentELj4EE
kZ:__GLOBAL__sub_I_runtime_graphics_mesh2_lump_cpp
Jbd:__ZNK5physx7NpCloth16getStretchConfigENS_22PxClothFabricPhaseType4EnumE
yx:__ZN27AnimationLayerMixerPlayable17LayerMixerProcessEP35AnimationPlayableEvaluationConstantP32AnimationPlayableEvaluationInputP33AnimationPlayableEvaluationOutputM17AnimationPlayableFvS1_S3_S5_EMS_FvS1_S3_S5_ESA_MS_FvS5_S1_S3_S5_ifE
w_k:__ZN6il2cpp2os4File4ReadEPNS0_10FileHandleEPciPi
sL:__ZN12AudioManager23VirtualRedirectTransferER18StreamedBinaryReadILb0EE
Rzl:_realloc
Vlc:__Z57Register_UnityEngine_Transform_INTERNAL_get_localRotationv
Uuh:_Type_get_IsInterface_m3583817465
iEl:dynCall_viif
Ydi:_MonoField_get_DeclaringType_m1591666235
Uch:_Enumerator_MoveNext_m4234629003
Cme:_cf2_hint_lock
uRd:__ZN5physx2Sc24ConstraintProjectionTree11projectPoseERNS0_19ConstraintGroupNodeE
MJb:__ZL26Transfer_SimpleNativeClassI17RemapPPtrTransfer8GradientLb0EEvRK29SerializationCommandArgumentsR31RuntimeSerializationCommandInfo
b9d:__ZN13PhysicsModule29GetColliderMaterialInstanceIDER8Collider
s5f:_MonoType_GetDefaultConstructor_m925465120
ZW:__ZN13UploadHandlerD2Ev
jCl:dynCall_viiiiiffi
fd:_emscripten_glBlendFuncSeparate
t1:__Z20scripting_string_newPKc
okc:__Z43Material_CUSTOM_Internal_CreateWithMaterialP12Il2CppObjectS0_
$Zf:_Directory_GetCurrentDirectory_m44486537
xzg:_Collection_1_System_Collections_ICollection_CopyTo_m1047946700_gshared
v6g:_AsnEncodedData_Default_m4197142414
vVd:__ZThn8_N5physx2Gu11HeightFieldD1Ev
r_c:__ZNK5physx19PxArticulationJoint19getConcreteTypeNameEv
HC:__ZNSt3__26__sortIRPFbPKN8Animator11AnimatorJobES4_EPS4_EEvT0_S9_T_
IK:__ZN17AudioCustomFilterD2Ev
YI:__Z91Register_UnityEngine_Animations_AnimatorControllerPlayable_INTERNAL_CALL_ResetTriggerStringv
voc:__ZNK8GUIStyle13GetLineHeightEv
UJa:__ZN18GfxFramebufferGLES18ReleaseFramebufferEP17RenderSurfaceBaseP14GfxContextGLES
k0j:_Context_GetDynamicPropertyCollection_m1987747444
I7g:_X509Certificate2_get_Version_m1927399907
o5b:__ZN13ProduceHelperI6CameraLb0EE7ProduceE18MemLabelIdentifier18ObjectCreationMode
X2e:_Image_RadialCut_m3229543088
vY:__ZN19CloudServiceHandler34HandleSaveFileWebRequestPlayerLoopEv
Py:__ZN7mecanim21ValueArrayReverseCopyEPKNS_18ValueArrayConstantEPKNS_10ValueArrayES2_PS3_PKi
tK:__Z31GetParentSampleClipFromInstancePN11SoundHandle8InstanceE
M0b:__ZNK28RectTransformPropertyBinding13GetFloatValueERKN11UnityEngine9Animation10BoundCurveE
M7a:__ZN6Camera22StandaloneCustomRenderENS_10RenderFlagEP6ShaderRKN4core12basic_stringIcNS3_20StringStorageDefaultIcEEEEPNS_21PerformRenderFunctionE
_md:__ZL22addOrRemoveRigidObjectILb0ELb0ELb0ELb1EN5physx3Scb11RigidStaticEEvRNS0_2Sc5SceneERT3_b
$ul:__ZN6il2cpp2os16ThreadLocalValue8GetValueEPPv
_Tk:__ZN6il2cpp2vm13MetadataCache14GetGenericInstEPKPK10Il2CppTypej
bHe:_SHA384Managed_Initialize_m712692291
M_j:_ChannelInfo__ctor_m2502026239
Hd:_glUniform1uiv
lmc:__Z52Object_CUSTOM_GetOffsetOfInstanceIDInCPlusPlusObjectv
HTc:__ZN5physx6shdfnd4sortIPvNS0_4LessIS2_EENS0_19ReflectionAllocatorINS_2Cm5BlockIS2_Lj8EEEEEEEvPT_jRKT0_RKT1_j
S7c:__ZNK5physx9NpPhysics11getNbShapesEv
nq:setThrew
z2b:__ZL21BuildEmptyCubeTexturePKci11ColorRGBA3217TextureColorSpace
UTb:__ZN14SafeBinaryRead21TransferSTLStyleArrayINSt3__26vectorIN9ShaderLab20SerializedSubProgramENS1_9allocatorIS4_EEEEEEvRT_17TransferMetaFlags
Jvc:__Z15Transfer_StringI8JSONReadLb1EEvRK29SerializationCommandArgumentsR31RuntimeSerializationCommandInfo
aqa:__ZN6prcoreL17RemapGenericFloatI17TexFormatRGBFloat15TexFormatRGHalfEEvPKNS_9InnerInfoE
$_a:__Z25DoForwardShaderRenderLoopR17RenderLoopContextR13dynamic_arrayI16RenderObjectDataLj4EERK11CullResultsbbbN6Camera10RenderFlagE
ZPf:_GameObject_GetComponent_TisRuntimeObject_m2812611596_gshared
phe:_sfnt_load_face
zde:_UNITY_FT_Render_Glyph_Internal
Hqh:_UTF8Encoding_GetByteCount_m2372933408
h0j:_Context_get_NeedsContextSink_m1907794755
ghe:_UNITY_ft_service_list_lookup
KSg:_ARC4Managed_GenerateKey_m716135508
_nc:__ZN5IMGUI21SelectReceivingWindowER8GUIStateb
QCc:__ZN5physx2Gu20intersectTriangleBoxERKNS_6PxVec3ES3_S3_S3_S3_
bG:__ZNK26AnimatorControllerPlayable17ValidateGoToStateERiS0_
N6c:__ZN5physx10NpMaterial8setFlagsENS_7PxFlagsINS_14PxMaterialFlag4EnumEtEE
qfb:__ZN13BaseAllocator13TryDeallocateEPv
P8e:_Array_CreateInstance_m1054139389
_ji:_GUIStyleState_GetGUIStyleState_m2816150617
Qjb:__ZNSt3__26vectorIN12FlareManager10FlareEntryENS_9allocatorIS2_EEE21__push_back_slow_pathIKS2_EEvRT_
y5h:_Default_check_arguments_with_score_m1714931543
yCe:_SHA1_Create_m4086509717
Hei:_MonoMethodInfo_GetMethodInfo_m3298558752
dL:__ZN13AudioListener17RemoveFromManagerEv
ae:_glAttachShader
b$e:_Dropdown_SetAlpha_m2769981009
M3d:__ZN5physx6shdfnd8internal8HashBaseINS0_4PairIKtPKcEEtNS0_4HashItEENS1_11HashMapBaseItS6_S9_NS_7profile26WrapperReflectionAllocatorIS6_EEE6GetKeyESD_Lb1EE6createERS4_Rb
DYa:__ZNK6Camera19GetProjectionMatrixEv
Oxk:_Predicate_1_BeginInvoke_m1856151290_gshared
ksd:__ZNK5physx7NpScene24getWakeCounterResetValueEv
tvf:_StackTrace__ctor_m2404985356
CJd:__ZN5physx2Gu32PCMConvexVsMeshContactGeneration20generateLastContactsEv
j3:__Z38PreallocateObjectFromPersistentManagerib
Wqf:_DateTime_System_IConvertible_ToSingle_m3927769066
X6c:__ZThn12_N5physx10NpMaterialD0Ev
mZ:__GLOBAL__sub_I_runtime_interfaces_lump_cpp
Xpb:__ZNK9Texture2D20GetUnscaledTextureIDEv
eZd:__ZN5physx6shdfnd4sortIjNS_19SortBoundsPredicateENS0_19ReflectionAllocatorIjEEEEvPT_jRKT0_RKT1_j
pKl:_glFenceSync__wrapper
k6f:_MonoType_get_ContainsGenericParameters_m3229732653
$I:__Z103Register_UnityEngine_Animations_AnimatorControllerPlayable_INTERNAL_CALL_IsParameterControlledByCurveIDv
v9c:__ZN5physx7NpShape14onRefCountZeroEv
Oyg:_Queue_1_Peek_m1463479953_gshared
qGf:_Array_InternalArray__IndexOf_TisContactPoint_t1376425630_m3651364246_gshared
Edj:__ZL53InputField_t1631627530_CustomAttributesCacheGeneratorP21CustomAttributesCache
DYd:__ZL15TestContainmentRKN5physx6PxVec3EPKfjPKNS_2Gu15HullPolygonDataE
CWe:_ButtonClickedEvent__ctor_m938038541
GSb:__ZN18StreamedBinaryReadILb0EE21TransferSTLStyleArrayI13dynamic_arrayI4AABBLj4EEEEvRT_17TransferMetaFlags
BJh:__Z119RuntimeInvoker_Int32_t2071877448_RuntimeObject_Int32_t2071877448_Int32_t2071877448_CharU26_t1894467670_SByte_t454417549PFvvEPK10MethodInfoPvPS4_
vwh:_UInt16_System_IConvertible_ToDouble_m4100549304_AdjustorThunk
mta:__Z29ClearRepeatingLogMessageStatev
EVd:__ZN5physx2Gu11HeightField12loadFromDescERKNS_17PxHeightFieldDescEb
HLe:_Single_System_IConvertible_ToInt16_m962677079
z8:__ZN21EnlightenSceneMappingaSERKS_
rvl:__ZNK6il2cpp8metadata21Il2CppGenericInstHashclEPK17Il2CppGenericInst
VLe:_Single_System_IConvertible_ToUInt32_m2447833283
JOa:__ZN7ApiGLESD2Ev
x9a:__ZN9Transform47ClearTransformHierarchyAndApplyToSerializedDataEv
n9j:_InternalEnumerator_1_get_Current_m4083613828_AdjustorThunk
qpd:__ZN5physx6shdfnd8PoolBaseINS_2Gu30LargePersistentContactManifoldENS0_19ReflectionAllocatorIS3_EEE12allocateSlabEv
KQj:_Bounds_op_Equality_m2161830280
idb:__ZN17PersistentManager9AddStreamEv
FEl:dynCall_fidi
I0k:__ZN15dense_hashtableINSt3__24pairIK10KeyWrapperINS1_IPK9FieldInfoP11Il2CppClassEEEjEES9_17ReflectionMapHashIS8_EN14dense_hash_mapIS9_jSD_NS9_14EqualsComparerINS0_8equal_toIS8_EEEENS0_9allocatorISB_EEE9SelectKeyESI_SK_E12resize_deltaEjj
Rqc:__Z47Register_UnityEngine_GUIStyle_set_imagePositionv
GNd:__ZN5physx20getVertexEdgeIndicesERKNS_2Gu11HeightFieldEjjjPNS_8EdgeDataE
sqc:__Z49GUIStyle_CUSTOM_INTERNAL_CALL_Internal_DrawCursor13Il2Cpp_IntPtrRK5RectTIfEP12Il2CppObjectiRK10ColorRGBAf
wud:__ZN5physx6shdfnd5ArrayIPNS_2Sc8BodyCoreENS0_19ReflectionAllocatorIS4_EEE6resizeEjRKS4_
Uwi:_RectTransform_set_anchorMin_m4247668187
mLc:__ZN5physx3Cct26CharacterControllerManager16createControllerERNS_9PxPhysicsEPNS_7PxSceneERKNS_16PxControllerDescE
zbc:__ZNK13MonoBehaviour13GetScriptTypeEv
Wha:__ZN13RenderTexture12SetDimensionE16TextureDimension
yrk:_ScriptableObject_CreateInstance_m3921674852
Se:_SDL_FreeRW
Dxd:__ZN5physx6shdfnd8PoolBaseINS_2Cm5BlockIhLj128EEENS0_19ReflectionAllocatorIS4_EEE15disposeElementsEv
DGe:_SHA1Internal_FillBuff_m891541953
bve:__Z34CanvasRenderer_Get_Custom_PropCullP12Il2CppObject
Hhd:__ZN5physx3Scb14ParticleSystem14setRestOffsetsEjRKNS_16PxStrideIteratorIKjEERKNS2_IKfEE
Z0d:__ZN12MeshCollider11CreateShapeEPvPK9RigidbodyRK8Vector3f
EP:__ZN20SoundChannelInstance8getDelayE14FMOD_DELAYTYPEPjS1_
a4e:_InputField_set_customCaretColor_m3534590098
aBj:_ScrollRect_set_viewport_m323693490
YRf:_NumberFormatter_FormatExponential_m3975285307
oce:__ZNSt3__26vectorIN20TextRenderingPrivate8FontImpl13CharacterInfoE13stl_allocatorIS3_L18MemLabelIdentifier1ELi16EEE8__appendEj
v:tempBigInt
_e:_emscripten_glVertexAttrib1fv
yUb:__ZNSt3__26vectorIN9ShaderLab20SerializedSubProgram12UAVParameterENS_9allocatorIS3_EEE7reserveEj
rPf:_Array_InternalArray__get_Item_TisTypeTag_t141209596_m1747911007_gshared
oGj:_AnimationCurve_Init_m1486386337
zUj:_Component_GetComponents_m3712441745
ktd:__ZN5physx13NpVolumeCacheC2EPNS_2Sq17SceneQueryManagerEjj
DUc:__ZThn24_N5physx2Sc20ArticulationJointSimD1Ev
IMi:__ZL99Thread_t241561612_CustomAttributesCacheGenerator_Thread_t241561612____ExecutionContext_PropertyInfoP21CustomAttributesCache
wAk:_UnityAction_4_Invoke_m3312096275_gshared
Ihd:__ZN5physx2Sc18ParticleSystemCore14setRestOffsetsEjRKNS_16PxStrideIteratorIKjEERKNS2_IKfEE
fDc:__ZN5physx2Gu16testPolyDataAxisERKNS0_8CapsuleVERKNS0_13PolygonalDataEPNS0_12SupportLocalERKNS_6shdfnd3aos6FloatVERSB_RNSA_5Vec3VE
kqk:_RectTransformUtility_ScreenPointToRay_m1842507230
_6a:__ZN16ReflectionProbes16UpdateSampleDataEv
uXc:__ZN5physx2Sc17ParticleSystemSimD0Ev
mij:_Enumerator_VerifyState_m2118679243_gshared
uFb:__ZN14SafeBinaryRead21TransferSTLStyleArrayI10vector_setI4PPtrI10MonoScriptENSt3__24lessIS4_EE13stl_allocatorIS4_L18MemLabelIdentifier76ELi16EEEEEvRT_17TransferMetaFlags
d_j:_SafeHandle_Finalize_m1839546519
oxc:__ZN8JSONRead21TransferSTLStyleArrayINSt3__26vectorI10RectOffset13stl_allocatorIS3_L18MemLabelIdentifier1ELi16EEEEEEvRT_S5_17TransferMetaFlags
S0j:_Context_AllocateNamedDataSlot_m3200404053
ywa:__ZN14BatchAllocator6CommitE18MemLabelIdentifier
G6g:_X509EnhancedKeyUsageExtension_Decode_m3866320499
URf:_NumberFormatter_AppendIntegerStringWithGroupSeparator_m1401773574
wf:_JS_Sound_Play
k3e:_Image_IsRaycastLocationValid_m864962354
KFh:__Z181RuntimeInvoker_Void_t1841601450_RuntimeObject_Int32_t2071877448_Int32_t2071877448_RuntimeObject_Int32_t2071877448_Int32_t2071877448_RuntimeObject_Int32_t2071877448_Int32_t2071877448PFvvEPK10MethodInfoPvPS4_
vTb:__ZN9ShaderLab16SerializedShader8TransferI14SafeBinaryReadEEvRT_
$B:__ZN7mecanim8skeleton13SkeletonAlignEPKNS0_8SkeletonERKN4math7_float4ES7_i
s3b:__ZN19ShaderPropertySheet16SetVectorIndexedEN9ShaderLab16FastPropertyNameEifRK8Vector4fNS_8SetFlagsE
Gr:__ZN14SafeBinaryRead21TransferSTLStyleArrayIN4core12basic_stringIcNS1_20StringStorageDefaultIcEEEEEEvRT_17TransferMetaFlags
Hgh:_RemotingConfiguration_RegisterWellKnownServiceType_m2491506630
sHi:__ZL55_TypeBuilder_t2783404358_CustomAttributesCacheGeneratorP21CustomAttributesCache
t7e:_LayoutRebuilder_Initialize_m2671585490
Prg:_List_1_System_Collections_IList_IndexOf_m4061554721_gshared
cY:__ZN11UnityEngine15CloudWebService14DataDispatcher4StopEv
LHj:_AnimationLayerMixerPlayable_SetLayerAdditive_m4206337590_AdjustorThunk
AUb:__ZNSt3__26vectorIN9ShaderLab20SerializedSubProgram12UAVParameterENS_9allocatorIS3_EEE8__appendEj
LIe:_X509Certificate_ToString_m1582581274
Vmj:_Enumerator_get_Current_m2986380627_gshared
Gka:__ZN17ScriptingGCHandle7AcquireE18ScriptingObjectPtr25ScriptingGCHandleWeakness
T$j:_LifetimeServices_set_LeaseTime_m1487876644
K6h:_ConstructorBuilder_not_supported_m3687319507
eqe:__ZN13ProduceHelperIN20TextRenderingPrivate8TextMeshELb0EE7ProduceE18MemLabelIdentifier18ObjectCreationMode
C1c:__ZN5physx12NpConstraint8comShiftEPNS_12PxRigidActorE
MLe:_Single_System_IConvertible_ToInt64_m3555853323_AdjustorThunk
hDl:dynCall_iifiii
Sua:__Z21HasAlphaTextureFormat13TextureFormat
cS:__ZN12AudioManager6UpdateEv
Nua:__ZN14ImageReference9BlitImageERKS_NS_8BlitModeE
At:__ZN8Animator12AddToManagerEv
fCc:__ZNK5physx2Gu16SupportLocalImplINS0_11ConvexHullVEE9doSupportERKNS_6shdfnd3aos5Vec3VERNS5_6FloatVESA_
mEb:__ZN23CachedSerializationDataD2Ev
E6a:__ZNK25CameraStackRenderingState31CalculateStereoCameraTargetTypeEv
Lnb:__ZN14RenderSettings23VirtualRedirectTransferER14SafeBinaryRead
cjl:__ZN6il2cpp2os10ThreadImpl15CurrentThreadIdEv
VAf:_Array_InternalArray__ICollection_Contains_TisColor32_t874517518_m2818328910_gshared
upe:_UNITY_tt_face_load_fpgm
Zyb:__ZN12InputManagerD0Ev
ktl:__ZN6il2cpp6icalls8mscorlib6System11Diagnostics10StackTrace9get_traceEP15Il2CppExceptionib
vZe:_DefaultControls_CreateUIObject_m2810394112
Lli:_GUIStyle_get_overflow_m1125058093
lua:__ZNK16LightmapSettings14GetLightProbesEv
Cph:_UnicodeEncoding_GetBytes_m1337660232
_1c:__ZN5physx2Sc9RigidCore20removeShapeFromSceneERNS0_9ShapeCoreEb
mRb:__Z18Transfer_BlittableI18StreamedBinaryReadILb0EELb1EtEvRK29SerializationCommandArgumentsR31RuntimeSerializationCommandInfo
Wzl:_posix_memalign
I3b:__ZN13ProduceHelperI12MeshRendererLb0EE7ProduceE18MemLabelIdentifier18ObjectCreationMode
$Yd:__ZN5physx11RTreeCooker18buildFromTrianglesERNS_2Gu5RTreeEPKNS_6PxVec3EjPKtPKjjRNS_6shdfnd5ArrayIjNSB_19ReflectionAllocatorIjEEEEPNS0_13RemapCallbackEfNS_17PxMeshCookingHint4EnumE
jYc:__ZN5physx6shdfnd5ArrayIPvNS0_15InlineAllocatorILj256ENS0_19ReflectionAllocatorINS_14NpArticulationEEEEEE15growAndPushBackERKS2_
xek:_InternalEnumerator_1_get_Current_m747506907_AdjustorThunk
gRj:_Camera_get_eventMask_m4241372419
o4:__ZNK15MonoScriptCache7ReleaseEv
COk:__ZN6il2cpp2vm5Class13HasReferencesEP11Il2CppClass
gLd:__ZN5physx9PxTaskMgrC2EPNS_15PxCpuDispatcherEPNS_15PxGpuDispatcherEPNS_15PxSpuDispatcherE
Kg:_glBindTexture
kyl:_snprintf
J4e:_InputField_set_caretPosition_m888572237
$9h:_ILGenerator__cctor_m3943061018
Qff:_ArrayListWrapper_Clone_m1506311066
PWj:_Event_get_character_m3740896233
Zra:__Z36scripting_liveness_calculation_begin17ScriptingClassPtriPFvPP12Il2CppObjectiPvES3_PFvvES7_
FMa:__ZN16UniformCacheGLES6CreateERK20GpuProgramParameters
Qqh:_UTF8Encoding_Fallback_m811555654
Dyh:_UInt64_CompareTo_m3513742483
tGf:_Array_InternalArray__IndexOf_TisPlayableBinding_t2498078091_m398853908_gshared
roh:_Encoding_GetString_m1894033578
oMg:_ReadOnlyCollection_1_System_Collections_IList_Clear_m1918003010_gshared
AHl:_emscripten_glGetProgramInfoLog__wrapper
EE:__ZN25AnimatedPropertyEvaluator29BindCurveToScriptingObjectPtrERKN13AnimationClip10FloatCurveEj18ScriptingObjectPtrb
Uqh:_UTF8Encoding_InternalGetChars_m373801468
e6:__ZN17PersistentManager23DestroyFromFileInternalEi
zZj:_GCHandle_GetTarget_m2056570211
l$a:__Z19SetupMotionMatricesR6CameraR18RPDataMotionVector
txf:_Enum_ToString_m2112979707
xtk:_TextGenerator_ValidatedSettings_m1640214759
qeh:_MonoMethodMessage_get_MethodName_m3580519713
oD:__ZN26AnimatorControllerPlayable18PrepareForPlaybackERN7mecanim6memory9AllocatorE
oBd:__ZN5physx19PxsMaterialCombiner24combineIsotropicFrictionERKNS_15PxsMaterialDataES3_
jFf:_Array_FindLastIndex_TisRuntimeObject_m986818300_gshared
Lqh:_UTF8Encoding_GetBytes_m4170182058
Ala:__ZN22CreateGpuProgramOutputC2Ev
q9g:_X509Chain__ctor_m2242540866
r0f:_MemoryStream_InternalConstructor_m2423667240
lfh:_SoapMethodAttribute_SetReflectionObject_m3431595769
hXd:__ZN5physx7Cooking16cookTriangleMeshERKNS_18PxTriangleMeshDescERNS_14PxOutputStreamE
CDj:_Slider_set_maxValue_m2951480075
P7d:__ZN14CompletionTask4InitEPN5physx7PxSceneE
vVc:__ZN5physx2Sc7ElementD0Ev
GZd:__ZN5physx6shdfnd10Foundation7releaseEv
BOk:__ZN6il2cpp2vm5Class4InitEP11Il2CppClass
$c:invoke_vidi
E9b:__ZNK15GUIEventManager15GetEventAtIndexEi
ite:__ZN2UI14CanvasRenderer17SyncDirtyElementsER8JobFence
mYe:_ColorBlock_op_Inequality_m1517672458
iml:__ZN6il2cpp5utils11StringUtils15StringDuplicateEPKc
D8a:__Z15CanAddComponentR10GameObjectPKN5Unity4TypeE
Tka:__ZNK9ShaderLab21ShaderRasterStateDesc16ToGfxRasterStateEPK19ShaderPropertySheetS3_R14GfxRasterState
u_:_tlsf_memalign
imh:_CspParameters__ctor_m2480441577
gvl:__ZN6il2cpp2os9EventImplC2Ebb
t0j:_DynamicPropertyCollection_NotifyMessage_m840388347
zlk:_Uri_ParseUri_m5711497
SOh:__Z98RuntimeInvoker_RuntimeObject_RuntimeObject_RayU26_t3651946800_Single_t2076509932_Int32_t2071877448PFvvEPK10MethodInfoPvPS4_
e$:__Z20IsMatrixBuiltinParamPKcPi
XCg:_Collection_1_CheckWritable_m2467777750_gshared
$2b:__ZN8Renderer19PostInitializeClassEv
x4j:_InternalEnumerator_1_get_Current_m1943362081_AdjustorThunk
Jwk:_Vector3_get_sqrMagnitude_m1814096310_AdjustorThunk
wrl:__ZN6il2cpp6icalls8mscorlib6System8Delegate23CreateDelegate_internalEP20Il2CppReflectionTypeP12Il2CppObjectP22Il2CppReflectionMethodb
s5h:_Default_check_type_m2363631305
CDb:__ZN18DelayedCallManager18CancelCallDelayed2E4PPtrI6ObjectEPF15CallObjectStatePS1_PvES7_
vfb:__ZN25ThreadsafeLinearAllocator10ReallocateEPvji
$Fb:__Z18Transfer_BlittableI14SafeBinaryReadLb1E11QuaternionfEvRK29SerializationCommandArgumentsR31RuntimeSerializationCommandInfo
F$c:__ZNK5physx18PxArticulationLink8isKindOfEPKc
Sca:__ZN18SpriteAtlasManagerD0Ev
vGf:_Array_InternalArray__IndexOf_TisRaycastHit2D_t4063908774_m3739817942_gshared
ffi:_MonoProperty_GetAccessors_m3704698731
i8d:__Z25CreatePxMeshFromUnityMeshP4MeshbbRK10Matrix4x4f13TransformTypef
Zql:_GC_disable
Hwb:__ZN10Matrix4x4f8TransferI14SafeBinaryReadEEvRT_
kn:FUNCTION_TABLE_vifiiiiiiiiiiiiiiiiii
I3f:_UnmanagedMemoryStream_ReadByte_m2501145010
vih:_ObjectRecord_UnchainFixup_m3025030310
x6:__Z6AppendRKN4core12basic_stringIcNS_20StringStorageDefaultIcEEEEPKc
yOb:__Z18Transfer_BlittableI18StreamedBinaryReadILb1EELb0E8Vector3fEvRK29SerializationCommandArgumentsR31RuntimeSerializationCommandInfo
ROh:__Z81RuntimeInvoker_RuntimeObject_Ray_t2469606224_Single_t2076509932_Int32_t2071877448PFvvEPK10MethodInfoPvPS4_
kgf:_ReadOnlyArrayListWrapper_Sort_m2056228524
HFa:__ZN7ApiGLES18ClearBufferSubDataEjN2gl12BufferTargetEll
Tec:__Z37Camera_Get_Custom_PropAllCamerasCountv
Uvb:__ZN14Texture2DArray8TransferI18StreamedBinaryReadILb0EEEEvRT_
$2c:__ZN5physx15NpActorTemplateINS_18PxArticulationLinkEED2Ev
F3a:__Z18ApplyOcclusionMaskR19ProbeOcclusionCacheRK17LightProbeContextRK10RenderNodeb
L$f:_FileStreamAsyncResult__ctor_m1096228032
Xje:_Split_Cubic
h$d:__ZN11BoxCollider8TransferI18StreamedBinaryReadILb0EEEEvRT_
Ssf:_DBNull_System_IConvertible_ToSByte_m1228193074
CBg:_Collection_1__ctor_m2818834331_gshared
LPf:_Array_InternalArray__get_Item_TisUICharInfo_t3056636800_m3872982785_gshared
XNh:__Z68RuntimeInvoker_UInt16_t986882611_UInt16_t986882611_UInt16_t986882611PFvvEPK10MethodInfoPvPS4_
R7d:__Z19ExtractDataFromMeshR4MeshR13dynamic_arrayI8Vector3fLj4EERS1_ItLj2EES6_
HKj:_AnimatorControllerPlayable_INTERNAL_CALL_GetLayerIndexInternal_m2875146206
cul:__ZN6il2cpp2vm14MetadataLoader16LoadMetadataFileEPKc
ejl:__ZN6il2cpp2os10ThreadImpl22CreateForCurrentThreadEv
l$f:_FileStream_FlushBuffer_m2594140542
krc:__Z64Register_UnityEngine_GUIStyle_GetFontInternalDuringLoadingThreadv
Jje:_ft_black_render
Wml:__ZN6il2cpp2vm8Profiler12GCHeapResizeEx
LEl:dynCall_viiifi
wJa:__ZN18GfxFramebufferGLES20ActiveContextChangedEPP17RenderSurfaceBaseS2_
sJa:__Z19PluginsRenderMarkeri
dF:__ZN10HumanTrait18InitializeBoneNameEv
gpf:_Convert_ToSByte_m1570938941
Nnk:_X509CertificateEnumerator_get_Current_m3129374511
Iel:__ZNSt3__214__split_bufferIN6il2cpp2vm5Image20EmbeddedResourceDataERNS_9allocatorIS4_EEEC2EjjS7_
$1e:_HorizontalOrVerticalLayoutGroup_get_spacing_m2859152439
DGi:__ZL57DispIdAttribute_t607560947_CustomAttributesCacheGeneratorP21CustomAttributesCache
RK:__ZN12AudioManager17RemoveAudioSourceEP11AudioSource
iJl:_emscripten_glBindProgramARB__wrapper
wVj:_CullingGroup_Finalize_m3172731580
zPf:_Array_InternalArray__get_Item_TisUInt64_t2909196914_m2580870875_gshared
Isd:__ZN5physx2Sc5Scene22setNbContactDataBlocksEj
drh:_UTF8Decoder_GetChars_m3819660582
TT:__ZN5physx14PxLightCpuTask12addReferenceEv
Yrb:__ZN21EnlightenSceneMapping8TransferI19StreamedBinaryWriteILb0EEEEvRT_
hgl:__ZN6il2cpp2gc16GarbageCollector19InitializeFinalizerEv
Ry:__ZN7mecanim8skeleton18CreateSkeletonMaskEjPKNS0_19SkeletonMaskElementERNS_6memory9AllocatorE
Enc:__ZN10GUIManager10DoGUIEventER10InputEventb
_Kb:__Z35Transfer_Blittable_FixedBufferFieldI24GenerateTypeTreeTransferxEvRK29SerializationCommandArgumentsR31RuntimeSerializationCommandInfo
f0:__Z20CalculateSqrDistanceRK8Vector3fRK4AABB
H8d:__ZN14PhysicsManager15ProcessContactsEv
LGc:__ZN21BoxTraceSegmentReport7onEventEjPj
m$c:__ZN5physx2Sc21ArticulationJointCore13setSwingLimitEff
HO:__Z32AudioMixerDuckingProcessCallbackP21UnityAudioEffectStatePfS1_jii
wCc:__ZL20HullProjectionCB_BoxRKN5physx2Gu13PolygonalDataERKNS_6PxVec3ERKNS_2Cm8Matrix34ERKNS7_23FastVertex2ShapeScalingERfSE_
f6h:_CustomAttributeTypedArgument_GetHashCode_m999147081_AdjustorThunk
c2b:__ZN26CustomRenderTextureManagerD2Ev
u$f:_FileStream_Read_m3880951166
gHd:__ZN5physx14PxsAABBManager21selfCollideAggregatesEPKNS_19AggregateSortedDataE
xL:__ZN12AudioManager8TransferI24GenerateTypeTreeTransferEEvRT_
Boa:__Z25GetBytesFromTextureFormat13TextureFormat
oPd:__ZN5physx12_GLOBAL__N_112innerProductERKNS_14Px1DConstraintERS1_RKNS0_9MassPropsE
TJl:b102
_Bf:_Array_InternalArray__ICollection_Remove_TisContactPoint_t1376425630_m2242111467_gshared
gDl:dynCall_iifff
rj:_emscripten_webgl_init_context_attributes
xE:__ZN16MecanimAnimation25RegisterIAnimationBindingEPKN5Unity4TypeEiP17IAnimationBinding
k4:__Z32scripting_class_get_assemblyname17ScriptingClassPtr
Oxe:__ZN11UnityEngine15PlatformWrapper15GetVRDeviceNameEv
ipj:_Dictionary_2_Resize_m2532139610_gshared
Osk:_StackTraceUtility__cctor_m1132099289
uDd:__ZN5physx26PxcFrictionPatchStreamPairC2ERNS_17PxcNpMemBlockPoolE
_th:_TimeSpan_Equals_m2029123271_AdjustorThunk
xUk:__ZN6il2cpp2vm13MetadataCache23GetInvokerMethodPointerEPK10MethodInfoPK20Il2CppGenericContext
NNa:__ZN9GfxDevice21RegisterNativeTextureE9TextureIDi16TextureDimension
mzf:_CultureInfo__ctor_m456863818
zsl:__ZN6il2cpp6icalls8mscorlib6System10Reflection4Emit11TypeBuilder20create_generic_classEP27Il2CppReflectionTypeBuilder
glg:_Enumerator_MoveNext_m2504790928_gshared
oki:_GUISkin_set_button_m412653849
yj:_emscripten_glUniformMatrix4fv
tYb:__ZN12ScriptMapperD2Ev
h2d:__ZN9Rigidbody13AwakeFromLoadE17AwakeFromLoadMode
T4c:__ZNK5physx14NpSceneQueries10multiQueryINS_12PxOverlapHitEEEbRKNS_15MultiQueryInputERNS_13PxHitCallbackIT_EENS_7PxFlagsINS_9PxHitFlag4EnumEtEEPKNS_12PxQueryCacheERKNS_17PxQueryFilterDataEPNS_21PxQueryFilterCallbackEPNS_20BatchQueryFilterDataE
dDe:_KeyedHashAlgorithm_Dispose_m1864300576
Gnk:_X509Certificate_PEM_m49854707
LLj:_AnimatorControllerPlayable_GetParameter_m4243058543_AdjustorThunk
S7d:__ZL21GetMeshLocationDetailR4Mesh
J6g:_X509BasicConstraintsExtension__ctor_m3320418592
Qmk:_ExtendedKeyUsageExtension_Decode_m901297139
llc:__Z52Register_UnityEngine_RenderTexture_Internal_GetWidthv
Jpl:_GC_check_leaked
$Wb:__ZN9ShaderLab20SerializedSubProgram16TextureParameter8TransferI19StreamedBinaryWriteILb0EEEEvRT_
Lb:invoke_fiiiiiiiifiiiif
aKf:_Array_InternalArray__Insert_TisVector4_t2243707581_m1643342708_gshared
Qgb:__ZNK7Hash12812PackToUInt32Ev
cqe:__ZZN20TextRenderingPrivate8TextMesh15InitializeClassEvEN31FunctorImpl_299kDidAddComponent4CallEPviR11MessageData
kY:__ZN11UnityEngine15CloudWebService16SessionContainer8AddEventEPNS0_14CloudEventInfoE
HMa:__Z4TrimRKN4core12basic_stringIcNS_20StringStorageDefaultIcEEEES5_
KEj:_Text_set_resizeTextMaxSize_m4034967714
ABi:__ZL55GuidAttribute_t222072359_CustomAttributesCacheGeneratorP21CustomAttributesCache
Bhi:_GUIStyle_SetDefaultFont_m2095841351
S5h:_CustomAttributeNamedArgument_Equals_m2691468532
pub:__ZN10VertexData8TransferI14SafeBinaryReadEEvRT_
t_c:__ZN5physx19NpArticulationJointD0Ev
KM:__ZN4FMOD8ChannelI8setDelayE14FMOD_DELAYTYPEjj
Ukf:_Stack__ctor_m2410583781
i6d:__ZN5physx9NpPhysics14createInstanceEjRNS_12PxFoundationERKNS_17PxTolerancesScaleEbPNS_20PxProfileZoneManagerE
Hae:__Z59Register_UnityEngine_Physics_INTERNAL_CALL_Internal_Raycastv
q5h:_Default_GetBetterMethod_m4255740863
V6h:_ConstructorBuilder_GetILGenerator_m1731893569
ird:__ZNK5physx7NpScene17getFilterCallbackEv
Kel:__ZNSt3__214__split_bufferIN6il2cpp2vm5Image20EmbeddedResourceDataERNS_9allocatorIS4_EEED2Ev
q2:__ZL20SortItemByInstanceIDRKN18AwakeFromLoadQueue4ItemES2_
Q5d:__ZN5physx6shdfnd5ArrayIPvNS0_15InlineAllocatorILj256ENS0_19ReflectionAllocatorINS_24NpPtrTableStorageManager8PtrBlockILi16EEEEEEEE15growAndPushBackERKS2_
zbi:_TypeBuilder_create_runtime_class_m2719530260
BFe:_RNGCryptoServiceProvider_RngClose_m2921734810
jz:__ZNK34AnimationStateMachineMixerPlayable26GetInterruptedPosePlayableEv
vze:__ZN20UnityConnectSettings8TransferI24GenerateTypeTreeTransferEEvRT_
CB:__ZN34BlobWriteTransferSTLStyleArrayImplI22OffsetPtrArrayTransferIbEEclERS1_17TransferMetaFlagsR9BlobWrite
u8f:_SimpleCollator_IsHalfKana_m4255579023
Azg:_Collection_1_System_Collections_IList_Contains_m3365884450_gshared
n9c:__ZN5physx7NpShape13setRestOffsetEf
zSa:__Z16FlaggedAsSkippedIN4core12basic_stringIcNS0_20StringStorageDefaultIcEEEEEbRK13FileEntryInfoRKT_19FileEnumerationFlag
p8:__ZL31InitializeRendererUpdateManagerPv
ELh:__Z106RuntimeInvoker_RuntimeObject_Int16_t4041245914_RuntimeObject_BooleanU26_t3168250738_BooleanU26_t3168250738PFvvEPK10MethodInfoPvPS4_
P9c:__ZN5physxL11getTriangleERKNS_2Gu12TriangleMeshEjPNS_6PxVec3EPKS4_PKvRKNS_2Cm8Matrix34Eb
V1d:__ZN14SafeBinaryRead21TransferSTLStyleArrayINSt3__26vectorIjNS1_9allocatorIjEEEEEEvRT_17TransferMetaFlags
IXg:_ClientSessionInfo_Dispose_m2571428025
f7e:_LayoutGroup_DelayedSetDirty_m4276695617
U_g:_RecordProtocol_decryptRecordFragment_m2510859489
Vad:__ZNK5physx7NpCloth16lockParticleDataEv
Ozb:__ZN11TimeManager8TransferI19StreamedBinaryWriteILb0EEEEvRT_
a0f:_DelegatePInvokeWrapper_ReadDelegate_t3184826381
Wke:_compare_uni_maps
Dxe:__ZN11UnityEngine15PlatformWrapper27GetGraphicsCapsSupportFlagsEv
LMa:__ZN18GlslGpuProgramGLES25LoadFromBinaryShaderCacheERKN4core12basic_stringIcNS0_20StringStorageDefaultIcEEEER17ShaderChannelMaskPKc
twd:__ZN5physx13NpRigidStatic9visualizeERNS_2Cm12RenderOutputEPNS_7NpSceneE
hOb:__ZN12NativeBufferI16Converter_StringE15SetupForWritingER9ArrayInfo
PLl:___cxa_end_catch__wrapper
Rj:_emscripten_glVertexAttrib3fv
Pyd:__ZN5physx6shdfnd8PoolBaseINS_2Sc35ParticleElementRbElementInteractionENS0_19ReflectionAllocatorIS3_EEE15disposeElementsEv
hoj:_ValueCollection_System_Collections_Generic_ICollectionU3CTValueU3E_Clear_m231380274_gshared
gSe:_Entry__ctor_m1176697586
d6f:_MonoType_get_Module_m3769241394
F8g:_X509Chain_IsSignedWith_m292245392
l8a:__ZN13MonoBehaviour22DoScriptRebuildWarningEv
Vec:__Z38Camera_CUSTOM_INTERNAL_CALL_RaycastTryP12Il2CppObjectRK3Rayfi
TEj:_Text_get_verticalOverflow_m3134063496
MLj:_AnimatorControllerPlayable_StringToHash_m2562221043
G4b:__ZZL23RegisterLightPropertiesR22GenericPropertyBindingEN22Wrapper_LightSpotAngle13GetFloatValueEPv
yZj:_GCHandle_get_Target_m2327042781
IWe:_Button_OnFinishSubmit_m1646528571
JBl:_llvm_cttz_i32
c7g:_PublicKey_DecodeDSA_m1169363495
Moc:__ZN11IMGUIModule25GetGUIStyleScriptingClassEv
Une:_tt_get_interface
pMf:_Array_Sort_TisRuntimeObject_m143182644_gshared
fal:__ZN6il2cpp5utils9PathUtils7CombineIcEENSt3__212basic_stringIT_NS3_11char_traitsIS5_EENS3_9allocatorIS5_EEEERKSA_SC_
Lae:__Z46Register_UnityEngine_Rigidbody_set_isKinematicv
qHd:__ZN5physx14PxsAABBManager16processBPResultsERKNS_20PxsComputeAABBParamsE
yvc:__ZN9JSONWrite8TransferI13dynamic_arrayIiLj4EEEEvRT_PKc17TransferMetaFlags
xFd:__ZN5physx23PxsBroadPhaseContextSapD2Ev
gZd:__ZN5physx12SubSortQuickC2EPjPKNS_10PxBounds3VEjf
w1:__Z18ConvertUTF16toUTF8PPKtS0_PPhS2_15ConversionFlags
zkl:__ZN6il2cpp2os20PathErrnoToErrorCodeERKNSt3__212basic_stringIcNS1_11char_traitsIcEENS1_9allocatorIcEEEEi
ovh:_TypeLoadException__ctor_m1903359728
XMk:__ZL16my_g_bit_nth_msfj
CDe:_KeySizes__ctor_m3526899007
BVf:_Int16_System_IConvertible_ToInt32_m191782913_AdjustorThunk
uvk:_SpriteAtlasManager__cctor_m1344469326
b8i:__ZL69ArgumentCache_t4810721_CustomAttributesCacheGenerator_m_FloatArgumentP21CustomAttributesCache
pnh:_EncoderReplacementFallback__ctor_m2208438262
wYa:__Z23SetupStereoFlareElementP11FlareVertexRK8Vector2fS3_S3_RK11ColorRGBA32RK10Matrix4x4fRK8Vector3fb
ab:invoke_iiiifiiii
ELg:_ReadOnlyCollection_1_System_Collections_Generic_ICollectionU3CTU3E_Remove_m3751131234_gshared
Iyc:__ZN9rapidjson8internal6u64toaEyPc
tdd:__ZNK5physx2Sc9ClothCore16getRestPositionsEPNS_6PxVec4E
eCd:__ZN5physx20PxcSweepConvexConvexERKNS_11PxsCCDShapeES2_PKNS_12PxsRigidBodyES5_RKNS_11PxTransformES8_S8_S8_fRNS_6PxVec3ESA_RNS_10PxcNpCacheERNS_18PxcNpThreadContextEf
k_f:_Directory_GetFiles_m4036267478
aH:__Z64AnimationOffsetPlayable_CUSTOM_INTERNAL_CALL_GetRotationInternalR9HPlayableR11Quaternionf
Agd:__ZN5physx15PxsParticleDataD0Ev
_Ja:__ZL19BlitFramebufferImplRN4gles23BlitFramebufferDrawQuadER9GfxDevice9TextureIDRK8Vector4f
ZWd:__ZN5physx6shdfnd5ArrayIPvNS0_19ReflectionAllocatorIN17PxcPoolMallocData9PoolData8EEEE15growAndPushBackERKS2_
i1k:__ZN15dense_hashtableINSt3__24pairIK10KeyWrapperIPK10Il2CppTypeEjEES6_N6il2cpp8metadata14Il2CppTypeHashEN14dense_hash_mapIS6_jSB_NS6_14EqualsComparerINSA_26Il2CppTypeEqualityComparerEEENS0_9allocatorIS8_EEE9SelectKeyESF_SH_E4findERS7_
bKg:_ReadOnlyCollection_1_System_Collections_IList_Add_m2333231354_gshared
dee:_UNITY_FT_List_Add
pbi:_OpCodes__cctor_m939885911
lH:__Z87Register_UnityEngine_Animations_AnimationPlayableOutput_INTERNAL_CALL_InternalGetTargetv
$_d:__ZN5physx15PxGeometryQuery14getWorldBoundsERKNS_10PxGeometryERKNS_11PxTransformEf
Ied:__ZN5physx2Sc9ClothCore18setSolverFrequencyEf
Jmk:_UriParser_InitializeAndValidate_m251943319
UHe:_SymmetricAlgorithm_set_Padding_m3081984460
xzb:__ZN9InputAxis8TransferI18StreamedBinaryReadILb0EEEEvRT_
akh:_StreamingContext_t1417235061_marshal_pinvoke_back
bCc:__ZN5physx2Gu16buildPartialHullERKNS0_13PolygonalDataEPNS0_12SupportLocalERNS0_14SeparatingAxesERKNS_6shdfnd3aos5Vec3VESC_
bff:_ArrayList_RemoveAt_m2578928333
FGb:__Z18Transfer_BlittableI14SafeBinaryReadLb0EaEvRK29SerializationCommandArgumentsR31RuntimeSerializationCommandInfo
hJg:_ReadOnlyCollection_1_System_Collections_IList_set_Item_m1233322304_gshared
Xmk:_GeneralNames_get_DNSNames_m2721668874
Hwf:_Enum_System_IConvertible_ToByte_m38374586
RIg:_ReadOnlyCollection_1_System_Collections_Generic_IListU3CTU3E_RemoveAt_m1592158292_gshared
ZFl:_emscripten_glFrustum__wrapper
HZc:__ZNK5physx2Sc16ArticulationCore17releaseDriveCacheERNS_9PxcFsDataE
k$g:_ReceiveRecordAsyncResult_get_CompletedWithError_m2670396551
Utf:_Decimal_Equals_m1798565377
TNc:__ZN5physx11NpAggregate7releaseEv
f8h:_TypeBuilder_check_created_m2929267877
oMh:__Z121RuntimeInvoker_Int64_t909078037_Int32_t2071877448_Int32_t2071877448_Int32_t2071877448_Int32_t2071877448_Int32_t2071877448PFvvEPK10MethodInfoPvPS4_
oVa:__Z20SyncFenceCullResultsR11CullResults
wLa:__ZN15TextureTFMethod20IsBoneCountSupportedEi
dG:__ZN26AnimatorControllerPlayable9GotoStateEiifff
Eki:_GUISkin_set_horizontalScrollbarThumb_m2119687595
HCf:_PlayableHandle_IsPlayableOfType_TisAudioMixerPlayable_t1831808911_m1065481197_AdjustorThunk
Efh:_ObjRef__ctor_m1486312270
Vqf:_DateTime_System_IConvertible_ToSByte_m2575078084_AdjustorThunk
pKb:__Z22TransferField_NonArrayI17RemapPPtrTransfer27Converter_SimpleNativeClassI8GUIStyleEEvRK23StaticTransferFieldInfoR31RuntimeSerializationCommandInfoRT0_
oNj:_AnimatorStateInfo_IsTag_m1529621725_AdjustorThunk
h9c:__ZN5physx7NpShape12setMaterialsEPKPNS_10PxMaterialEt
d1b:__ZNK17AnimationCurveTplIfE20EvaluateWithoutCacheEfRf
Fil:__ZN6il2cpp2os6Thread12QueueUserAPCEPFvPvES2_
OPe:_EncoderExceptionFallback_Equals_m762170768
Xla:__ZN19ShaderPropertySheet10SetTextureERK23FastTexturePropertyNameP7Texture
pni:_GUIStyleState__ctor_m3611888666
iCg:_Collection_1_IsValidItem_m1304951912_gshared
G8b:__ZN4Mesh10SetNormalsEPK8Vector3fj
hnf:_Convert_ToDateTime_m4161927553
l8h:_TypeBuilder_GetConstructors_m774120094
Fs:__ZN17AnimationCurveTplIfE8TransferI14SafeBinaryReadEEvRT_
ini:_GUIStyle_INTERNAL_CALL_SetMouseTooltip_m3411291301
lyf:_Calendar_get_EraNames_m452820602
ztb:__ZNSt3__26vectorIN15QualitySettings14QualitySettingENS_9allocatorIS2_EEE6assignIPS2_EENS_9enable_ifIXaasr21__is_forward_iteratorIT_EE5valuesr16is_constructibleIS2_NS_15iterator_traitsIS9_E9referenceEEE5valueEvE4typeES9_S9_
FJc:__Z15raycast_capsuleRKN5physx10PxGeometryERKNS_11PxTransformERKNS_6PxVec3ES8_fNS_7PxFlagsINS_9PxHitFlag4EnumEtEEjPNS_12PxRaycastHitEbPFbRSD_PvESG_
HWa:__ZNK19ShaderPropertySheet11HasPropertyERKN9ShaderLab16FastPropertyNameE
Gqf:_DateTime_System_IConvertible_ToByte_m2670443498_AdjustorThunk
zZ:__GLOBAL__sub_I_runtime_utilities4_lump_cpp
Rcj:__ZL58FontData_t2614388407_CustomAttributesCacheGenerator_m_FontP21CustomAttributesCache
hQd:__ZNK5physx34PxsSolverConstraintPostProcessTask7getNameEv
CRg:_BigInteger_op_Addition_m1734797151
lDc:__ZN5physx2Gu23distancePointBoxSquaredERKNS_6PxVec3ES3_S3_RKNS_7PxMat33EPS1_
$5d:__ZN5physx9NpPhysics20MeshDeletionListener28onGuMeshFactoryBufferReleaseEPKNS_6PxBaseEtb
G8h:_EnumBuilder_CreateNotSupportedException_m62763134
aBe:__ZNK12HeaderHelper3GetERKN4core12basic_stringIcNS0_20StringStorageDefaultIcEEEE
m8g:_X509Chain_CheckRevocation_m2480313486
OEe:_RijndaelManagedTransform_TransformBlock_m2558865851
ozb:__ZN9InputAxis8TransferI14SafeBinaryReadEEvRT_
F2:__ZNK21ExecutionOrderManager30GetCustomAwakeFromLoadQueueForEPKN5Unity4TypeE
Dqd:__ZNK5physx7NpScene9getActorsENS_7PxFlagsINS_15PxActorTypeFlag4EnumEtEEPPNS_7PxActorEjj
zAe:__Z27RegisterModule_UnityConnectv
tyd:__ZN5physx11NodeManagerD0Ev
Ffi:_ParameterInfo_get_IsRetval_m1881464570
BQj:_Bounds_get_size_m1728027642_AdjustorThunk
ggh:_RealProxy__ctor_m3041043303
mRf:_NumberFormatter_Init_m2654758994
nDe:_HMACSHA1__ctor_m1168389339
OG:__Z96Register_UnityEngine_Animations_AnimationClipPlayable_INTERNAL_CALL_SetRemoveStartOffsetInternalv
cO:__ZN10ObjectPoolIN4FMOD12ChannelGroupENS0_13ChannelGroupIEE7SetSizeEi
nbg:_PrimalityTest_BeginInvoke_m966469054
Bca:__ZN15dense_hashtableINSt3__24pairIKN4core12basic_stringIcNS2_20StringStorageDefaultIcEEEE13dynamic_arrayI4PPtrI6SpriteELj4EEEES6_20StringHash32FunctionIS6_EN14dense_hash_mapIS6_SC_SF_NS0_8equal_toIS6_EE13stl_allocatorISD_L18MemLabelIdentifier79ELi16EEE9SelectKeyESI_SL_E9copy_fromERKSO_j
nyh:_UInt64_System_IConvertible_ToInt16_m2797150165_AdjustorThunk
lPf:_Array_InternalArray__get_Item_TisLabelData_t3712112744_m863115768_gshared
fXf:_Int32_Parse_m753946802
gpi:_Material_DisableKeyword_m1204728089
hwg:_List_1_RemoveAt_m2331128844_gshared
hJj:_AnimatorControllerPlayable_GetFloatString_m3678921564
Xbi:_UnmanagedMarshal_ToMarshalAsAttribute_m3695569337
Dbd:__ZNK5physx7NpCloth25getMotionConstraintConfigEv
aIb:__Z14resize_trimmedINSt3__26vectorI17AnimationCurveTplIfE13stl_allocatorIS3_L18MemLabelIdentifier1ELi16EEEEEvRT_j
D6a:__ZN25CameraStackRenderingState19SetupLastEyeCamerasERK11CameraStack
Edc:__Z12GUIDToStringRK9UnityGUID
lCe:__GLOBAL__sub_I_runtime_vr_plugininterface_lump_cpp
Vhl:__ZN6il2cpp6icalls8mscorlib6System4Enum12get_hashcodeEP12Il2CppObject
qK:__ZN11SoundHandleC2ERKS_
lxj:_Mask_OnEnable_m501850981
RRj:_Canvas_get_targetDisplay_m316548313
JH:__Z75AnimatorControllerPlayable_CUSTOM_INTERNAL_CALL_GetAnimatorClipInfoInternalR9HPlayableihP12Il2CppObject
Uag:_BigInteger_op_Addition_m1196561843
Z$j:_FormatterData__ctor_m3974986124
NEe:_RijndaelManagedTransform_get_CanReuseTransform_m3735256596
vLc:__ZN5physx3Cct26CharacterControllerManager24setOverlapRecoveryModuleEb
dif:_Comparer__cctor_m1327316974
f_f:_MonoIO_ExistsFile_m1421941572
dsf:_DateTime_op_GreaterThanOrEqual_m3818963848
Bw:__ZN17AnimationPlayable18DeallocateBindingsEv
E9a:__ZN6Camera25StandaloneRenderToCubemapEP7TextureiPFvPK9SceneNodePK4AABBR9IndexListPvESA_j
yZe:_DefaultControls_SetDefaultTextValues_m1707718380
xVe:_TouchInputModule_UseFakeInput_m2112019004
yRe:_EventSystem_get_baseEventDataCache_m4294741599
Pnb:__ZN14RenderSettings18TransferDeprecatedI14SafeBinaryReadEEvRT_
U_:__ZN12TLSAllocatorI14StackAllocatorE8AllocateEji
A3:__ZN16ScriptingManager18GetMonoScriptCacheEi
hEh:__Z62RuntimeInvoker_Void_t1841601450_RuntimeObject_Int64_t909078037PFvvEPK10MethodInfoPvPS4_
Rii:_GUIStyle_get_stretchHeight_m3396762700
WPk:__ZN15dense_hashtableINSt3__24pairIK10KeyWrapperIPK11Il2CppClassEPKcEES6_N6il2cpp5utils11PointerHashIS3_EEN14dense_hash_mapIS6_S9_SE_NS6_14EqualsComparerINS0_8equal_toIS5_EEEENS0_9allocatorISA_EEE9SelectKeyESJ_SL_E15set_deleted_keyERKSA_
F1e:_GridLayoutGroup_CalculateLayoutInputHorizontal_m2355123124
MGb:__Z18Transfer_BlittableI14SafeBinaryReadLb1EyEvRK29SerializationCommandArgumentsR31RuntimeSerializationCommandInfo
csc:__ZN8JSONRead8TransferIfEEvRT_PKc17TransferMetaFlagsb
Rai:_ModuleBuilder_GetTypes_m93550753
uAl:__ZNSt3__212basic_stringIcNS_11char_traitsIcEENS_9allocatorIcEEE6appendEPKcj
NEi:__ZL54TypeBuilder_t3308873219_CustomAttributesCacheGeneratorP21CustomAttributesCache
ocd:__ZN5physx7NpCloth25setSelfCollisionStiffnessEf
IDg:_Collection_1_CheckWritable_m691269733_gshared
i9h:_GenericTypeParameterBuilder_GetAttributeFlagsImpl_m3338182267
pU:__ZN13Simd4iFactoryIN6detail9FourTupleEEC2Eiiii
A2f:_SynchronizedReader__ctor_m1408327515
bqk:_X509Store_LoadCrl_m1146720614
AOg:_ReadOnlyCollection_1_System_Collections_IList_Clear_m1858417639_gshared
yrb:__ZN15SerializeTraitsI33EnlightenTerrainChunksInformationE8TransferI14SafeBinaryReadEEvRS0_RT_
p3b:__ZNK32RendererMaterialAnimationBinding9BindValueER6ObjectRKN11UnityEngine9Animation14GenericBindingERNS3_10BoundCurveE
yob:__Z13GetIAnimationv
mva:__ZL18stbir__support_onef
_og:_List_1_System_Collections_IList_Remove_m2040310137_gshared
kuc:__Z26Transfer_UnityEngineObjectI9JSONWriteLb0EEvRK29SerializationCommandArgumentsR31RuntimeSerializationCommandInfo
Uga:__ZN9ShaderLab4Pass9ApplyPassEjPK19ShaderPropertySheetR17ShaderPassContextP6ShaderiPKNS_10GrabPassesEPNS_11SubProgramsE
Wma:__ZNSt3__26vectorIN4core12basic_stringIcNS1_20StringStorageDefaultIcEEEE13stl_allocatorIS5_L18MemLabelIdentifier1ELi16EEE6assignINS_11__wrap_iterIPS5_EEEENS_9enable_ifIXaasr21__is_forward_iteratorIT_EE5valuesr16is_constructibleIS5_NS_15iterator_traitsISF_E9referenceEEE5valueEvE4typeESF_SF_
uxh:_UInt32_System_IConvertible_ToInt16_m2251335934_AdjustorThunk
vse:__ZNSt3__27__sort5IRNS_6__lessIN2UI14DepthSortEntryES3_EEPS3_EEjT0_S7_S7_S7_S7_T_
Kde:_UNITY_FT_DivFix
Ia:invoke_vdd
oo:FUNCTION_TABLE_fiii
fwf:_Double_System_IConvertible_ToUInt32_m624993430
so:FUNCTION_TABLE_fiif
kqe:__ZZ29InitializeTextRenderingModulevEN27cleanupAfterLoadRegistrator7ForwardEv
Vsh:_Scheduler_Add_m376749205
xx:__ZN27AnimationLayerMixerPlayable24ProcessAnimationLayerMixEP33AnimationPlayableEvaluationOutputP35AnimationPlayableEvaluationConstantP32AnimationPlayableEvaluationInputS1_if
UCi:__ZL53SortedList_t3004938869_CustomAttributesCacheGeneratorP21CustomAttributesCache
ztl:__ZN6il2cpp6icalls8mscorlib4Mono8Security12Cryptography18KeyPairPersistence19_IsMachineProtectedEP12Il2CppString
kJl:_emscripten_glGenVertexArrays__wrapper
a6a:__Z29PluginsIssueRenderingExtEvent26UnityRenderingExtEventTypePv
Sdl:__ZN15dense_hashtableINSt3__24pairIK10KeyWrapperINS1_IPKcS4_EEEiEES6_24NamespaceAndNamePairHashN14dense_hash_mapIS6_iS9_NS6_14EqualsComparerI26NamespaceAndNamePairEqualsEENS0_9allocatorIS8_EEE9SelectKeyESD_SF_E12resize_deltaEjj
p2b:__Z14RandomRotationP9Texture2DPhiiii
e_e:_OptionDataList__ctor_m613113846
Ktg:_List_1_System_Collections_IList_Insert_m2036969360_gshared
f5e:_InputField_GetUnclampedCharacterLineFromPosition_m1912794077
isk:_SpaceAttribute__ctor_m1444406696
ard:__ZN5physx7NpScene27setCCDContactModifyCallbackEPNS_26PxCCDContactModifyCallbackE
KXd:__ZNK5physx17ConvexHullBuilder17ComputeGeomCenterERNS_6PxVec3E
Csf:_DateTimeOffset_ToString_m2121173678_AdjustorThunk
cMh:__Z74RuntimeInvoker_RuntimeObject_RuntimeObject_Int16_t4041245914_RuntimeObjectPFvvEPK10MethodInfoPvPS4_
ZFd:__ZN3MBPD0Ev
Mj:_JS_WebRequest_SetResponseHandler
iMl:_glDeleteProgram__wrapper
afc:__Z50Register_UnityEngine_Camera_INTERNAL_get_pixelRectv
Hpa:__ZN6prcoreL18BlitFloatToIntegerERK14ImageReferenceRS0_
Ogg:_X509CertificateCollection_get_Item_m410866272
Yii:_Rect_get_yMax_m2915146103
gud:__ZNK5physx10PxsContext18getBounceThresholdEv
FX:__ZN11UnityEngine15CloudWebService14RestDownloader17OnCompleteContentEv
Z1e:_LayoutGroup_SetChildAlongAxis_m1615929339
gMh:__Z75RuntimeInvoker_RuntimeObject_RuntimeObject_Double_t4078015681_RuntimeObjectPFvvEPK10MethodInfoPvPS4_
vLh:__Z200RuntimeInvoker_Boolean_t3825574718_RuntimeObject_RuntimeObject_RuntimeObject_Int32_t2071877448_DateTimeU26_t3448131235_SByte_t454417549_BooleanU26_t3168250738_SByte_t454417549_ExceptionU26_t1467204777PFvvEPK10MethodInfoPvPS4_
jpd:__ZN5physx6shdfnd5ArrayIPvNS0_15InlineAllocatorILj256ENS0_19ReflectionAllocatorINS_2Gu31SpherePersistentContactManifoldEEEEEE15growAndPushBackERKS2_
pSd:__ZN5physx2Cm18DelegateFanoutTaskINS_2Sc5SceneEXadL_ZNS3_17finalizationPhaseEPNS_10PxBaseTaskEEEE11runInternalEv
taa:__ZNSt3__26vectorI20ProcessCallbackGroupNS_9allocatorIS1_EEEC2ERKS4_
vz:__ZN17AnimationPlayable28UpdateInternalStateRecursiveILi1ELb0EEEvPK35AnimationPlayableEvaluationConstant
cb:invoke_vifff
Lgc:__Z41Register_UnityEngine_GameObject_set_layerv
Ihc:__Z53Register_UnityEngine_Input_INTERNAL_get_mousePositionv
LKl:_glGetVertexAttribiv__wrapper
Y1c:__ZN5physx6shdfnd15atomicDecrementEPVi
vf:_emscripten_request_fullscreen
mea:__ZN20LocalFileSystemWebGL6DeleteER13FileEntryDatab
Gtf:_Decimal_System_IConvertible_ToUInt16_m1621568250
xf:_emscripten_glDisableVertexAttribArray
ho:FUNCTION_TABLE_iiiifiiii
Qth:_TimeSpan_get_TotalMinutes_m1645177229_AdjustorThunk
Dc:invoke_fifffi
gGa:__ZN4gles23ClearCurrentFramebufferEP7ApiGLESbbbRK10ColorRGBAffi
Yx:__ZN7mecanim12statemachine20CreateStateWorkspaceEjjjRNS_6memory9AllocatorE
d5j:_InternalEnumerator_1_System_Collections_IEnumerator_get_Current_m3680087284_gshared
qXd:__ZN5physx2Gu11HeightField13releaseMemoryEb
If:_emscripten_glDeleteObjectARB
XHa:__Z14DecompressDXT3iiiPKjPj
q3f:_UnexceptionalStreamReader_Read_m3839775235
mlc:__Z53Register_UnityEngine_RenderTexture_Internal_GetHeightv
iQf:_Dropdown_GetOrAddComponent_TisRuntimeObject_m2875934266_gshared
Iqa:__ZN6prcoreL17RemapGenericFloatI17TexFormatRGBAHalf18TexFormatARGBFloatEEvPKNS_9InnerInfoE
Nwf:_Enum_System_IConvertible_ToInt32_m2459904362
ooc:__ZNK8GUIStyle21DrawWithTextSelectionER8GUIStateRK5RectTIfER10GUIContentbbbbbiiRK10ColorRGBAfSA_
jMh:__Z61RuntimeInvoker_RuntimeObject_Double_t4078015681_RuntimeObjectPFvvEPK10MethodInfoPvPS4_
Coc:__Z14GetBuiltinSkini
JPe:_DecoderReplacementFallbackBuffer_Reset_m2576819665
uQe:_BaseInput_set_compositionCursorPos_m2632248731
hGk:_Enumerator_System_Collections_IEnumerator_Reset_m2573763156_gshared
x5f:_MonoType_GetConstructors_internal_m2709619723
zKe:_WindowsIdentity_Dispose_m2649088337
dZb:__ZN2UI13RectTransform23VirtualRedirectTransferER14SafeBinaryRead
_yk:_InvokableCall_1__ctor_m54675381_gshared
Lrd:__ZN5physx7NpScene17flushQueryUpdatesEv
H5f:_MonoType_GetMethodImpl_m593754598
HVb:__ZNSt3__26vectorIN9ShaderLab20SerializedSubProgramENS_9allocatorIS2_EEE6assignIPS2_EENS_9enable_ifIXaasr21__is_forward_iteratorIT_EE5valuesr16is_constructibleIS2_NS_15iterator_traitsIS9_E9referenceEEE5valueEvE4typeES9_S9_
jwc:__Z18Transfer_BlittableI8JSONReadLb0E8BitFieldEvRK29SerializationCommandArgumentsR31RuntimeSerializationCommandInfo
ohh:_SoapServices_RegisterInteropXmlType_m2949236705
tPb:__ZL17Transfer_GUIStyleI18StreamedBinaryReadILb1EELb0EEvRK29SerializationCommandArgumentsR31RuntimeSerializationCommandInfo
EOe:_String_CharCopy_m2550399897
WMh:__Z234RuntimeInvoker_RuntimeObject_Int16_t4041245914_RuntimeObject_Int32_t2071877448_Int32_t2071877448_Int32_t2071877448_SByte_t454417549_SByte_t454417549_SByte_t454417549_SByte_t454417549_Int16_t4041245914_SByte_t454417549_SByte_t454417549PFvvEPK10MethodInfoPvPS4_
bsd:__ZN5physx7NpScene10unlockReadEv
QTb:__ZN9ShaderLab14SerializedPass8TransferI14SafeBinaryReadEEvRT_
upc:__Z71Register_UnityEngine_GUILayoutUtility_INTERNAL_CALL_Internal_MoveWindowv
aS:__ZN12AudioManager16SetListenerPauseEb
oal:__ZN6il2cpp2vm9Exception25RaiseOutOfMemoryExceptionERKNS_5utils10StringViewIDsEE
xBg:_Collection_1_IsValidItem_m2254106115_gshared
u8h:_TypeBuilder_GetEvent_m3876348075
xik:_Parser_ParseDecimal_m4127410766
_Dj:_Slider_OnMove_m641164662
fa:invoke_viiiiiiiiiii
Xwl:___syscall_ret
Ysh:_Scheduler__ctor_m3716265742
Sdg:_MACAlgorithm_Final_m4076939925
K_k:__ZNSt3__212basic_stringIcNS_11char_traitsIcEENS_9allocatorIcEEE6assignINS_11__wrap_iterIPKcEEEENS_9enable_ifIXaasr21__is_forward_iteratorIT_EE5valuesr38__libcpp_string_gets_noexcept_iteratorISC_EE5valueERS5_E4typeESC_SC_
Wub:__ZN11ChannelInfo8TransferI19StreamedBinaryWriteILb0EEEEvRT_
L4j:_InternalEnumerator_1_System_Collections_IEnumerator_get_Current_m3583252352_gshared
X7h:_EnumBuilder_get_FullName_m2818393911
Fdd:__ZN5physx2Sc9ClothCore22setFrictionCoefficientEf
nZa:__ZN14qsort_internal13Partition3WayIP17RODataReplacementi19ROSorterReplacementEENSt3__24pairIT_S6_EES6_S6_T0_T1_
D7c:__ZNK5physx9NpPhysics17getNbConvexMeshesEv
yrd:__ZNK5physx7NpScene29getContactCorrelationDistanceEv
Xgc:__Z34Register_UnityEngine_Gradient_Initv
XQe:_BaseInputModule_GetAxisEventData_m3903709281
APf:_Array_InternalArray__get_Item_TisUriScheme_t1876590943_m1821482697_gshared
FQg:_BigInteger__ctor_m3239748086
Jda:__ZN13ScreenManager23SetIsOrientationEnabledE18EnabledOrientationb
Dx:__ZN7mecanim5human25HumanPoseAddOverrideLayerERNS0_9HumanPoseERKS1_fRKNS_6bitsetILj70EEE
Zod:__ZN5physx16PxsIslandManager16clearEdgeRigidCMERKNS_20PxsIslandManagerHookIjLj4294967295EEE
Z0b:__ZN13ProduceHelperI9TransformLb0EE7ProduceE18MemLabelIdentifier18ObjectCreationMode
lrc:__Z45Register_UnityEngine_GUIStyle_GetFontInternalv
$Mc:__ZN5physx6shdfnd8SyncImpl4waitEj
IOe:_StringComparer_get_InvariantCultureIgnoreCase_m1052445386
GUj:_Component_SendMessageUpwards_m19741277
MHf:_Array_InternalArray__ICollection_Add_TisHitInfo_t1761367055_m2956071622_gshared
Z8a:__ZN10GameObject23VirtualRedirectTransferER18StreamedBinaryReadILb0EE
K5f:_MonoType_HasElementTypeImpl_m1040892148
Yg:_glFrontFace
jjh:_ObjectRecord_get_IsUnsolvedObjectReference_m2202692850
Pah:_FactoryCache_Cleanup_m4130035987
OF:__ZN26AnimatorControllerPlayable14SetLayerWeightEif
X$b:__ZN13ProduceHelperI19LowerResBlitTextureLb0EE7ProduceE18MemLabelIdentifier18ObjectCreationMode
qtd:__ZN5physx13NpVolumeCache17getNbCachedShapesEv
r2a:__ZNSt3__26vectorI16ShadowCasterData13stl_allocatorIS1_L18MemLabelIdentifier2ELi16EEE21__push_back_slow_pathIKS1_EEvRT_
vCf:_PlayableHandle_IsPlayableOfType_TisAnimationClipPlayable_t4099382200_m682525715_AdjustorThunk
Ozk:_UnityAction_1_Invoke_m1279802577_gshared
Yxh:_UInt32_ToString_m1783596809
qqk:_Vector3_get_forward_m1201659139
Tqe:__Z51Register_UnityEngine_TextGenerator_GetLinesInternalv
CGk:_HashSet_1_Init_m1258286688_gshared
xpk:_X509ExtensionCollection_get_Item_m4212651995
hKg:_ReadOnlyCollection_1_System_Collections_IList_RemoveAt_m525136953_gshared
Zpa:__ZN6prcoreL17RemapGenericFloatI17TexFormatRGBFloat18TexFormatRGBAFloatEEvPKNS_9InnerInfoE
Tud:__ZN5physx2Sc5Scene15getRenderBufferEv
byh:_UInt64_System_IConvertible_ToBoolean_m3012279573_AdjustorThunk
Ixl:___towrite
Qvh:_Type_get_IsGenericTypeDefinition_m2147901038
hRa:__ZN12HandlerChain10ToAbsoluteEPKc
KQf:_GregorianCalendar__ctor_m3794576475
Txh:_UInt32_TryParse_m4283512434
Tpj:__ZN21InterfaceFuncInvoker2Ib8IntPtr_tS0_E6InvokeEjP11Il2CppClassP12Il2CppObjectS0_S0_
dDb:__ZN13MonoBehaviour23VirtualRedirectTransferER19StreamedBinaryWriteILb0EE
hK:__ZN9AudioClip11CreateSoundEv
$oi:_Material_get_mainTexture_m432794412
Dkj:_ShimEnumerator_MoveNext_m3313047792_gshared
jCg:_Collection_1_ConvertItem_m2185647560_gshared
vuh:_TimeSpan_op_Inequality_m257547441
Drh:_ExecutionContext_GetObjectData_m1456913356
t6k:__ZN14dense_hash_mapI10KeyWrapperINSt3__24pairIPK9FieldInfoP11Il2CppClassEEEj17ReflectionMapHashIS8_ENS9_14EqualsComparerINS1_8equal_toIS8_EEEENS1_9allocatorINS2_IKS9_jEEEEEC2EjRKSB_RKSF_
qri:_Object_set_hideFlags_m2204253440
V1k:__ZNK15dense_hashtableINSt3__24pairIK10KeyWrapperINS1_IPK10MethodInfoP11Il2CppClassEEEjEES9_17ReflectionMapHashIS8_EN14dense_hash_mapIS9_jSD_NS9_14EqualsComparerINS0_8equal_toIS8_EEEENS0_9allocatorISB_EEE9SelectKeyESI_SK_E13find_positionERSA_
sDa:__ZN13GfxDeviceGLES20CreateComputeProgramEPKhj
DSf:_DateTimeFormatInfo_get_RoundtripPattern_m562440017
Xze:__ZN11UnityEngine7Connect16PersistentValues13RestoreValuesER8JSONRead
P2d:__ZN14SphereCollider22FetchPoseFromTransformEv
PSa:__ZN20ArchiveStorageReader31TryToReadDirectoryFromBlockDataEyPKvj
Mvf:_Double_System_IConvertible_ToByte_m3004284950_AdjustorThunk
CNd:__ZNK5physx2Gu11HeightField17getHeightInternalEff
bdl:__ZN6il2cpp2vmL11GetIdentityEP14Il2CppIUnknown
rdg:_SmallXmlParser_ReadCDATASection_m2558307107
spl:_GC_push_gc_structures
Sqd:__ZNK5physx7NpScene22getClientBehaviorFlagsEh
M3g:_ServicePointManager_get_ServerCertificateValidationCallback_m1409951209
i8c:__ZN5physx9NpFactory14createMaterialEfff
Okf:_Enumerator_get_Current_m1271212567
sU:__ZN5physx5cloth11PhaseConfigC2Et
T8d:__ZN13PhysicsModule21OverlapBoxUserCollectERK8Vector3fS2_RK11Quaternionfi23QueryTriggerInteractionRN8IPhysics12IUserCollectE
ooi:_Input_set_compositionCursorPos_m1615567306
A4g:_IPAddress_ParseIPV6_m2209709575
Cpd:__ZThn8_N5physx2Sc19ShapeInstancePairLLD0Ev
CId:__ZN5physx19PxcContactSphereBoxERKNS_2Gu13GeometryUnionES3_RKNS_11PxTransformES6_RKfRNS_10PxcNpCacheERNS0_13ContactBufferE
tFj:_Toggle_set_group_m3833595685
y7e:_LayoutRebuilder_ForceRebuildLayoutImmediate_m566681977
erd:__ZNK5physx7NpScene21getBroadPhaseCallbackEh
ESc:__ZN5physx6shdfnd5ArrayIPNS_12PxConstraintENS0_19ReflectionAllocatorIS3_EEE15growAndPushBackERKS3_
nvb:__ZNSt3__213__stable_sortIRNS_4lessI4PPtrI11SpriteAtlasEEENS_11__wrap_iterIPS4_EEEEvT0_SA_T_NS_15iterator_traitsISA_E15difference_typeEPNSD_10value_typeEi
LZc:__ZNK5physx2Sc15ArticulationSim11checkResizeEv
uae:__Z37MeshCollider_Get_Custom_PropSkinWidthP12Il2CppObject
UHf:_Array_InternalArray__ICollection_Add_TisVector4_t2243707581_m698578249_gshared
Mwl:_UnlockDoor_OnTriggerEnter_m3581163737
w0:__ZN8keywords6CreateEPKc
IDc:__ZN5physx2Gu11gjkRelativeINS0_8CapsuleVENS0_11ConvexHullVEEEjRKT_RKT0_RKNS_6shdfnd3aos15PsMatTransformVERNSB_5Vec3VESG_SG_RNSB_6FloatVE
S:Math_imul
uli:_GUIStyle_set_active_m2896743432
Tyb:__ZN14SpriteRenderer15SetupPropertiesEv
Ntb:__ZN11PlayerPrefs6GetIntERKN4core12basic_stringIcNS0_20StringStorageDefaultIcEEEEi
sSk:__ZN6il2cpp5utils13dynamic_arrayIPK10Il2CppTypeLj4EEC2ERKS5_
tsi:_Physics_Raycast_m2036777053
Bqe:__Z45TextGenerator_CUSTOM_INTERNAL_get_rectExtentsP12Il2CppObjectP5RectTIfE
ZUg:_CertificateValidationCallback_Invoke_m2500463874
SCf:_SetPropertyUtility_SetStruct_TisChar_t3454481338_m2333420724_gshared
R0e:_Graphic_Raycast_m3582517890
hjf:_Hashtable_ContainsKey_m2716576664
i3d:__ZN12PhysXRaycast19ApplyParticleForcesER13dynamic_arrayI21BatchedColliderResultLj4EE
shk:_PatternCompiler_EmitCategory_m1696942454
Rtf:_Decimal_decimalFloorAndTrunc_m3655683429
mIf:_Array_InternalArray__ICollection_CopyTo_TisInt32_t2071877448_m984622488_gshared
m1:__ZN18ScriptingArguments9AddObjectE18ScriptingObjectPtr
Eue:__Z39CanvasGroup_Get_Custom_PropInteractableP12Il2CppObject
RU:__ZN11UnityEngine15CloudWebService16SessionContainerD2Ev
wGa:__ZN17GenericDynamicVBOC2ER9GfxDevice13GfxBufferModejj
x0j:_Context_get_HasDynamicSinks_m1998518649
znc:__ZZN10GUIManager14InitGUIManagerEvEN41PreUpdateIMGUISendQueuedEventsRegistrator7ForwardEv
pKj:_AnimatorControllerPlayable_ResetTrigger_m758725835_AdjustorThunk
hnd:__ZNK5physx2Sc5Scene7isValidEv
iW:__ZN11UnityEngine15CloudWebService17SessionEventQueue10PurgeItemsEj
htd:__ZN5physx2Sq17SceneQueryManager29setDynamicTreeRebuildRateHintEj
L7a:__ZN6Camera16StandaloneRenderENS_10RenderFlagEP6ShaderRKN4core12basic_stringIcNS3_20StringStorageDefaultIcEEEE
S7e:_Array_System_Collections_IList_get_Item_m2088124007
k8e:_Array_GetLength_m2083296647
Sgf:_SynchronizedArrayListWrapper_ToArray_m1522185111
POb:__Z18Transfer_BlittableI18StreamedBinaryReadILb1EELb1EtEvRK29SerializationCommandArgumentsR31RuntimeSerializationCommandInfo
CBa:__ZN9GfxDevice20DeallocRenderSurfaceEP17RenderSurfaceBase
AYc:__ZN5physx6shdfnd5ArrayIPvNS0_19ReflectionAllocatorINS_18NpArticulationLinkEEEE4copyINS0_15InlineAllocatorILj256ES5_EEEEvRKNS1_IS2_T_EE
Rzh:_ValueType_ToString_m3796301715
aJa:__ZN20GpuProgramParameters36UpdatePrepareValuesMaximumBufferSizeEv
Pzc:__ZNK5physx3Cct10Controller12getKineShapeEv
_hc:__Z53Register_UnityEngine_Quaternion_INTERNAL_CALL_Inversev
UQc:__ZN5physx6shdfnd4sortIPvNS0_4LessIS2_EENS0_19ReflectionAllocatorINS_2Sc18TriggerInteractionEEEEEvPT_jRKT0_RKT1_j
_hi:_GUILayoutGroup__ctor_m992523271
Pib:__ZN12BaseRenderer23RendererBecameInvisibleEv
sld:__ZNK5physx2Sc8BodyCore14getMaxAngVelSqEv
wce:__ZN20TextRenderingPrivate8FontImpl13CharacterInfo8TransferI18StreamedBinaryReadILb0EEEEvRT_
uMb:__Z29Transfer_Blittable_ArrayFieldI24GenerateTypeTreeTransferfEvRT_R9ArrayInfoRK23StaticTransferFieldInfo
DEh:__Z76RuntimeInvoker_RuntimeObject_RuntimeObject_SByte_t454417549_SByte_t454417549PFvvEPK10MethodInfoPvPS4_
yab:__ZN19CustomRenderTexture9AddParentE4PPtrIS_E
Esb:__ZN8Gradient8TransferI14SafeBinaryReadEEvRT_
mBk:_UnityEvent_1_Invoke_m1533100983_gshared
Vma:__ZNSt3__26vectorIN4core12basic_stringIcNS1_20StringStorageDefaultIcEEEE13stl_allocatorIS5_L18MemLabelIdentifier1ELi16EEE7reserveEj
Q3g:_FileWebRequest__ctor_m4003648606
Lfj:__ZL71SpriteState_t1353336012_CustomAttributesCacheGenerator_m_DisabledSpriteP21CustomAttributesCache
Pwf:_Enum_System_IConvertible_ToSByte_m3488526280
dri:_MonoBehaviour_StopAllCoroutines_m1675795839
BJd:__ZN5physx2Gu32PCMConvexVsMeshContactGeneration15processTriangleEPKNS_6PxVec3EjhPKj
xTk:__ZNK15dense_hashtableI10KeyWrapperIPK19Il2CppGenericMethodES4_N6il2cpp8metadata23Il2CppGenericMethodHashEN14dense_hash_setIS4_S7_NS4_14EqualsComparerINS6_26Il2CppGenericMethodCompareEEENSt3__29allocatorIS4_EEE8IdentityESB_SE_E4findERKS4_
NJj:_AnimatorControllerPlayable_GetIntegerString_m2944800090
L6f:_NumberFormatter_Init_m1022036773
mol:_GC_new_free_list_inner
Msj:_DefaultComparer_Equals_m85211180_gshared
z5f:_MonoType_InternalGetEvent_m532443236
gEg:_Collection_1_IndexOf_m2700825189_gshared
dNd:__ZN5physx6shdfnd5ArrayINS_2Cm8Matrix34ENS0_19ReflectionAllocatorIS3_EEE15growAndPushBackERKS3_
IJd:__ZN5physx2Gu32PCMConvexVsMeshContactGeneration31generatePolyDataContactManifoldERNS0_9TriangleVEjjhPNS0_21MeshPersistentContactERjRKNS_6shdfnd3aos6FloatVERNS8_5Vec3VE
lZd:__ZN5physx10SubSortSAH5splitEPjj
Zwc:__ZN8JSONRead8TransferI10RectOffsetEEvRT_PKc17TransferMetaFlagsb
SV:__ZN9JSONWrite8TransferIN11UnityEngine15CloudWebService14DataErrorEvent15FileErrorDetailEEEvRT_PKc17TransferMetaFlags
ePe:_Decoder__ctor_m2623573910
iFc:__ZN5physx2Gu3EPA8addFacetEjjjRKNS_6shdfnd3aos6FloatVES6_
bLg:_ReadOnlyCollection_1_System_Collections_Generic_IListU3CTU3E_RemoveAt_m1731148677_gshared
ZM:__ZN12SoundManager20RegisterModifiedClipEP10SampleClip
myb:__ZN12MeshRenderer15AddAsRenderNodeER15RenderNodeQueueRK20DeprecatedSourceData
SMc:__ZN5physx3Cct9CCTParamsC2Ev
oRk:__ZN15dense_hashtableI10KeyWrapperIPK17Il2CppGenericInstES4_N6il2cpp8metadata21Il2CppGenericInstHashEN14dense_hash_setIS4_S7_NS4_14EqualsComparerINS6_24Il2CppGenericInstCompareEEENSt3__29allocatorIS4_EEE8IdentityESB_SE_E13set_empty_keyERKS4_
ebd:__ZN5physx7NpCloth21setStiffnessFrequencyEf
dCd:__ZN5physx17PxcSweepBoxConvexERKNS_11PxsCCDShapeES2_PKNS_12PxsRigidBodyES5_RKNS_11PxTransformES8_S8_S8_fRNS_6PxVec3ESA_RNS_10PxcNpCacheERNS_18PxcNpThreadContextEf
xVd:__ZThn8_N5physx2Gu11HeightField14onRefCountZeroEv
pok:_X501__cctor_m2610532554
mQc:__ZN5physx2Sc5Actor9setActiveEbj
ewg:_List_1_CheckCollection_m2220107869_gshared
Spb:__ZN7Cubemap23VirtualRedirectTransferER18StreamedBinaryReadILb0EE
mXg:_RecordProtocol_EncodeRecord_m3884270352
QGe:_SHA256_Create_m896954069
yoe:_Read_CVT
IQc:__ZN5physx2Sc10NPhaseCore28reserveContactReportPairDataEjjRj
Upf:_Convert_ToUInt32_m776714429
ODc:__ZN5physx2Gu22barycentricCoordinatesERKNS_6shdfnd3aos5Vec3VES5_S5_RNS2_6FloatVE
JPa:__ZN12FileAccessor4SeekEx10FileOrigin
oLb:__ZL26Transfer_SimpleNativeClassI24GenerateTypeTreeTransfer17AnimationCurveTplIfELb0EEvRK29SerializationCommandArgumentsR31RuntimeSerializationCommandInfo
Mrb:__ZN24GenerateTypeTreeTransfer8TransferI13dynamic_arrayI33EnlightenTerrainChunksInformationLj4EEEEvRT_PKc17TransferMetaFlags
FXd:__ZL18TestUnifiedNormalsjPKN5physx6PxVec3EjPNS_2Gu9TriangleTIjEEb
x8:__ZN16LightmapSettings20DidChangeActiveSceneEP10UnitySceneS1_
Nhj:__ZL59g_AssemblyU2DCSharp_Assembly_CustomAttributesCacheGeneratorP21CustomAttributesCache
VXk:__ZN6il2cpp5utils9PathUtils8BasenameIcEENSt3__212basic_stringIT_NS3_11char_traitsIS5_EENS3_9allocatorIS5_EEEERKSA_
oO:__ZN10AudioMixer11SetupGroupsEv
gpc:__Z35Register_UnityEngine_Event_get_typev
qeg:_PrivateKeyInfo_DecodeRSA_m1427048948
Aal:__ZN6il2cpp2vm9Exception23GetInvalidCastExceptionERKNS_5utils10StringViewIDsEE
s4h:_Assembly_FillName_m1934025015
zNe:_String_IndexOf_m2126171214
uYf:_Int64_ToString_m1544341651_AdjustorThunk
gUd:__ZNK5physx13GuMeshFactory17getNbConvexMeshesEv
tUf:_Guid_CheckNull_m2903986431
qQj:_Bounds__ctor_m1202659404
u2:__Z63ThreadAndSerializationSafeCheckGetMonoBehaviourBeingTransferredv
Yql:_GC_enable
hZg:_TlsClientCertificateVerify_ProcessAsSsl3_m3377063356
S4k:__ZN15dense_hashtableINSt3__24pairIK10KeyWrapperIPK14Il2CppAssemblyEPK22Il2CppMonoAssemblyNameEES6_N6il2cpp5utils11PointerHashIS4_EEN14dense_hash_mapIS6_SA_SF_NS6_14EqualsComparerINS0_8equal_toIS5_EEEENS0_9allocatorISB_EEE9SelectKeyESK_SM_EC2ERKSP_j
QUe:_StandaloneInputModule_set_repeatDelay_m2820945738
bxh:_UInt16_ToString_m4213290405
Dhc:__Z37Register_UnityEngine_Input_GetAxisRawv
T_j:_ChannelServices_RegisterChannel_m3832858065
Wwf:_Enum_GetName_m1226611481
$Lk:_Func_2_Invoke_m4121137703_gshared
Dvb:__ZN14Texture2DArray23VirtualRedirectTransferER18StreamedBinaryReadILb0EE
Xjk:_Literal_CompileLiteral_m276843152
WYb:__ZN2UI13RectTransform13AwakeFromLoadE17AwakeFromLoadMode
P1a:__ZN14qsort_internal30FindAndMovePivotToLastPositionIP20ShadowCasterSortDatai26ShadowCasterSortDataSorterEEvT_S4_T0_T1_
URk:__ZNK15dense_hashtableI10KeyWrapperIPK19Il2CppGenericMethodES4_N6il2cpp8metadata23Il2CppGenericMethodHashEN14dense_hash_setIS4_S7_NS4_14EqualsComparerINS6_26Il2CppGenericMethodCompareEEENSt3__29allocatorIS4_EEE8IdentityESB_SE_E3endEv
MFb:__Z18Transfer_BlittableI14SafeBinaryReadLb1EiEvRK29SerializationCommandArgumentsR31RuntimeSerializationCommandInfo
oxa:__ZN17PersistentManager13GetAllFileIDsERKN4core12basic_stringIcNS0_20StringStorageDefaultIcEEEER13dynamic_arrayIxLj8EE
k9e:_Array_LastIndexOf_m4096535198
Tef:_ArrayList_Add_m1719188324
m5c:__ZN18MultiQueryCallbackIN5physx12PxOverlapHitEE6invokeERfPKNS0_2Sq13PrunerPayloadEj
BEl:dynCall_vifiiiiiiiiiiiiiiiiiiiiiii
awf:_Double_System_IConvertible_ToSByte_m1653690240_AdjustorThunk
wHc:__ZN5physx2Gu18gjkRelativeRayCastINS0_4BoxVES2_NS0_10ShrunkBoxVES3_EEbRT_RT0_RKNS_6shdfnd3aos15PsMatTransformVERKNS9_6FloatVERKNS9_5Vec3VESI_RSD_RSG_SK_fb
fl:_glGetStringi
efl:__ZNK15dense_hashtableI10KeyWrapperIP18Il2CppGenericClassES3_N6il2cpp8metadata22Il2CppGenericClassHashEN14dense_hash_setIS3_S6_NS3_14EqualsComparerINS5_25Il2CppGenericClassCompareEEENSt3__29allocatorIS3_EEE8IdentityESA_SD_E10test_emptyERK30dense_hashtable_const_iteratorIS3_S3_S6_SF_SA_SD_E
UE:__ZZN8Animator15InitializeClassEvEN43FunctorImpl_420kDidModifyAnimatorController4CallEPviR11MessageData
Yvb:__ZN18StreamedBinaryReadILb0EE21TransferSTLStyleArrayI13dynamic_arrayI8Vector4fLj4EEEEvRT_17TransferMetaFlags
OUd:__ZThn8_N5physx2Gu10ConvexMeshD0Ev
M8g:_X509Chain_get_CertificateCollection_m324631835
$vj:_EqualityComparer_1__cctor_m1011898363_gshared
PVe:_AnimationTriggers__ctor_m2623627182
CFf:_Array_InternalArray__IndexOf_TisClientCertificateType_t4001384466_m1168139450_gshared
EW:__ZN11UnityEngine15CloudWebService20WebRequestRestClient18GetResponseHeadersEv
Ptb:__ZNSt3__23mapIN4core12basic_stringIcNS1_20StringStorageDefaultIcEEEE9PrefValueNS_4lessIS5_EENS_9allocatorINS_4pairIKS5_S6_EEEEEixERSB_
z6b:__ZN15DirectorManager22ConstructPlayableGraphEv
NHe:_SymmetricAlgorithm_set_IV_m4262655606
tEj:_StencilMaterial__cctor_m2963056855
cug:_List_1_Find_m3680710386_gshared
LMj:_AnimatorControllerPlayable_Play_m614561002_AdjustorThunk
$5h:_CustomAttributeNamedArgument_GetHashCode_m3715408876_AdjustorThunk
Iqe:__Z38Register_UnityEngine_Font_HasCharacterv
R7g:_X509Certificate2_AppendBuffer_m3517242299
U5a:__Z35IntersectSpherePlaneBoundsOptimizedRKN4math7_float4EPS1_i
Czf:_CultureInfo_get_IsNeutralCulture_m3874876470
Fuf:_Delegate_CreateDelegate_m3813023227
EOc:__ZN5physx2Sc8ShapeSim20createLowLevelVolumeEjRKNS_9PxBounds3EjNS_9AABBMgrIdE
gmk:_Uri_get_AbsoluteUri_m2120317928
xI:__Z100Register_UnityEngine_Animations_AnimatorControllerPlayable_INTERNAL_CALL_GetAnimatorClipInfoInternalv
Shl:__ZN6il2cpp2os5posix15PosixWaitObject13InterruptWaitEv
jbd:__ZNK5physx7NpCloth22getAngularInertiaScaleEv
jJc:__ZN26IntersectAnyVsMeshCallbackILi1ELb1EE10processHitERKN5physx12PxRaycastHitERKNS1_6PxVec3ES7_S7_RfPKj
xFj:_ToggleGroup_RegisterToggle_m3118973598
Z7:__Z22CleanupLODGroupManagerPv
NHf:_Array_InternalArray__ICollection_Add_TisContentType_t1028629049_m2984242302_gshared
Bud:__ZN5physx6shdfnd5ArrayINS_2Sc5Scene14SimpleBodyPairENS0_19ReflectionAllocatorIS4_EEE8recreateEj
zfl:__ZN6il2cpp8metadata15GenericMetadata20RegisterGenericClassEP18Il2CppGenericClass
Pl:_glUniform3fv
vBb:__ZNSt3__218__insertion_sort_3IRN15ResourceManager10Dependency6SorterEPS2_EEvT0_S6_T_
Ilg:_Enumerator_System_Collections_IEnumerator_Reset_m3796537546_AdjustorThunk
Jpe:_UNITY_FT_Init_Class_tt_service_gx_multi_masters
rMh:__Z53RuntimeInvoker_Int32_t2071877448_TimeSpan_t3430258949PFvvEPK10MethodInfoPvPS4_
wCh:__Z64RuntimeInvoker_RuntimeObject_Int32_t2071877448_Int16_t4041245914PFvvEPK10MethodInfoPvPS4_
i5f:_IntComparer_Compare_m3057931085
v0a:__ZNK16LightmapSettings31GetRealtimeLightmapDecodeValuesEv
NO:__ZN5audio5mixer12SetSuspendedERNS0_16AudioMixerMemoryEb
Esa:__ZN17PersistentManager21UnloadNonDirtyStreamsEv
pbl:__ZN6il2cpp2vm13LivenessStateC2EP11Il2CppClassjPFvPP12Il2CppObjectiPvES7_PFvvESB_
GQf:_Array_ConvertAll_TisRuntimeObject_TisRuntimeObject_m2423585546_gshared
rWa:__ZN12ImageFilters4BlitER17ShaderPassContextP7TextureP13RenderTextureiPK18SharedMaterialDataPKcP6ShaderiNS_9BlitFlagsE11CubemapFaceRK8Vector2fSH_
f6g:_Oid__ctor_m1936781897
T5d:__ZN5physx6shdfnd8PoolBaseINS_24NpPtrTableStorageManager8PtrBlockILi4EEENS0_19ReflectionAllocatorIS4_EEE12allocateSlabEv
Jri:_Object_INTERNAL_CALL_Internal_InstantiateSingleWithParent_m1401308849
sW:__ZN11UnityEngine15CloudWebService10RestClientINS0_23WebRequestRestHeaderMapEED2Ev
CYj:_ResourceSet__ctor_m1222864106
PRd:__ZN5physx2Sc5Scene13ccdBroadPhaseEPNS_10PxBaseTaskE
Jzg:_Collection_1_System_Collections_IList_get_Item_m3376056117_gshared
Jsa:__ZN18LoadSceneOperationD0Ev
DJd:__ZN5physx2Gu24PCMMeshContactGeneration15processContactsEhb
ABg:_Collection_1_IsSynchronized_m2601980439_gshared
Hlg:_Enumerator_VerifyState_m3639069574_gshared
AHa:__ZN4crnd25static_huffman_data_model22prepare_decoder_tablesEv
g2b:__ZN16ReflectionProbesD2Ev
jRg:_ModulusRing_Difference_m662924064
tXe:_CanvasUpdateRegistry_ObjectValidForUpdate_m855695984
i4e:_InputField_set_onValueChanged_m2406388125
Fwl:_RespawnScript_Startagain_m735960316
cda:__ZL22CleanupUnityWebStreamsPv
bRb:__Z18Transfer_BlittableI18StreamedBinaryReadILb0EELb0E10ColorRGBAfEvRK29SerializationCommandArgumentsR31RuntimeSerializationCommandInfo
H2g:_ListDictionary_Add_m4276262662
C8:__Znaj
nFe:_RIPEMD160Managed_GGG_m1639995340
IMl:_emscripten_glEnableClientState__wrapper
A$:__ZN17MessageIdentifierC2EPKcNS_7OptionsEPKN5Unity4TypeES1_
RH:__Z76AnimatorControllerPlayable_CUSTOM_INTERNAL_CALL_CrossFadeInFixedTimeInternalR9HPlayableifif
rmj:_Enumerator_System_Collections_IEnumerator_get_Current_m1648049763_gshared
xtl:__ZN6il2cpp6icalls8mscorlib4Mono8Security12Cryptography18KeyPairPersistence15_ProtectMachineEP12Il2CppString
SDd:__ZN5physxL26solveFriction4_StaticBlockEPKNS_23PxcSolverConstraintDescERNS_16PxcSolverContextE
d8e:_Array_System_Collections_IList_Remove_m2438892375
b2f:_TextWriter__ctor_m2225796097
fhb:__ZN14SafeBinaryRead8TransferI14ConstantStringEEvRT_PKc17TransferMetaFlags
xrk:_ScriptableObject_Internal_CreateScriptableObject_m1778903390
wId:__ZN5physx30PxcGetMaterialShapeHeightFieldEPKNS_12PxsShapeCoreES2_RNS_18PxcNpThreadContextEPNS_15PxsMaterialInfoE
_ja:__ZNK6Camera16GetStereoEnabledEv
S2b:__ZN12LightManager15InitializeClassEv
ySd:__ZN5physx6shdfnd8PoolBaseINS_2Sc19ParticlePacketShapeENS0_19ReflectionAllocatorIS3_EEE12allocateSlabEv
_ka:__ZN9ShaderLab11shaderprops16GetComputeBufferEPK19ShaderPropertySheetS3_NS_16FastPropertyNameE
Uli:_GUIStyle_GetFontInternal_m3509743324
z1:__ZN18ScriptingArgumentsC2Ev
Duh:_TimeZone_IsDaylightSavingTime_m875882154
NHl:_emscripten_glBlendFuncSeparate__wrapper
_Vg:_CipherSuiteCollection_System_Collections_IList_set_Item_m750275607
tJj:_AnimatorControllerPlayable_SetFloatID_m3806317182
WEa:__Z17HasSampledTexture14GraphicsFormat13formatSupport
MXa:__ZNK25CameraStackRenderingState27GetStereoImageEffectTextureEb
vGe:_SHA1CryptoServiceProvider__ctor_m3127563759
_q:__ZN8Vector3f8TransferI14SafeBinaryReadEEvRT_
vac:__ZN13BuildSettings13GetSceneIndexERKN4core12basic_stringIcNS0_20StringStorageDefaultIcEEEE
Bhj:__ZL103BaseVertexEffect_t2504093552_CustomAttributesCacheGenerator_BaseVertexEffect_ModifyVertices_m3446986347P21CustomAttributesCache
Bp:FUNCTION_TABLE_ii
onj:_Enumerator_MoveNext_m335649778_AdjustorThunk
Dib:__ZN10TagManager8TransferI18StreamedBinaryReadILb0EEEEvRT_
bfe:__ZN20TextRenderingPrivate8TextMesh13AwakeFromLoadE17AwakeFromLoadMode
Xxh:_UInt32_ToString_m3894907091_AdjustorThunk
Pb:invoke_diiii
QGf:_Array_ForEach_TisRuntimeObject_m1849351808_gshared
oIc:__ZL17sweepVolumeVsMeshPKN5physx3Cct9SweepTestEPKNS0_11TouchedMeshERNS0_12SweptContactERKNS_6PxVec3ERKNS_10PxGeometryERKNS_11PxTransformEjPKNS_10PxTriangleEj
hdg:_SmallXmlParser_Error_m1832158746
el:_glDeleteVertexArrays
RMd:__ZN5physx2Gu31checkOverlapOBB_heightFieldGeomERKNS_10PxGeometryERKNS_11PxTransformERKNS0_3BoxE
vdb:__Z24CreateDirectoryRecursiveRKN4core12basic_stringIcNS_20StringStorageDefaultIcEEEE
_Fl:b41
CWb:__ZN9ShaderLab20SerializedSubProgram8TransferI18StreamedBinaryReadILb0EEEEvRT_
D1f:_StreamAsyncResult_get_AsyncWaitHandle_m4218169359
unc:__Z22MonoGUIContentToNative18ScriptingObjectPtrR10GUIContent
eBc:__ZN5physx2Gu23findRotationMatrixFromZERKNS_6PxVec3E
fDd:__ZNK5physx2Gu29EPASupportMapPairRelativeImplINS0_8CapsuleVENS0_11ConvexHullVEE18doWarmStartSupportEiiRNS_6shdfnd3aos5Vec3VES8_S8_
kre:__ZN2UI13CanvasManager9AddCanvasEPNS_6CanvasE
Lva:__ZN9Texture3D8TransferI19StreamedBinaryWriteILb0EEEEvRT_
RYa:__ZNK6Camera22CalculateRenderingPathEv
evc:__ZN9JSONWrite8TransferI5RectTIfEEEvRT_PKc17TransferMetaFlags
mHj:_AnimationClipPlayable_INTERNAL_CALL_GetRemoveStartOffsetInternal_m3895628593
otd:__ZN5physx13NpVolumeCache10invalidateEv
qKa:__Z13ConvertMipmap14GraphicsFormatPKvS_Pviiii
fHe:_SHA384Managed_processBlock_m3232296629
Fgg:_X509Certificate_get_PublicKey_m714501701
aie:_tt_sbit_decoder_load_image
Fia:__Z14IsHalfRTFormat19RenderTextureFormat
ONe:_String_LastIndexOf_m290475879
Mnc:__ZNSt3__24listIN10GUIManager12SortedScriptE11memory_poolIS2_EE6__sortI13OldSortScriptEENS_15__list_iteratorIS2_PvEESA_SA_jRT_
dPc:__ZN5physx6shdfnd5ArrayIPvNS0_19ReflectionAllocatorINS_2Sc10NPhaseCore16ClothListElementEEEE15growAndPushBackERKS2_
fyh:_UInt64_System_IConvertible_ToChar_m1930853313_AdjustorThunk
cZg:_TlsClientCertificate_SendCertificates_m1096074091
Vjf:_SyncHashtable_get_Item_m408601391
gLg:_ReadOnlyCollection_1_System_Collections_IEnumerable_GetEnumerator_m1401363518_gshared
nzg:_Stack_1_System_Collections_ICollection_CopyTo_m2104527616_gshared
uph:_StringBuilder_AppendFormat_m1666670800
P2a:__ZN18DeferredRenderLoop13RenderGBufferEP13RenderTexturePS1_b8JobFencePK25DeferredRenderLoopScratchRi
nTh:__Z97RuntimeInvoker_Boolean_t3825574718_RuntimeObject_TextGenerationSettings_t2543476768_RuntimeObjectPFvvEPK10MethodInfoPvPS4_
w3h:__Z80RuntimeInvoker_RuntimeObject_RaycastResult_t21186376_RuntimeObject_RuntimeObjectPFvvEPK10MethodInfoPvPS4_
z9k:__ZN6il2cpp6icalls8mscorlib6System9ThreadingL11ThreadStartEPv
Caa:__ZN15DirectorManager12OnSampleTimeEv
yNg:_ReadOnlyCollection_1_System_Collections_IList_Remove_m3878418841_gshared
n4e:_InputField_EnforceContentType_m1902926812
yja:__ZN12CachedReader10Align4ReadEv
Ual:__ZN6il2cpp2vm9Exception28GetMarshalDirectiveExceptionEPKc
n6f:_MulticastDelegate_GetObjectData_m3187757658
Jgb:__ZNK9Behaviour22GetTypeVirtualInternalEv
U5c:__ZN5physx2Sc14ConstraintCore13setBreakForceEff
W6a:__Z21GetScriptingArraySize17ScriptingArrayPtr
Qbe:__ZN20TextRenderingPrivate8FontImpl8TransferI14SafeBinaryReadEEvRT_
TVh:__Z74RuntimeInvoker_Int32_t2071877448_RaycastHit_t87180320_RaycastHit_t87180320PFvvEPK10MethodInfoPvPS4_
gIj:_AnimationOffsetPlayable_INTERNAL_CALL_CreateHandleInternal_m2301240007
Bna:__Z35UnityPropertySheet_MakeSortedColorsRKNSt3__23mapIN9ShaderLab16FastPropertyNameE10ColorRGBAfNS_4lessIS2_EENS_9allocatorINS_4pairIKS2_S3_EEEEEER10vector_mapIS2_S3_S5_NS6_INS7_IS2_S3_EEEEE
dUh:__Z116RuntimeInvoker_Void_t1841601450_Rect_t3681755626_RuntimeObject_Int32_t2071877448_Int32_t2071877448_Int32_t2071877448PFvvEPK10MethodInfoPvPS4_
$li:_GUIStyle_Draw_m4006459684
u8d:__ZZN14PhysicsManager15InitializeClassEvEN63EarlyUpdatePhysicsResetInterpolatedTransformPositionRegistrator7ForwardEv
yCa:__ZN9GfxDevice17ImmediateTexCoordEifff
pik:_Parser_ParseRegularExpression_m2390577313
x7f:_OperatingSystem_Clone_m1943707477
m9g:_X509CertificateEnumerator_System_Collections_IEnumerator_Reset_m327358896
cIf:_Array_InternalArray__ICollection_CopyTo_TisKeyValuePair_2_t1174980068_m1818152223_gshared
WJe:_Hash__ctor_m2554411450
FHe:_SHAConstants__cctor_m2781430679
CLe:_Single_System_IConvertible_ToDateTime_m2510003459_AdjustorThunk
Yuf:_Delegate_RemoveImpl_m3666700529
IFl:_emscripten_glUniform4f__wrapper
$2g:_NameObjectCollectionBase_OnDeserialization_m3478980442
$3e:_InputField_set_caretColor_m2252440840
SPd:__ZN5physx6shdfnd5ArrayINS_25PxcThresholdStreamElementENS0_19ReflectionAllocatorIS2_EEE8recreateEj
KT:__Z78Register_UnityEngine_Audio_AudioPlayableOutput_INTERNAL_CALL_InternalSetTargetv
$Lf:_Array_Resize_TisVector2_t2243707579_m1117258774_gshared
n$a:__ZNK6Camera16GetProjectionFarEv
$r:__Z24InverseTransformRotationRK23TransformAccessReadOnlyRKN4math7_float4E
l4f:_MissingFieldException__ctor_m1161042282
Ydf:_Char_GetHashCode_m2343577184
Fob:__ZNK14PlayableOutput11DerivesFromE17ScriptingClassPtr
Qva:__ZN7Texture34CreateFileTextureUploadInstructionE18TextureUploadFlagsj
gWa:__ZN13ComputeShader14SetBufferParamEjRKN9ShaderLab16FastPropertyNameE15ComputeBufferID
kcd:__ZN5physx7NpCloth21setCollisionMassScaleEf
eNd:__ZN5physx6shdfnd5ArrayINS_7PxPlaneENS0_19ReflectionAllocatorIS2_EEE8recreateEj
X8d:__ZN13PhysicsModule17GetRigidBodyStateERK9RigidbodyPN8IPhysics14RigidBodyStateE
lNg:_ReadOnlyCollection_1_System_Collections_Generic_IListU3CTU3E_Insert_m3054305464_gshared
VD:__ZN8Animator8TransferI14SafeBinaryReadEEvRT_
eGf:_Array_InternalArray__IndexOf_TisTypeTag_t141209596_m2882894956_gshared
FDj:_Slider_get_value_m4182660424
N5:__Z23AsyncReadForceCloseFileRKN4core12basic_stringIcNS_20StringStorageDefaultIcEEEE
tu:__ZN17AnimationPlayable34CollectAnimatorControllerPlayablesER13dynamic_arrayIP26AnimatorControllerPlayableLj4EE
LS:__ZN16BaseVideoTexture19UpdateVideoTexturesEv
ylb:__Z28BuildSingleStreamChannelInfo17ShaderChannelMaskRK20VertexChannelsLayoutS_S2_P11ChannelInfo
nua:__ZNK16LightmapSettings23HasLightProbeTetrahedraEv
n7d:__ZN13ProduceHelperI15CapsuleColliderLb0EE7ProduceE18MemLabelIdentifier18ObjectCreationMode
pYg:_Context_get_WriteSequenceNumber_m243492531
Xtb:__ZN6Sprite23VirtualRedirectTransferER19StreamedBinaryWriteILb0EE
ZEi:__ZL51Assembly_t4268412390_CustomAttributesCacheGeneratorP21CustomAttributesCache
GNe:_String_LastIndexOfAny_m1473637802
wlc:__Z38Transform_CUSTOM_INTERNAL_set_positionP12Il2CppObjectRK8Vector3f
cAh:_Version_CompareTo_m596235198
Y0k:__ZNK15dense_hashtableINSt3__24pairIK10KeyWrapperINS1_IPK9FieldInfoP11Il2CppClassEEEjEES9_17ReflectionMapHashIS8_EN14dense_hash_mapIS9_jSD_NS9_14EqualsComparerINS0_8equal_toIS8_EEEENS0_9allocatorISB_EEE9SelectKeyESI_SK_E5beginEv
qla:__ZNK9ShaderLab7Program19HasMatchingVariantsERK13dynamic_arrayI16ShaderKeywordSetLj4EE
TB:__ZN15SerializeTraitsIN4math4trsXEE8TransferI8BlobSizeEEvRS1_RT_
BFa:__ZN14DataBufferGLES11CopySubDataEPKS_jjj
Oe:_emscripten_glVertexPointer
OOa:__ZNSt3__26__treeI20DeviceDepthStateGLES11memcmp_lessIS1_S1_ENS_9allocatorIS1_EEE7destroyEPNS_11__tree_nodeIS1_PvEE
bte:__ZN2UI13PrepareOutputERNS_7BatchesEjjNS_30AdditionalCanvasShaderChannelsE
gYk:__ZN6il2cpp2vm7Runtime47RaiseExecutionEngineExceptionIfMethodIsNotFoundEPK10MethodInfo
v2a:__Z17GetFrustumPortionPK8Vector3fffPS_
TRc:__ZNK5physx2Gu22SupportMapRelativeImplINS0_4BoxVEE18doWarmStartSupportEiRNS_6shdfnd3aos5Vec3VE
zcl:__ZN15dense_hashtableINSt3__24pairIK10KeyWrapperIP14Il2CppIUnknownEjEES5_N6il2cpp5utils11PointerHashIS3_EEN14dense_hash_mapIS5_jSB_NS5_14EqualsComparerINS0_8equal_toIS4_EEEENS0_9allocatorIS7_EEE9SelectKeyESG_SI_E14squash_deletedEv
zhk:_PatternCompiler_EmitClose_m2394480040
Qlb:__ZN5Light13AwakeFromLoadE17AwakeFromLoadMode
x9i:__ZL60MovedFromAttribute_t922195725_CustomAttributesCacheGeneratorP21CustomAttributesCache
SZe:_DefaultControls_CreateDropdown_m1384069408
ITe:_PointerEventData_get_clickCount_m4064532478
lqf:_CultureAwareComparer_Compare_m2587353351
pyf:_CCGregorianCalendar_is_leap_year_m567513478
iaf:_Attribute_IsDefined_m2118467641
pSe:_ExecuteEvents_Execute_m898902863
V4j:_InternalEnumerator_1_System_Collections_IEnumerator_get_Current_m3125080595_gshared
WFg:_Collection_1_System_Collections_IList_Add_m2091889616_gshared
n7b:__ZN16StreamedResource8TransferI24GenerateTypeTreeTransferEEvRT_
m$e:_DropdownItem_OnPointerEnter_m761897861
GHj:_AnimationLayerMixerPlayable_INTERNAL_CALL_IsLayerAdditiveInternal_m364677421
GI:__Z90Register_UnityEngine_Animations_AnimatorControllerPlayable_INTERNAL_CALL_CrossFadeInternalv
BLc:__ZN5physx3Cct10Controller13onOriginShiftERKNS_6PxVec3E
TLa:__ZN10Matrix3x3f15InvertTransposeEv
sBf:_Array_InternalArray__ICollection_Remove_TisKeyValuePair_2_t1174980068_m2768765894_gshared
gJj:_AnimatorControllerPlayable_GetFloat_m1229536053
EDg:_Collection_1_set_Item_m2199807215_gshared
ACd:__ZN5physx2Gu19_gjkRelativeRayCastINS0_9TriangleVENS0_11ConvexHullVEEEbRT_RT0_RKNS_6shdfnd3aos15PsMatTransformVERKNS9_6FloatVERKNS9_5Vec3VESI_RSD_RSG_SK_f
MIb:__Z29Transfer_Blittable_ArrayFieldI14SafeBinaryRead8Vector3fEvRT_R9ArrayInfoRK23StaticTransferFieldInfo
hxh:_UInt32_System_IConvertible_ToBoolean_m91295134
Jrh:_Monitor_Monitor_test_synchronised_m1542589500
Ice:__ZN20TextRenderingPrivate8FontImpl18ResetCachedTextureEv
cfg:_SymmetricTransform_TransformFinalBlock_m4192185386
gUf:_TextInfo__ctor_m1263401274
NHd:__ZNK5physx19ActorAABBUpdateTask7getNameEv
uuk:_TouchScreenKeyboard_Open_m913506328
Wol:_GC_print_finalization_stats
foj:_ValueCollection__ctor_m927733289_gshared
Fec:__Z53Register_UnityEngine_Behaviour_get_isActiveAndEnabledv
R4g:_IPAddress_ToString_m267966740
Er:__ZNSt3__26vectorIN4core12basic_stringIcNS1_20StringStorageDefaultIcEEEENS_9allocatorIS5_EEE8__appendEj
TAb:__ZN26PlayerSettingsSplashScreen8TransferI17RemapPPtrTransferEEvRT_
G8j:_InternalEnumerator_1_get_Current_m3922357178_gshared
RWk:__ZN6il2cpp6icalls8mscorlib6SystemL17CollectTypeFieldsINS_5utils10functional10TrueFilterEEEvP11Il2CppClassPKS7_iRNSt3__26vectorIP9FieldInfoNSB_9allocatorISE_EEEERKT_
ocj:__ZL72ColorBlock_t2652774230_CustomAttributesCacheGenerator_m_HighlightedColorP21CustomAttributesCache
tSc:__ZN5physx3Scb5Scene20addArticulationJointERNS0_17ArticulationJointE
Vuh:_Type_get_IsValueType_m1733572463
krd:__ZN5physx7NpScene14resetFilteringERNS_12PxRigidActorEPKPNS_7PxShapeEj
t_b:__Z13GetTagManagerv
UBf:_Array_InternalArray__ICollection_Remove_TisUInt16_t986882611_m65494986_gshared
$Lg:_ReadOnlyCollection_1_IndexOf_m3054637117_gshared
aNk:__ZL10roundUp128PyS_
BU:__ZN11UnityEngine15CloudWebService17CloudJobSchedulerD0Ev
BMe:_String_System_IConvertible_ToBoolean_m2696751322
N$d:__ZN15CapsuleCollider23VirtualRedirectTransferER14SafeBinaryRead
Nsa:__ZN18LoadSceneOperation7PerformEv
Mwd:__ZN5physx2Sc5Scene26setSimulationEventCallbackEPNS_25PxSimulationEventCallbackEh
wii:_GUILayer_INTERNAL_CALL_HitTest_m693512502
Kre:__ZNK2UI11CanvasGroup22GetTypeVirtualInternalEv
HAc:__ZL30GeomMTDCallback_CapsuleCapsuleRN5physx6PxVec3ERfRKNS_10PxGeometryERKNS_11PxTransformES5_S8_
hRj:_Camera_get_pixelRect_m2084185953
YIc:__ZL18intersectAnyVsMeshILi0EEbPKN5physx2Gu6SphereEPKNS1_7CapsuleEPKNS1_3BoxERKNS1_13RTreeMidphaseERKNS0_11PxTransformERKNS0_11PxMeshScaleEP14LimitedResults
rXh:__Z163RuntimeInvoker_Void_t1841601450_RuntimeObject_Int32_t2071877448_SByte_t454417549_SByte_t454417549_SingleU26_t4173844468_SingleU26_t4173844468_SingleU26_t4173844468PFvvEPK10MethodInfoPvPS4_
coc:__Z21CleanupGlobalGUIStatev
xth:_TimeSpan__ctor_m1888018443_AdjustorThunk
W1h:__Z74RuntimeInvoker_Int32_t2071877448_UIVertex_t1204258818_UIVertex_t1204258818PFvvEPK10MethodInfoPvPS4_
Qjf:_SyncHashtable_get_Count_m3694444082
jZc:__ZN5physx14NpArticulation6wakeUpEv
k$k:__ZNSt3__26vectorINS_12basic_stringIcNS_11char_traitsIcEENS_9allocatorIcEEEENS4_IS6_EEE8allocateEj
oNa:__ZN22VertexDeclarationCache5ClearEv
rLl:_emscripten_glUniform2i__wrapper
vbb:__ZN17PersistentManager12SetPathRemapERKN4core12basic_stringIcNS0_20StringStorageDefaultIcEEEES6_
Pw:__Z27ProcessRootMotionEmptyMixerP35AnimationPlayableEvaluationConstantP32AnimationPlayableEvaluationInputP33AnimationPlayableEvaluationOutput
b4a:__ZN6Camera24PrepareCullingParametersERK23CameraCullingParameters13RenderingPathR11CullResults
_9b:__Z12SetIUISystemP9IUISystem
Zsa:__ZN19RuntimeSceneManager22EndIntegrateMainThreadEP10UnitySceneNS_11LoadingModeE
eKb:__Z26Transfer_UnityEngineObjectI17RemapPPtrTransferLb0EEvRK29SerializationCommandArgumentsR31RuntimeSerializationCommandInfo
QNe:_String_IsNullOrEmpty_m2802126737
Vcf:_Byte_Parse_m1442736478
cYf:_Int64_Parse_m3258022240
ANe:_String_IndexOfOrdinal_m3591623977
buk:_Texture2D_get_whiteTexture_m1979591766
bmh:_CryptoConfig_EncodeLongNumber_m2352037787
yvh:_Type_GetMethod_m475234662
p_j:_ActivationServices_get_ConstructionActivator_m1726426854
nMb:__Z29Transfer_Blittable_ArrayFieldI24GenerateTypeTreeTransfer4AABBEvRT_R9ArrayInfoRK23StaticTransferFieldInfo
TMi:__ZL52Activator_t1850728717_CustomAttributesCacheGeneratorP21CustomAttributesCache
Ypl:_GC_adj_bytes_allocd
IHf:_Array_InternalArray__ICollection_Add_TisKeyframe_t1449471340_m887263954_gshared
NVd:__ZN5physx20InternalTriangleMesh16allocateVerticesEj
Cvk:_UIVertex__cctor_m803910084
mJf:_Array_InternalArray__Insert_TisDateTime_t693205669_m1484996356_gshared
Uqg:_List_1_System_Collections_IList_Remove_m3933652540_gshared
P0f:_MonoIO_get_ConsoleInput_m2976499023
lbi:_OpCode_get_Size_m481593949_AdjustorThunk
khf:_BitArrayEnumerator_checkVersion_m3839504595
y8e:_Array_GetUpperBound_m1352329707
VFd:__ZN5physx6shdfnd5ArrayINS_17PxcBroadPhasePairENS0_19ReflectionAllocatorIS2_EEE8recreateEj
c1b:__ZNK17AnimationCurveTplIfE20FindIndexForSamplingERKNS0_5CacheEfRiS4_
Ja:invoke_fiiifii
MWg:_RecordProtocol__ctor_m168945279
tsf:_DateTimeOffset_Equals_m3728302791_AdjustorThunk
iHc:__ZThn4_N16RayRTreeCallbackILi1ELb0EED1Ev
g2a:__ZN20SphericalHarmonicsL219AddDirectionalLightERKN4math7_float3ERKNS0_7_float4E
vUd:__ZN5physx13BigConvexDataD2Ev
uuh:_TimeSpan_op_GreaterThanOrEqual_m3997050520
vaa:__Z26ScheduleJobForEachInternalR8JobFencePFvPvjES1_iPFvS1_E11JobPriority
X6g:_OidEnumerator_MoveNext_m1889267785
XTa:__ZZ23InitPlayerLoopCallbacksvEN41PostLateUpdateProfilerEndFrameRegistrator7ForwardEv
Fac:__ZN9Scripting18RaiseMonoExceptionEPKcz
Iqb:__ZN9Texture2D8TransferI19StreamedBinaryWriteILb0EEEEvRT_
gki:_GUISkin_set_box_m877476512
kCk:_TweenRunner_1_StartTween_m3792842064_gshared
q3b:__ZN9ShaderLab16FastPropertyName15InitBy28BitHashEj
KLe:_Single_System_IConvertible_ToInt32_m3269519527_AdjustorThunk
BGe:_SHA1Internal_ProcessBlock_m4070037334
srl:__ZN6il2cpp6icalls8mscorlib6System10Reflection14MonoMethodInfo15get_method_infoE12Il2CppIntPtrP16Il2CppMethodInfo
sKf:_Array_InternalArray__set_Item_TisDouble_t4078015681_m24756265_gshared
Sfh:_ObjRef_GetObjectData_m3081609242
YHd:__ZN5physx20updateBodyShapeAABBsEPKjjS1_PKNS_17PxcAABBDataStaticEPNS_11IntegerAABBEj
H0b:__ZN13ProduceHelperIN2UI13RectTransformELb0EE7ProduceE18MemLabelIdentifier18ObjectCreationMode
Bwb:__ZN17PackedFloatVector12UnpackFloatsEPfiiii
oJg:_ReadOnlyCollection_1__ctor_m3671019970_gshared
Vz:__ZN17AnimationPlayable28UpdateInternalStateRecursiveILi3ELb0EEEvPK35AnimationPlayableEvaluationConstant
tDa:__ZN13GfxDeviceGLES21DestroyComputeProgramER12ObjectHandleI18ComputeProgram_TagPvE
znf:_Convert_ToDecimal_m2007036836
b8:__ZN17UniqueIDGenerator16DestroyPureIndexEj
l4:__ZL21AppendNestedClassName17ScriptingClassPtrRN4core17string_with_labelILi1EEE
qUb:__ZN14SafeBinaryRead21TransferSTLStyleArrayINSt3__26vectorIN9ShaderLab20SerializedSubProgram12UAVParameterENS1_9allocatorIS5_EEEEEEvRT_17TransferMetaFlags
w0j:_Context_NotifyDynamicSinks_m1367144344
KV:__ZN24TextDOMTransferWriteBaseI9JSONWriteE12PushMetaFlagEi
Rbd:__ZN5physx7NpCloth22removeCollisionCapsuleEj
SWg:_TlsClientCertificateVerify__ctor_m110646389
$qa:__ZN6prcoreL26RemapGenericIntegerToFloatI17TexFormatARGB888815TexFormatRFloatEEvPKNS_9InnerInfoE
jWk:__ZN6il2cpp2vm10ThreadPool10InitializeEv
F0j:_Context_GetServerContextSinkChain_m390126977
Z_k:__ZN6il2cpp2vm17TypeNameParseInfoD2Ev
ZPd:__ZN5physx18PxsSolverStartTask16articulationTaskEv
w2f:_StringReader_Read_m513112775
psb:__ZNK8Renderer8GetLayerEv
DTc:__ZN5physx6shdfnd4sortIPvNS0_4LessIS2_EENS0_19ReflectionAllocatorINS_2Cm5BlockIS2_Lj16EEEEEEEvPT_jRKT0_RKT1_j
ykb:__ZN12FlareManager11DeleteFlareEi
A_a:__ZNK6Camera20GetReplacementShaderEv
r5c:__ZN18MultiQueryCallbackIN5physx12PxRaycastHitEE6invokeERfPKNS0_2Sq13PrunerPayloadEj
dtf:_Decimal__ctor_m569480123_AdjustorThunk
i4g:_HttpWebRequest__cctor_m3013631978
Wsl:__ZNSt3__26__treeINS_12__value_typeINS_12basic_stringIcNS_11char_traitsIcEENS_9allocatorIcEEEEPFvvEEENS_19__map_value_compareIS7_SA_NS_4lessIS7_EELb1EEENS5_ISA_EEE4findIS7_EENS_15__tree_iteratorISA_PNS_11__tree_nodeISA_PvEEiEERKT_
DUb:__ZNSt3__26vectorIN9ShaderLab20SerializedSubProgram14ConstantBufferENS_9allocatorIS3_EEE7reserveEj
cva:__ZL23stbir__calculate_memoryP11stbir__info
MIh:__Z83RuntimeInvoker_Void_t1841601450_Int64_t909078037_Int32_t2071877448_Int64_t909078037PFvvEPK10MethodInfoPvPS4_
vAj:_Scrollbar_FindSelectableOnRight_m3219495255
syc:__ZNK9rapidjson12GenericValueINS_4UTF8IcEE13JSONAllocatorE6AcceptINS_12PrettyWriterI16TempBufferWriterS2_S2_S3_EEEEbRT_
DWa:__ZNK6Camera18GetRenderRectangleEv
XIf:_Array_InternalArray__ICollection_CopyTo_TisVector3_t2243707580_m509487340_gshared
kI:__Z82AnimatorControllerPlayable_CUSTOM_INTERNAL_CALL_IsParameterControlledByCurveStringR9HPlayableP12Il2CppString
swc:__ZL26Transfer_SimpleNativeClassI8JSONRead10RectOffsetLb1EEvRK29SerializationCommandArgumentsR31RuntimeSerializationCommandInfo
Mue:__Z44CanvasRenderer_CUSTOM_INTERNAL_CALL_SetColorP12Il2CppObjectRK10ColorRGBAf
VPf:_Component_GetComponentInChildren_TisRuntimeObject_m1823576579_gshared
Owl:_WallJump_OnTriggerEnter_m3692226227
xol:_GC_should_collect
AYd:__ZN5physx2Gu27computeBoundsAroundVerticesERNS_9PxBounds3EjPKNS_6PxVec3E
D_j:_UrlAttribute_Equals_m1587451932
wtc:__Z18Transfer_BlittableI9JSONWriteLb1EsEvRK29SerializationCommandArgumentsR31RuntimeSerializationCommandInfo
qqd:__ZNK5physx7NpScene9getLimitsEv
tWf:_Int16_ToString_m4099416068_AdjustorThunk
dnh:_DSAParameters_t1872138834_marshal_pinvoke_cleanup
ndc:__ZN9Transform16SetLocalRotationERK11Quaternionf
WCd:__ZNK5physx2Gu29EPASupportMapPairRelativeImplINS0_9TriangleVENS0_8CapsuleVEE9doSupportERKNS_6shdfnd3aos5Vec3VERS7_SA_SA_
SJj:_AnimatorControllerPlayable_INTERNAL_CALL_GetIntegerID_m1635852922
h8j:_InternalEnumerator_1_get_Current_m3206960238_AdjustorThunk
aVa:__ZN13RenderManager37RenderCamerasWithScriptableRenderLoopEi
OGd:__ZN3MBP12updateObjectEjRK5IAABB
FWc:__ZN5physx6shdfnd5ArrayINS_6PxVec3ENS0_19ReflectionAllocatorIS2_EEE15growAndPushBackERKS2_
q9:__ZN23InstancedPropInfoStaticL16RegisterCallbackEPv
aC:__ZN7mecanim8skeleton25SkeletonPoseComputeLocalQEPKNS0_8SkeletonEPKNS0_13SkeletonPoseTIN4math4trsXEEEPS7_ii
Egl:__ZN6il2cpp2os19ReleaseSocketHandleEj
pS:__ZN11AudioModule16GetDSPSampleRateEv
nud:__ZN5physx2Sc5Scene20fireTriggerCallbacksEv
e7h:_TypeBuilder_get_next_table_index_m1415870184
xBl:___cxa_can_catch
WRg:_SequentialSearchPrimeGeneratorBase_GenerateNewPrime_m296245934
_df:_Char_GetUnicodeCategory_m4273361321
Lzd:__ZN5physx2Sq10AABBPrunerC2Eb
Lre:__ZN2UI11CanvasGroup23VirtualRedirectTransferER19StreamedBinaryWriteILb0EE
jCd:__ZN5physx2Gu18GJKRelativeRayCastERNS0_8CapsuleVERNS0_4BoxVERKNS_6shdfnd3aos15PsMatTransformVERKNS6_6FloatVERKNS6_5Vec3VESF_RSA_RSD_SH_fb
$3f:_Math_Round_m565516458
n0j:_Identity_get_ClientDynamicProperties_m767245959
Lhl:__ZN6il2cpp2os5posix15PosixWaitObjectC2ENS2_4TypeE
MYa:__ZN6Camera21PostMultiCustomRenderENS_10RenderFlagEb
vbi:_TypeBuilder_create_generic_class_m986834171
RKa:__ZN12_GLOBAL__N_112UploadImagesEP7ApiGLESjji14GraphicsFormatPKhjS2_iiii16TextureUsageModePh
xya:__ZN23ShaderVariantCollection13WarmupShadersEv
cYg:_Context_set_ProtocolNegotiated_m1177527245
lxh:_UInt32_System_IConvertible_ToChar_m1056040486
S3:__Z25GetCommonScriptingClassesv
L1g:_TlsStream_get_Length_m1562309511
ota:__Z27scripting_gc_collect_unsafei
uS:__ZN11AudioModule20SuspendVideoTexturesEv
N2b:__ZN12CubemapArrayC2E18MemLabelIdentifier18ObjectCreationMode
xbe:__Z59Register_UnityEngine_CharacterController_INTERNAL_CALL_Movev
cmd:__ZN5physx13NpRigidStaticC2ERKNS_11PxTransformE
_lf:_Convert_ToByte_m395020137
Vsi:_Plane_ToString_m3541300360_AdjustorThunk
KLb:__Z26Transfer_UnityEngineObjectI24GenerateTypeTreeTransferLb0EEvRK29SerializationCommandArgumentsR31RuntimeSerializationCommandInfo
Wme:_UNITY_FT_GlyphLoader_CheckPoints
vjl:__ZN6il2cpp2vm6Method11GetFullNameEPK10MethodInfo
HAl:___cxa_get_globals_fast
vCd:__ZN5physxL20PxcSweepBoxTrianglesERKNS_11PxsCCDShapeES2_RKNS_11PxTransformES5_S5_S5_fRNS_6PxVec3ES7_RNS_10PxcNpCacheERNS_18PxcNpThreadContextERKNS_2Cm23FastVertex2ShapeScalingERNS_2Gu9TriangleVEf
j3f:_TextWriter_WriteLine_m1754475888
RLc:__ZN5physx3Cct15ObstacleContextD0Ev
iwa:__ZN15SharedLightData7PrecalcEv
aua:__ZN10Matrix4x4fmLERKS_
Syk:_InvokableCall_1_Invoke_m769918017_gshared
dPf:_Array_InternalArray__get_Item_TisDouble_t4078015681_m2215331088_gshared
cpj:_Dictionary_2_Init_m3666073812_gshared
BSa:__ZN15ArchiveReadFileD0Ev
Xeg:_SymmetricTransform_TransformBlock_m1524716432
Eqi:_MeshCollider_get_convex_m2666654546
KEf:_Array_compare_TisColor32_t874517518_m3842009370_gshared
Jxe:__ZN11UnityEngine15PlatformWrapper18GetOperatingSystemEv
evd:__ZN5physx3Scb9Aggregate9syncStateERNS0_5SceneE
DSi:__ZL61ExtensionAttribute_t1840441203_CustomAttributesCacheGeneratorP21CustomAttributesCache
sOg:_ReadOnlyCollection_1_System_Collections_Generic_ICollectionU3CTU3E_Remove_m974176789_gshared
Cuf:_Delegate_return_type_match_m4278947849
P5e:_InputField_GenerateHightlight_m1346735465
YWk:__ZN6il2cpp6icalls8mscorlib6System8MonoType19GetGenericArgumentsEP20Il2CppReflectionType
Hlk:_Uri_ParseNoExceptions_m1151989845
rlf:_GC_SuppressFinalize_m953228702
Sme:_FT_MSB
Vmi:_GUIStyle_get_clipping_m2754700641
nhh:_SoapServices_PreLoad_m490411755
C4b:__ZZL23RegisterLightPropertiesR22GenericPropertyBindingEN29Wrapper_LightShadowNormalBias13GetFloatValueEPv
cGh:__Z63RuntimeInvoker_RuntimeObject_Int32_t2071877448_SByte_t454417549PFvvEPK10MethodInfoPvPS4_
vtl:__ZN6il2cpp6icalls8mscorlib4Mono8Security12Cryptography18KeyPairPersistence10_CanSecureEP12Il2CppString
N0c:__ZN5physx7NpActor17resolveReferencesERNS_24PxDeserializationContextE
s9d:__ZN9Rigidbody15InitializeClassEv
D2j:_Action_1_Invoke_m4180501989_gshared
nDj:_Slider__ctor_m3124136916
$za:__ZN13GfxDeviceGLES14SetRasterStateEPK17DeviceRasterState
bPc:__ZN5physx6shdfnd8internal8HashBaseINS0_4PairIKPKNS_2Sc8ShapeSimENS4_10NPhaseCore16ClothListElementEEES7_NS0_4HashIS7_EENS1_11HashMapBaseIS7_SA_SD_NS0_9AllocatorEE6GetKeyESF_Lb1EE5eraseERS8_
F4e:_InputField_set_caretPositionInternal_m231166704
IOc:__ZN5physx5Elems17setStaticAABBDataEjRKNS_17PxcAABBDataStaticE
yXg:_TlsServerHello__ctor_m3032108168
Jia:__ZN14SafeBinaryRead11EndTransferEv
CEi:__ZL98ILGenerator_t99948092_CustomAttributesCacheGenerator_ILGenerator_Mono_GetCurrentOffset_m3553856682P21CustomAttributesCache
hHb:__ZN14SafeBinaryRead8TransferI8MonoPPtrEEvRT_PKc17TransferMetaFlags
Tck:_InternalEnumerator_1_System_Collections_IEnumerator_get_Current_m1533037706_gshared
BLa:__ZN21UniformBufferTFMethod13MapBoneBufferEj
o$g:_RecordProtocol_SendChangeCipherSpec_m3542001341
dLf:_Array_InternalArray__set_Item_TisVector3_t2243707580_m1390667454_gshared
X9k:__ZNSt3__26vectorIcNS_9allocatorIcEEEC2Ej
Bhc:__Z40Register_UnityEngine_Input_GetKeyDownIntv
Ucg:_KeyPairPersistence_CanSecure_m2251009700
Ex:__ZN7mecanim5human14HumanPoseClearERNS0_9HumanPoseERKNS_6bitsetILj70EEE
Reh:_ReturnMessage_get_Properties_m531965085
f9h:_GenericTypeParameterBuilder_IsSubclassOf_m563999142
w4:__ZN14SerializedFileD2Ev
mde:__ZNSt3__26vectorIN20TextRenderingPrivate8FontImpl7IntRectE13stl_allocatorIS3_L18MemLabelIdentifier34ELi16EEE21__push_back_slow_pathIKS3_EEvRT_
Yoc:__Z30Event_Get_Custom_PropModifiersP12Il2CppObject
QUc:__ZN5physx6shdfnd5ArrayIPvNS0_16AlignedAllocatorILj64ENS0_9AllocatorEEEE15growAndPushBackERKS2_
Ju:__ZN7mecanim9animation16CreateClipOutputEPKNS0_4ClipERNS_6memory9AllocatorE
nJf:_Array_InternalArray__Insert_TisDecimal_t724701077_m1429254816_gshared
V$k:__ZN6il2cpp2vm10Reflection17GetAssemblyObjectEPK14Il2CppAssembly
Bth:_TimeSpan_get_Days_m1002111510
eLc:__ZN5physx3Cct12SweptCapsuleC2Ev
kTb:__ZN6Shader21AwakeFromLoadThreadedEv
bqa:__ZN6prcoreL17RemapGenericFloatI17TexFormatRGBFloat17TexFormatRGBAHalfEEvPKNS_9InnerInfoE
Odj:__ZL70InputField_t1631627530_CustomAttributesCacheGenerator_m_CharacterLimitP21CustomAttributesCache
dyc:__ZN8JSONRead21TransferSTLStyleArrayI13dynamic_arrayI8Vector2fLj4EEEEvRT_18MemLabelIdentifier17TransferMetaFlags
H6d:__ZN5physx24PxcContactBoxHeightFieldERKNS_2Gu13GeometryUnionES3_RKNS_11PxTransformES6_RKfRNS_10PxcNpCacheERNS0_13ContactBufferE
Hul:__ZN6il2cpp2os9SemaphoreC2Eii
R4j:_InternalEnumerator_1_get_Current_m2960188445_AdjustorThunk
jHb:__ZNSt3__26vectorI8MonoPPtr13stl_allocatorIS1_L18MemLabelIdentifier1ELi16EEE8__appendEj
OEj:_Text_set_alignByGeometry_m1514652028
pZa:__ZN14qsort_internal30FindAndMovePivotToLastPositionIP17RODataReplacementi19ROSorterReplacementEEvT_S4_T0_T1_
MLa:__ZN15UniformTFMethod20IsBoneCountSupportedEi
EHd:__ZNK5physx23AggregateAABBUpdateTask7getNameEv
EIe:_X509Certificate_GetExpirationDateString_m2351894475
kqi:_Mesh_DefaultDimensionForChannel_m153181993
wwi:_Rect_Contains_m1334685291_AdjustorThunk
n$f:_FileStream_get_Position_m465478322
IRk:__ZN14dense_hash_setI10KeyWrapperIPK19Il2CppGenericMethodEN6il2cpp8metadata23Il2CppGenericMethodHashENS4_14EqualsComparerINS6_26Il2CppGenericMethodCompareEEENSt3__29allocatorIS4_EEEC2EjRKS7_RKSA_
QCl:dynCall_viidi
rJf:_Array_InternalArray__Insert_TisInt64_t909078037_m3039874636_gshared
yFj:_ToggleGroup_NotifyToggleOn_m997426227
y$g:_RSASslSignatureDeformatter_SetKey_m1150106904
K1:__ZN24ScriptingMethodFiltering17FilterOnSignatureENS_18MethodSearchFilterE
zTd:__ZN5physx13NpClothFabric16scaleRestlengthsEf
HR:__ZN13ProduceHelperI9AudioClipLb0EE7ProduceE18MemLabelIdentifier18ObjectCreationMode
qda:__ZN18ScreenManagerWebGL13SetLockCursorE14CursorLockMode
ome:_cf2_arrstack_finalize
F5f:_MonoType_GetMethodsByName_m1854415088
Yij:_Enumerator_get_CurrentValue_m3147984131_gshared
n7h:_DerivedType_GetMethods_m165266904
Ceg:_RSAManaged_EncryptValue_m4089823119
q0b:__ZN13MonoBehaviour19HandleNotificationsEPviR11MessageData
Lnd:__ZN5physx6shdfnd5ArrayIPNS_2Sc17ParticleSystemSimENS0_19ReflectionAllocatorIS4_EEE8recreateEj
Cli:_GUIStyle_set_focused_m1547304893
b0f:_ReadDelegate_Invoke_m2091885836
w8h:_TypeBuilder_GetField_m2112455315
xGl:b58
yGl:b59
lGl:b52
mGl:b53
jGl:b50
kGl:b51
zLd:__ZN5physx9PxTaskMgrD0Ev
sGl:b57
nGl:b54
oGl:b55
y0d:__ZN19CharacterController8TransferI14SafeBinaryReadEEvRT_
Aqf:_DateTime__ctor_m3604679583_AdjustorThunk
Rdg:_MACAlgorithm_Core_m2390605245
Nbk:_InternalEnumerator_1_System_Collections_IEnumerator_get_Current_m30488070_gshared
j$b:__ZN10GameObject12CleanupClassEv
AXc:__ZN5physx3Scb5Scene13addRigidNoSimINS0_11RigidStaticELb0ELb1EEEvRT_RNS0_13ObjectTrackerE
Smb:__ZN15SerializeTraitsI13dynamic_arrayI11TetrahedronLj4EEE19ResizeSTLStyleArrayERS2_i18MemLabelIdentifier
FAa:__ZN9GfxDevice25SetShaderPropertiesSharedERK19ShaderPropertySheet
EBk:_IndexedSet_1_GetEnumerator_m3646001838_gshared
AEb:__ZN10MonoScript17MainThreadCleanupEv
TGa:__ZN18AsyncUploadManager19AsyncResourceUploadER9GfxDeviceii9TextureID
Byj:_VertexHelper_AddUIVertexTriangleStream_m4009409241
_3b:__ZL25InitializeDefaultMaterialv
kve:__Z53Register_UnityEngine_CanvasRenderer_get_materialCountv
qXg:_TlsStream_Write_m2055734301
aGj:_VertexHelper_AddVert_m3290455716
lxa:__ZN17PersistentManager12UnloadStreamERKN4core12basic_stringIcNS0_20StringStorageDefaultIcEEEEb
hda:__ZN13ScreenManager17RequestResolutionEiibi
Jgl:__ZNK6il2cpp2os6Socket12GetLastErrorEv
CZk:_il2cpp_unity_liveness_calculation_from_statics
ly:__ZNK26AnimatorControllerPlayable11DerivesFromE17ScriptingClassPtr
Qsh:_Scheduler_get_Instance_m1989471839
U5g:_WebProxy_GetProxy_m1249556681
$5g:_WebRequest_System_Runtime_Serialization_ISerializable_GetObjectData_m3377822910
Osb:__ZN8Renderer8TransferI17RemapPPtrTransferEEvRT_
K2h:__Z76RuntimeInvoker_Boolean_t3825574718_UIVertex_t1204258818_UIVertex_t1204258818PFvvEPK10MethodInfoPvPS4_
dEg:_Collection_1_Contains_m1299140035_gshared
x0d:__ZN5physx23PxCapsuleControllerDesc12setToDefaultEv
IGl:_glBlitFramebuffer__wrapper
OHf:_Array_InternalArray__ICollection_Add_TisUICharInfo_t3056636800_m968274080_gshared
OCk:_ObjectPool_1__ctor_m1532275833_gshared
gIk:__ZL24UnresolvedVirtualCall_71P12Il2CppObjectS0_S0_iS0_S0_S0_PK10MethodInfo
bvg:_List_1_GetIndex_m3262928832_gshared
Zcd:__ZNK5physx2Sc9ClothCore16getCollisionDataEPNS_22PxClothCollisionSphereEPjPNS_21PxClothCollisionPlaneES4_PNS_24PxClothCollisionTriangleE
y7a:__Z24LookRotationToQuaternionRK8Vector3fS1_P11Quaternionf
w7a:__ZN16ReflectionProbes9GetCameraEv
zLj:_AnimatorControllerPlayable_ResolveHash_m3629783965_AdjustorThunk
eig:_ArgumentException__ctor_m2105824819
Mte:__ZN2UI6Canvas17SetSortingLayerIDEi
vWe:_BaseMeshEffect_get_graphic_m3358796463
Ihl:__ZN6il2cpp2vm11MethodStack23CleanupForCurrentThreadEv
IMk:_Predicate_1_Invoke_m695569038_gshared
Jjg:_Enumerator_VerifyState_m825848279_AdjustorThunk
Wkb:__ZN20TierGraphicsSettings8TransferI24GenerateTypeTreeTransferEEvRT_
PSk:__ZN15dense_hashtableINSt3__24pairIK10KeyWrapperIN6il2cpp5utils13dynamic_arrayIPK10Il2CppTypeLj4EEEEPFvvEEESA_NS3_8metadata19Il2CppSignatureHashEN14dense_hash_mapISA_SD_SG_NSA_14EqualsComparerINSF_22Il2CppSignatureCompareEEENS0_9allocatorISE_EEE9SelectKeyESK_SM_E16reset_thresholdsEv
SQ:__ZN13AudioPlayable25UpdateChannelGroupVisitorERK16AudioProcessData
EIb:__ZN14SafeBinaryRead21TransferSTLStyleArrayI13dynamic_arrayI4AABBLj4EEEEvRT_17TransferMetaFlags
wna:__ZN18UnityPropertySheet8TransferI19StreamedBinaryWriteILb0EEEEvRT_
MZg:_TlsServerCertificate_checkServerIdentity_m3836435780
jba:__ZNSt3__26__treeINS_12__value_typeIiN11TypeManager18TypeCallbackStructEEENS_19__map_value_compareIiS4_NS_4lessIiEELb1EEENS_9allocatorIS4_EEE7destroyEPNS_11__tree_nodeIS4_PvEE
Efg:_PKCS12_Decrypt_m2353135969
CXj:_PersistentCallGroup_Initialize_m3908067069
Jdi:_MonoEvent_ToString_m386956596
s7i:__ZL70RuntimePlatform_t1869584967_CustomAttributesCacheGenerator_FlashPlayerP21CustomAttributesCache
mMf:_Array_Sort_TisRuntimeObject_m3309514378_gshared
$ja:__ZL19GetCameraTargetRectRK6Camerabb
plj:_Transform_1_BeginInvoke_m1786442111_gshared
YVf:_Int32_GetFormatException_m1729046182
p8a:__ZN13dynamic_arrayIN10GameObject13ComponentPairELj4EE6insertEPS1_RKS1_
Ifb:__ZN21UnityDefaultAllocatorI17LowLevelAllocatorE10DeallocateEPv
qSj:_CanvasRenderer_DisableRectClipping_m2720508088
YY:__GLOBAL__sub_I_runtime_camera2_lump_cpp
nmb:__ZN15SharedLightData22UpdateCookieTextureRefEv
Ls:__ZN15PackedIntVector8TransferI14SafeBinaryReadEEvRT_
gci:_FieldInfo_get_IsLiteral_m267898096
S_c:__ZNK5physx19NpArticulationJoint20getTangentialDampingEv
M0g:_SslStreamBase_EndNegotiateHandshake_m1732321201
Nlj:_Transform_1_BeginInvoke_m1167293475_gshared
fL:__ZN13AudioListener8DoUpdateEv
Tzc:__ZN5physx3Cct10Controller22setUpDirectionInternalERKNS_6PxVec3E
Vlf:__Z13bankers_roundd
KAb:__ZN14SafeBinaryRead8TransferI5RectTIfEEEvRT_PKc17TransferMetaFlags
Xi:_emscripten_glGenFramebuffers
$if:_Hashtable_CopyTo_m2778915805
eba:__ZN17BaseObjectManager16StaticInitializeEPv
D6h:_ConstructorBuilder_get_IsCompilerContext_m2796899803
xFf:_Array_IndexOf_TisUIVertex_t1204258818_m613887160_gshared
OBb:__ZN18StreamedBinaryReadILb0EE19TransferSTLStyleMapINSt3__28multimapIN4core12basic_stringIcNS4_20StringStorageDefaultIcEEEE4PPtrI6ObjectENS2_4lessIS8_EE13stl_allocatorINS2_4pairIKS8_SB_EEL18MemLabelIdentifier51ELi16EEEEEEvRT_17TransferMetaFlags
umf:_DateTime_CoreParse_m2014268103
Fsg:_List_1__ctor_m3698273726_gshared
LNj:_Application_InvokeOnBeforeRender_m799598445
auc:__Z18Transfer_BlittableI9JSONWriteLb0EyEvRK29SerializationCommandArgumentsR31RuntimeSerializationCommandInfo
fka:__ZN13RenderTexture15ThreadedCleanupEv
JBe:__ZNK20UnityWebRequestProtoI19TransportJavaScript16AtomicRefCounter14RedirectHelper14ResponseHelper15DownloadHandler13UploadHandler12HeaderHelper14AsyncOperationE19GetDownloadProgressEv
xEf:_Array_BinarySearch_TisRuntimeObject_m3361740551_gshared
lpb:__ZN12CubemapArray23VirtualRedirectTransferER14SafeBinaryRead
Ldd:__ZNK5physx2Sc9ClothCore23getNbCollisionTrianglesEv
Mu:__ZN21AnimationClipPlayable16ProcessHumanPassEPK35AnimationPlayableEvaluationConstantPK32AnimationPlayableEvaluationInputP33AnimationPlayableEvaluationOutput
V9c:__ZN5physx7NpShape16setFlagsInternalENS_7PxFlagsINS_11PxShapeFlag4EnumEhEE
zOg:_ReadOnlyCollection_1_System_Collections_IList_Add_m616574295_gshared
hbe:__Z48Register_UnityEngine_MeshCollider_get_sharedMeshv
ZVf:_Int32_ProcessTrailingWhitespace_m2812079777
Sjc:__Z43RectTransform_CUSTOM_INTERNAL_set_sizeDeltaP12Il2CppObjectRK13Vector2fIcall
_Hc:__ZN5physx2Gu30distanceSegmentTriangleSquaredERKNS_6shdfnd3aos5Vec3VES5_S5_S5_S5_RS3_S6_
P5g:_WebProxy__ctor_m3679722173
Rdl:__ZN15dense_hashtableINSt3__24pairIK10KeyWrapperINS1_IPKcS4_EEEiEES6_24NamespaceAndNamePairHashN14dense_hash_mapIS6_iS9_NS6_14EqualsComparerI26NamespaceAndNamePairEqualsEENS0_9allocatorIS8_EEE9SelectKeyESD_SF_E6insertERKS8_
lja:__ZN24GenerateTypeTreeTransfer18BeginArrayTransferEPKcS1_Ri17TransferMetaFlags
n8d:__ZN14PhysicMaterial23GetInstantiatedMaterialEPS_R6Object
ZGa:__Z16DecompressCrunchPKhRjR13TextureFormatiiii18MemLabelIdentifier
Qm:___syscall51
Um:___syscall54
gAk:_UnityAction_2_Invoke_m1994351568_gshared
TD:__ZNK8Animator20IsAnyRendererVisibleEv
Xme:_cff_builder_add_point1
Lel:__ZN6il2cpp2vm5Image21GetCachedResourceDataEPK11Il2CppImageRKNSt3__212basic_stringIcNS5_11char_traitsIcEENS5_9allocatorIcEEEE
VVa:__ZN4Mesh10CreateMeshEv
BHf:_Array_InternalArray__ICollection_Add_TisUInt32_t2149682021_m2629016323_gshared
aGb:__Z18Transfer_BlittableI14SafeBinaryReadLb0E10ColorRGBAfEvRK29SerializationCommandArgumentsR31RuntimeSerializationCommandInfo
Fa:invoke_iiiiiiiiii
fJf:_Array_InternalArray__Insert_TisKeyValuePair_2_t888819835_m975554221_gshared
KIh:__Z59RuntimeInvoker_RuntimeObject_Int64_t909078037_RuntimeObjectPFvvEPK10MethodInfoPvPS4_
Osa:__ZN18LoadSceneOperation19IntegrateTimeSlicedEi
$sh:_Scheduler_SchedulerThread_m2209572785
J8f:_SortKeyBuffer_GetResultAndReset_m2516956577
WJ:__ZN4FMOD7SystemI11createSoundEPKcjP22FMOD_CREATESOUNDEXINFOPPNS_5SoundE
sdb:__ZN10FileSystem19SetCurrentDirectoryERKN4core12basic_stringIcNS0_20StringStorageDefaultIcEEEE
m4:__ZN16ScriptingManager24NotifyScriptCacheReleaseEi
wec:__Z47Register_UnityEngine_Coroutine_ReleaseCoroutinev
yXc:__ZN10ScSceneFnsIN5physx3Scb11RigidStaticEE6insertERNS0_2Sc5SceneERS2_
NL:__ZN15AudioReverbZone13SetFMODValuesEv
qUj:_Component_GetComponentInChildren_m3925629424
N0:__ZL19StaticDestroyShaderPv
Je:_glRenderbufferStorageMultisample
mbe:__Z49Register_UnityEngine_MeshCollider_set_inflateMeshv
rz:__ZN23AnimationPlayableOutput17SetTargetAnimatorEP8Animator
fpk:_X509Chain__ctor_m1113875360
RIb:__Z35Transfer_Blittable_SingleValueFieldI14SafeBinaryReadfEvRT_R17GeneralMonoObjectRK23StaticTransferFieldInfo
f_g:_TlsServerHello_processProtocol_m1241336522
rIc:__ZN5physx2Gu20sweepCCTBoxTrianglesEjPKNS_10PxTriangleEbRKNS_13PxBoxGeometryERKNS_11PxTransformERKNS_6PxVec3EfRSA_SD_RfRjPKjfNS_7PxFlagsINS_9PxHitFlag4EnumEtEE
rBf:_Array_InternalArray__ICollection_Remove_TisKeyValuePair_2_t888819835_m1287715465_gshared
QBc:__ZN5physx2Gu15OBBTriangleTestC2ERKNS0_3BoxE
b1j:_ContextAttribute_IsContextOK_m3281216012
n1f:_PathTooLongException__ctor_m3212099251
Dxl:_pad
yDc:__ZN5physx2Gu21computeMTD_SphereMeshERNS_6PxVec3ERfRKNS0_6SphereERKNS_22PxTriangleMeshGeometryERKNS_11PxTransformE
ZIj:_AnimatorControllerPlayable_INTERNAL_CALL_CreateHandleInternal_m1836196929
Us:__ZN17PackedFloatVector8TransferI18StreamedBinaryReadILb0EEEEvRT_
Tpb:__ZN7Cubemap23VirtualRedirectTransferER17RemapPPtrTransfer
hZd:__ZN5physx12SubSortQuick5sort4EPjjRNS_6shdfnd5ArrayINS_11RTreeNodeNQENS2_19ReflectionAllocatorIS4_EEEERjRNS_10PxBounds3VEj
ehc:__Z37Register_UnityEngine_Screen_get_widthv
QVc:__ZN5physx6shdfnd5ArrayIPNS_2Sc8BodyCoreENS0_19ReflectionAllocatorIS4_EEE15growAndPushBackERKS4_
e8b:__ZN22BlockMemoryCacheWriter11GetPathNameEv
B0e:_Graphic_Rebuild_m2617722358
TFd:__ZN5physx16PxsBroadPhaseMBPC2ERNS_19PxcScratchAllocatorERNS_2Cm13EventProfilerERKNS_11PxSceneDescEPNS_14PxsAABBManagerE
C1d:__ZN14PhysicsManager23VirtualRedirectTransferER14SafeBinaryRead
_rf:_DateTime_ToString_m3108726445_AdjustorThunk
OU:__ZN19CloudServiceHandlerD2Ev
OOf:_Array_InternalArray__get_Item_TisTableRange_t2011406615_m602485977_gshared
I5e:_InputField_Append_m2623574152
X2c:__ZN5physx7NpActor14onActorReleaseEPNS_7PxActorE
Zhg:_ApplicationException__ctor_m1120437222
tLc:__ZN5physx3Cct26CharacterControllerManager19computeInteractionsEfPNS_26PxControllerFilterCallbackE
jq:stackAlloc
gUc:__ZN5physx6shdfnd8PoolBaseINS_2Cm5BlockIhLj256EEENS0_19ReflectionAllocatorIS4_EEE12allocateSlabEv
Qec:__Z44Camera_CUSTOM_INTERNAL_CALL_ScreenPointToRayP12Il2CppObjectRK8Vector3fR3Ray
MQa:__ZN25SingleBlockMemoryFileData4LockEPPv
Dai:_MethodBuilder_GetHashCode_m1713271764
Xni:_Input_GetKeyDown_m1771960377
aAf:_Array_get_swapper_TisUIVertex_t1204258818_m1078858558_gshared
S7f:_MSCompatUnicodeTable_GetResource_m3816716847
Zfc:__Z32RectOffset_Get_Custom_PropBottomP12Il2CppObject
N8e:_Array_CreateInstance_m15016505
Ayl:_stat
wj:_JS_Eval_ClearTimeout
kRh:__Z109RuntimeInvoker_Boolean_t3825574718_RuntimeObject_Ray_t2469606224_RaycastHitU26_t1969197280_Single_t2076509932PFvvEPK10MethodInfoPvPS4_
EIf:_Array_InternalArray__ICollection_CopyTo_TisUInt16_t986882611_m3228377237_gshared
xej:__ZL68Navigation_t1571958496_CustomAttributesCacheGenerator_m_SelectOnDownP21CustomAttributesCache
LQj:_Bounds_op_Inequality_m2315096783
tbk:_InternalEnumerator_1_System_Collections_IEnumerator_get_Current_m3065287496_gshared
Nya:__ZNSt3__218__insertion_sort_3IRNS_4lessIN22BuiltinResourceManager8ResourceEEEPS3_EEvT0_S7_T_
$Id:__ZN5physx2Gu21findUniqueConvexEdgesEjPNS0_10ConvexEdgeEjPKNS0_15HullPolygonDataEPKh
Msi:_Physics_RaycastAll_m3256436970
Vmg:_List_1_get_Item_m4100789973_gshared
Zld:__ZN5physx20NpRigidActorTemplateINS_14PxRigidDynamicEED0Ev
nEe:_RC2_set_KeySize_m2015782960
qa:invoke_iiiiiiiiiiii
MDd:__ZN5physx43solveContactCoulombPreBlock_WriteBackStaticEPKNS_23PxcSolverConstraintDescEjRNS_16PxcSolverContextEPNS_25PxcThresholdStreamElementEjPi
sfg:_StrongName_get_PublicKey_m3777577320
eUc:__ZN5physx2Sc5Scene23allocateConstraintBlockEj
wCf:_PlayableHandle_IsPlayableOfType_TisAnimationLayerMixerPlayable_t3057952312_m964258557_gshared
Sgc:__Z43Register_UnityEngine_GameObject_SendMessagev
twl:_U3CRunInputU3Ec__Iterator0_MoveNext_m174139784
u7:__ZNSt3__26__treeINS_12__value_typeIN4core12basic_stringIcNS2_20StringStorageDefaultIcEEEES6_EENS_19__map_value_compareIS6_S7_NS_4lessIS6_EELb1EEE13stl_allocatorIS7_L18MemLabelIdentifier12ELi16EEE7destroyEPNS_11__tree_nodeIS7_PvEE
uOk:__ZN6il2cpp2vm17SetupFieldsLockedEP11Il2CppClassRKNS_2os12FastAutoLockE
W0f:_MonoIOStat_t1621921065_marshal_pinvoke
oYe:_ColorBlock_GetHashCode_m649325222_AdjustorThunk
rSj:_CanvasRenderer_set_hasPopInstruction_m1388844875
uVc:__ZN5physx2Sc5Actor15onElementDetachERNS0_7ElementE
Tdb:__ZN16MemoryFileSystem4NameEv
iRe:_BaseRaycaster_OnEnable_m3641767070
FZe:_DefaultControls_CreateImage_m2821562988
E1d:__ZN14PhysicsManager9onContactERKN5physx19PxContactPairHeaderEPKNS0_13PxContactPairEj
RRg:_PrimeGeneratorBase_get_PrimalityTest_m308005118
Emi:_GUIStyle_Internal_CalcSize_m1309259680
zoc:__ZNK8GUIStyle8CalcSizeER10GUIContent
Aog:_List_1_CheckIndex_m2328469916_gshared
hMh:__Z75RuntimeInvoker_RuntimeObject_RuntimeObject_Decimal_t724701077_RuntimeObjectPFvvEPK10MethodInfoPvPS4_
xzc:__ZN5physx3Cct13BoxController13setHalfHeightEf
fvd:__ZN5physx3Scb13ObjectTracker5clearEv
fee:_UNITY_FT_New_Size
HI:__Z96Register_UnityEngine_Animations_AnimatorControllerPlayable_INTERNAL_CALL_PlayInFixedTimeInternalv
lY:__ZN19CloudServiceHandler11FlushEventsEv
OAc:__ZL23GeomMTDCallback_BoxMeshRN5physx6PxVec3ERfRKNS_10PxGeometryERKNS_11PxTransformES5_S8_
kyg:_List_1_get_Item_m3157283227_gshared
ypf:_Convert_ToString_m2915777777
Sbd:__ZNK5physx7NpCloth22getNbCollisionCapsulesEv
Yna:__ZNSt3__27__sort4IRPFbRKNS_4pairIN9ShaderLab16FastPropertyNameEN18UnityPropertySheet11UnityTexEnvEEES8_EPS6_EEjT0_SD_SD_SD_T_
kme:_cf2_hintmap_build
Mca:__ZN15dense_hashtableINSt3__24pairIKN4core12basic_stringIcNS2_20StringStorageDefaultIcEEEE10vector_setI4PPtrI11SpriteAtlasENS0_4lessISB_EE13stl_allocatorISB_L18MemLabelIdentifier79ELi16EEEEES6_20StringHash32FunctionIS6_EN14dense_hash_mapIS6_SH_SK_NS0_8equal_toIS6_EESE_ISI_LSF_79ELi16EEE9SelectKeyESN_SO_E5clearEv
_je:_Line_Up
m6f:_MonoType_GetGenericTypeDefinition_m2363776160
wAc:__ZL28GeomMTDCallback_SphereSphereRN5physx6PxVec3ERfRKNS_10PxGeometryERKNS_11PxTransformES5_S8_
mYg:_Context_set_SentConnectionEnd_m2641458842
Qe:_emscripten_glBufferSubData
Ybf:_Buffer_BlockCopyInternal_m2627156229
q2e:_Image_set_overrideSprite_m3362535904
$4:__Z20GetCommonStringTablev
LYc:__ZN5physx6shdfnd5ArrayIPvNS0_15InlineAllocatorILj256ENS0_19ReflectionAllocatorINS_7NpShapeEEEEEE15growAndPushBackERKS2_
Ckb:__ZN11HaloManager10UpdateHaloEiR9Transform11ColorRGBA32fjP6Object
dpa:__ZN6prcoreL12RemapGenericI15TexFormatRGB88817TexFormatARGB8888EEvPKNS_9InnerInfoE
Kq:__Z17CalculateGlobalRS23TransformAccessReadOnly
oRj:_Camera_ScreenPointToRay_m614889538
sag:_Kernel_multiByteDivide_m735279869
Rrj:_Dictionary_2_ToTValue_m542772656_gshared
zsh:_Thread_GetNewManagedId_internal_m3211695465
wZc:__ZNK5physx14NpArticulation22computeImpulseResponseEPNS_18PxArticulationLinkERNS_6PxVec3ES4_RKNS_24PxArticulationDriveCacheERKS3_S9_
MQc:__ZN5physx2Sc19ContactReportBuffer23reallocateNotThreadSafeEjRjjj
Chi:_SkinChangedDelegate_Invoke_m2801964040
hQf:_ScriptableObject_CreateInstance_TisRuntimeObject_m926060499_gshared
GGa:__ZN17GenericDynamicVBO17DrawChunkInternalERK21DynamicVBOChunkHandle17ShaderChannelMaskS3_P17VertexDeclarationP16DrawBuffersRangeij
qTc:__ZN5physx2Sc5Actor19registerInteractionEPNS0_11InteractionE
ZSb:__ZN22MemoryCacherReadBlocks14LockCacheBlockEjPPhS1_
Zaf:_Boolean_System_IConvertible_ToChar_m2637404801_AdjustorThunk
DKe:_SecurityContext_Capture_m2535194991
Dwh:_UInt16_System_IConvertible_ToSByte_m3044765342_AdjustorThunk
dLh:__Z66RuntimeInvoker_Void_t1841601450_Int64_t909078037_Int32_t2071877448PFvvEPK10MethodInfoPvPS4_
ede:__ZN20TextRenderingPrivate8FontImpl16CacheFontForTextEPtiifjPK13dynamic_arrayINS_16TextFormatChangeELj4EE
g9d:__ZN13PhysicsModule19CreateNxHeightFieldEPv
yLf:_Array_qsort_TisUIVertex_t1204258818_TisUIVertex_t1204258818_m512606409_gshared
hEe:__Z21ArrayElementTypeCheckP11Il2CppArrayPv
iKl:_emscripten_glTexSubImage2D__wrapper
u3g:_NameValueCollection_AsSingleString_m10599052
TBj:_ScrollRect_RubberDelta_m2533506730
sAl:__ZNSt3__212basic_stringIcNS_11char_traitsIcEENS_9allocatorIcEEE6appendEjc
n7f:_Object_InternalGetHashCode_m1371384246
syj:_Navigation_get_defaultNavigation_m2185194207
MWf:_Int32_System_IConvertible_ToSByte_m1449623243_AdjustorThunk
rhg:_AccessViolationException__ctor_m1270251537
qwe:__Z42Register_UnityEngine_Canvas_get_rootCanvasv
ypk:_X509ExtensionCollection_IndexOf_m3972100651
gHb:__Z14resize_trimmedINSt3__26vectorI8MonoPPtr13stl_allocatorIS2_L18MemLabelIdentifier1ELi16EEEEEvRT_j
yf:_TTF_RenderText_Solid
xxh:_UInt32_System_IConvertible_ToInt64_m3091851828
v4f:_MissingMethodException__ctor_m3898429715
Ogh:_RemotingConfiguration_RegisterClientProviderTemplate_m514821425
Ljj:_Enumerator_System_Collections_IEnumerator_Reset_m3085583937_gshared
Deg:_RSAManaged_ExportParameters_m2873993187
azg:_Enumerator__ctor_m2816143215_AdjustorThunk
pAe:__ZN11UnityEngine7Connect16PersistentValuesC2Ev
H8g:_X509Chain_FindParent_m404663796
t4f:_MissingMemberException__ctor_m2164043278
jNk:__ZL7log2_32j
IJa:__Z15IsIEEE754Format14GraphicsFormat
jKb:__Z19TransferField_ArrayI17RemapPPtrTransfer27Converter_UnityEngineObjectEvRK23StaticTransferFieldInfoR31RuntimeSerializationCommandInfoRT0_
A7d:__Z13RegisterClassI19CharacterControllerEvv
Wpd:__ZNK5physx2Sc7BodySim13isConnectedToERKNS0_8RigidSimERb
nYf:_NumberFormatter_InitDecHexDigits_m1612588520
A1d:__ZN14PhysicsManager23VirtualRedirectTransferER17RemapPPtrTransfer
SBa:__ZN13GfxDeviceGLES15UploadTexture2DE9TextureID16TextureDimensionPKhiii14GraphicsFormati18TextureUploadFlags16TextureUsageMode
GYf:_IntPtr_System_Runtime_Serialization_ISerializable_GetObjectData_m21554269_AdjustorThunk
EN:__ZN4FMOD6System9createDSPEP20FMOD_DSP_DESCRIPTIONPPNS_3DSPE
Vy:__ZN7mecanim9animation26DestroyControllerWorkspaceEPNS0_19ControllerWorkspaceERNS_6memory9AllocatorE
UJ:__ZN4FMOD8ChannelI11EndCallbackEv
cIe:_ToBase64Transform_TransformBlock_m2201454137
noc:__ZN8GUIStyle14SetDefaultFontEPN13TextRendering4FontE
mbi:_OpCode_get_StackBehaviourPop_m3787015663_AdjustorThunk
phk:_PatternCompiler_EmitCount_m3609178511
ttb:__ZN15QualitySettings23VirtualRedirectTransferER24GenerateTypeTreeTransfer
YLj:_AnimatorControllerPlayable_CrossFadeInFixedTime_m1610244979_AdjustorThunk
oMk:_U3CCreateWhereIteratorU3Ec__Iterator1D_1_System_Collections_Generic_IEnumerableU3CTSourceU3E_GetEnumerator_m2682676065_gshared
TPf:_Component_GetComponent_TisRuntimeObject_m4109961936_gshared
zmi:_GUIStyle_Internal_GetCursorStringIndex_m1491806746
NJd:__ZN5physx2Gu32PCMConvexVsMeshContactGeneration35generateTriangleFullContactManifoldERNS0_9TriangleVEjPKjhRKNS0_13PolygonalDataEPNS0_16SupportLocalImplIS2_EEPNS0_12SupportLocalEPNS0_21MeshPersistentContactERjRKNS_6shdfnd3aos6FloatVERNSI_5Vec3VE
h_k:__ZN6il2cpp2os10FileHandleC2Ev
Vic:__Z59Register_UnityEngine_MonoBehaviour_Internal_CancelInvokeAllv
eRk:__ZN30dense_hashtable_const_iteratorINSt3__24pairIK10KeyWrapperIPK19Il2CppGenericMethodEPK26Il2CppGenericMethodIndicesEES6_N6il2cpp8metadata23Il2CppGenericMethodHashEN14dense_hash_mapIS6_SA_SE_NS6_14EqualsComparerINSD_26Il2CppGenericMethodCompareEEENS0_9allocatorISB_EEE9SelectKeyESI_SK_EppEv
Dzd:__ZNK16OBBAABBTest_SIMDclERKN5physx2Sq9BucketBoxE
lpi:_Mathf_Cos_m238853451
Jde:_UNITY_FT_Request_Metrics
pcl:__ZN6il2cpp6icalls8mscorlib6System10Reflection10MonoMethod29get_IsGenericMethodDefinitionEP22Il2CppReflectionMethod
X8k:__ZN6il2cpp2vm6Thread21AllocThreadStaticDataEi
wmf:_DateTime_YearMonthDayFormats_m4204607055
aYe:_ColorBlock_set_disabledColor_m3502887543_AdjustorThunk
cll:__ZN30dense_hashtable_const_iteratorINSt3__24pairIK10KeyWrapperIPK19Il2CppGenericMethodEP10MethodInfoEES6_N6il2cpp8metadata23Il2CppGenericMethodHashEN14dense_hash_mapIS6_S9_SD_NS6_14EqualsComparerINSC_26Il2CppGenericMethodCompareEEENS0_9allocatorISA_EEE9SelectKeyESH_SJ_EppEv
QR:__Z13RegisterClassI13AudioListenerEvv
ADk:_Aes__ctor_m4020215067
wG:__ZN23AnimationOffsetPlayable11GetPositionEv
ltc:__Z18Transfer_BlittableI9JSONWriteLb0E8Vector3fEvRK29SerializationCommandArgumentsR31RuntimeSerializationCommandInfo
wg:_emscripten_glUniform4i
z0e:_Graphic_OnDisable_m2360886868
SJc:__ZN16RayRTreeCallbackILi0ELb1EED2Ev
Jf:_emscripten_glUniform4f
sxa:__ZN6Object22CheckInstanceIDsLoadedEPii
$j:___unlock
yI:__Z105Register_UnityEngine_Animations_AnimatorControllerPlayable_INTERNAL_CALL_GetAnimatorClipInfoCountInternalv
OBj:_ScrollRect_InternalCalculateOffset_m3083065267
D2d:__ZN14SphereCollider10SmartResetEv
rhf:_Comparer_Compare_m4132969818
gP:__ZN20SoundChannelInstance19setReverbPropertiesEP29FMOD_REVERB_CHANNELPROPERTIES
TF:__ZNK26AnimatorControllerPlayable14IsInTransitionEi
Jtj:_DefaultComparer_Equals_m2171836276_gshared
Oal:__ZN6il2cpp2vm9Exception18GetFormatExceptionEPKc
fmc:__Z40Register_UnityEngine_Transform_IsChildOfv
WKc:__ZN5physx3Cct17CapsuleController15setClimbingModeENS_21PxCapsuleClimbingMode4EnumE
EBd:__ZN5physx6shdfnd9atomicAddEPVii
jff:_ArrayList_Sort_m923359189
Ofc:__Z45Register_UnityEngine_Display_GetSystemExtImplv
owd:__ZN5physx6shdfnd5ArrayINS_3Scb13MaterialEventENS0_19ReflectionAllocatorIS3_EEE6resizeEjRKS3_
Jv:__ZN7mecanim9animation23TransformValuesFromClipEiiiRKNS_10ValueArrayERKNS0_10ClipOutputERKNS0_12ClipBindingsERS1_RNS_14ValueArrayMaskEb
AHd:__ZNK5physx14SingleAABBTask25updateNumFastMovingShapesEv
zQj:_Bounds_set_center_m2069004927_AdjustorThunk
tqc:__Z46GUIStyle_CUSTOM_Internal_DrawWithTextSelectionP12Il2CppObjectR43MonoInternal_DrawWithTextSelectionArguments
wse:__ZNSt3__218__insertion_sort_3IRNS_6__lessIN2UI14DepthSortEntryES3_EEPS3_EEvT0_S7_T_
fei:_MonoField_CheckGeneric_m1527550038
BYd:__ZN5physx17ConvexMeshBuilder16computeGaussMapsEv
z9:__ZN13RuntimeStaticI15DirectorManagerLb0EE16StaticInitializeEPv
Cdg:_AttrListImpl_Add_m130708252
Ash:_Thread_get_ManagedThreadId_m1995754972
CQe:_BaseInput_get_touchCount_m998724785
Lzb:__ZN11TimeManager6UpdateEv
qya:__ZN6Shader18LoadDefaultShadersEv
zZc:__ZNK5physx2Sc16ArticulationCore22computeImpulseResponseERNS0_8BodyCoreERNS_6PxVec3ES5_RKNS_9PxcFsDataERKS4_SA_
a6e:_InputField_get_preferredWidth_m3185355225
bLd:__ZN5physx21PxsBodyTransformVaultC2Ev
Qhi:_GUIUtility_get_pixelsPerPoint_m2667928361
rsh:_Thread_SetState_m3198426726
Dff:_ArrayListWrapper_Contains_m1158465965
YId:__ZL6IsInYZffPPK10VertexInfo
vZd:__ZN5physx19TriangleMeshBuilderD0Ev
Hyl:_fflush
Zta:__ZN17LightProbeContext4InitERK16LightmapSettingsRK14RenderSettings
Bvl:__GLOBAL__sub_I_Error_cpp
Cjk:_Alternation_GetWidth_m4218808325
qua:__ZN9Texture3DD2Ev
B3g:_TypeConverterAttribute__ctor_m4061167050
Wfe:_UNITY_ft_create_default_module_classes
Dyg:_Enumerator_MoveNext_m3315718998_gshared
Q9c:__ZN5physx2CmlsERNS0_12RenderOutputERKNS0_10DebugArrowE
Igi:_Font_add_textureRebuilt_m1282639736
M_g:_RecordProtocol_ProcessChangeCipherSpec_m3233959862
k5a:__Z34ProcessIndexListIsNodeVisibleStep2RK22SceneCullingParametersPK9SceneNodePK4AABBR9IndexList
yEb:__ZN10MonoScriptD2Ev
VDj:_Slider_OnRectTransformDimensionsChange_m4109401172
L5g:_WebHeaderCollection_Get_m3391944907
phc:__Z39Input_CUSTOM_INTERNAL_get_mousePositionP8Vector3f
$ie:_tt_cmap13_char_next
tUa:__ZN9ShaderLab4Pass16SetupPassOptionsEv
tBk:_UnityEvent_4__ctor_m3102731553_gshared
Kh:_JS_Sound_ReleaseInstance
h7i:__ZL72IL2CPPStructAlignmentAttribute_t130316838_CustomAttributesCacheGeneratorP21CustomAttributesCache
TAa:__ZN13GfxDeviceGLES19DrawBuffersIndirectEP9GfxBufferPK18VertexStreamSourceiP17VertexDeclaration17ShaderChannelMask16GfxPrimitiveType15ComputeBufferIDj
UGj:_AnimationClipPlayable__ctor_m1126286616
$Rd:__ZN5physx16PxsCCDBlockArrayINS_13PxsCCDOverlapELi128EE8pushBackEv
Rqk:_Renderer_get_sortingLayerID_m2403577271
QGb:__Z35Transfer_Blittable_FixedBufferFieldI14SafeBinaryReaddEvRK29SerializationCommandArgumentsR31RuntimeSerializationCommandInfo
NIl:_emscripten_glPixelStorei__wrapper
VNh:__Z98RuntimeInvoker_Void_t1841601450_Int32_t2071877448_Int32_t2071877448_SByte_t454417549_RuntimeObjectPFvvEPK10MethodInfoPvPS4_
ekc:__Z21Resources_CUSTOM_LoadP12Il2CppStringP12Il2CppObject
fn:FUNCTION_TABLE_diddi
ASe:_ExecuteEvents_Execute_m2863348178
lkc:__Z26Material_CUSTOM_SetIntImplP12Il2CppObjectii
HVf:_Int16_System_IConvertible_ToSingle_m3277935657_AdjustorThunk
SMj:_AnimatorControllerPlayable_HasState_m3003093532_AdjustorThunk
cse:__ZNK2UI14CanvasRenderer22GetTypeVirtualInternalEv
D1j:_InternalRemotingServices__cctor_m3821625125
kgc:__Z42Register_UnityEngine_RectOffset_get_bottomv
vph:_StringBuilder_Insert_m3322917127
Psj:_DefaultComparer_Equals_m724229128_gshared
Hyd:__ZN5physx14PxsAABBManagerD2Ev
BEf:_Array_compare_TisCustomAttributeNamedArgument_t94157543_m3453821210_gshared
_nf:_Convert_ToDouble_m3520060872
gIl:_emscripten_glUniform1f__wrapper
uCl:dynCall_di
E$g:_SslCipherSuite_ComputeServerRecordMAC_m1876572367
ryd:__ZN5physx16PxsIslandManagerD2Ev
Qce:__ZN20TextRenderingPrivate19NativeTextGeneratorC2ERK11UTF16StringPNS_8FontImplE11ColorRGBA32ifRK8Vector2fbifiibffbbbP13dynamic_arrayIN2UI8UIVertexELj4EE
Usc:__Z28RegisterModule_JSONSerializev
Grh:_Interlocked_CompareExchange_m3227034792
LCe:_HashAlgorithm_get_Hash_m931854461
lfk:_DefaultComparer_Compare_m3564013922_gshared
kZb:__ZN2UI13RectTransform8TransferI14SafeBinaryReadEEvRT_
Ytc:__Z35Transfer_Blittable_FixedBufferFieldI9JSONWriteaEvRK29SerializationCommandArgumentsR31RuntimeSerializationCommandInfo
WJj:_AnimatorControllerPlayable_INTERNAL_CALL_SetIntegerString_m2571852706
Q9b:__Z20IsHumanControllingUsv
GVa:__ZNK19RenderEventsContext21ExecuteCommandBuffersEijR17ShaderPassContextR15RenderNodeQueueP19ProfilerInformationi
C2d:__ZN14SphereCollider5ResetEv
shb:__ZN10systeminfo21GetPersistentDataPathEv
t_e:_Dropdown_set_value_m2945561009
KAa:__ZN13GfxDeviceGLES17DestroyGpuProgramEPK10GpuProgram
VSf:_GregorianCalendar_GetMonth_m523739832
EFb:__Z44InitializeTransferFunctionScriptingTraitsForI18StreamedBinaryReadILb0EEEvR31TransferFunctionScriptingTraits
i1a:__ZNSt3__218__insertion_sort_3IR23CompareReflectionProbesP31RuntimeReflectionProbeBlendInfoEEvT0_S5_T_
tKb:__ZN12NativeBufferI27Converter_SimpleNativeClassI8GradientEE15SetupForWritingER9ArrayInfo
gca:__ZNSt3__213__stable_sortIRNS_4lessIN4core12basic_stringIcNS2_20StringStorageDefaultIcEEEEEENS_11__wrap_iterIPS6_EEEEvT0_SC_T_NS_15iterator_traitsISC_E15difference_typeEPNSF_10value_typeEi
tBf:_Array_InternalArray__ICollection_Remove_TisKeyValuePair_2_t3716250094_m2566517826_gshared
Wgi:_GameObject_AddComponent_m3757565614
Yca:__ZN12_GLOBAL__N_113StaticDestroyEPv
HQk:__ZN30dense_hashtable_const_iteratorINSt3__24pairIK10KeyWrapperIPKcEP11Il2CppClassEES5_N6il2cpp5utils11StringUtils12StringHasherIS4_EEN14dense_hash_mapIS5_S8_SE_NS5_14EqualsComparerINSB_13VmStringUtils21CaseSensitiveComparerEEENS0_9allocatorIS9_EEE9SelectKeyESJ_SL_EppEv
frk:_Rigidbody_get_isKinematic_m2907467582
eVf:_Guid_ToString_m51661589
vnc:__ZNK8GUIStyle4DrawER8GUIStateRK5RectTIfER10GUIContentbbbb
AEj:_Text_set_font_m1095513810
iNl:_glUnmapBuffer__wrapper
hrf:_DateTime_System_IConvertible_ToUInt32_m1363211018_AdjustorThunk
t3e:_InputField_get_cachedInputTextGenerator_m881618486
URj:_Canvas_get_rootCanvas_m1790974328
mic:__Z32Mesh_CUSTOM_ExtractArrayFromListP12Il2CppObject
h5h:_Binder_get_DefaultBinder_m965620943
rxc:__ZN8JSONRead21TransferSTLStyleArrayINSt3__26vectorI8Gradient13stl_allocatorIS3_L18MemLabelIdentifier1ELi16EEEEEEvRT_17TransferMetaFlags
gAb:__ZNSt3__218__insertion_sort_3IRNS_6__lessINS_4pairIPKN5Unity4TypeE7Hash128EES8_EEPS8_EEvT0_SC_T_
VLb:__ZN10RectOffset8TransferI24GenerateTypeTreeTransferEEvRT_
N9e:_SimpleEnumerator_get_Current_m482975946
Wac:__Z18GetResourceManagerv
lzl:_srand
jse:__ZN2UI13CanvasManager19RemoveDirtyRendererEPNS_6CanvasEPNS_14CanvasRendererE
f9c:__ZN5physx7NpShape18setQueryFilterDataERKNS_12PxFilterDataE
dSk:__ZN15dense_hashtableI10KeyWrapperIPK17Il2CppGenericInstES4_N6il2cpp8metadata21Il2CppGenericInstHashEN14dense_hash_setIS4_S7_NS4_14EqualsComparerINS6_24Il2CppGenericInstCompareEEENSt3__29allocatorIS4_EEE8IdentityESB_SE_E12resize_deltaEjj
XPj:_AudioClip_InvokePCMSetPositionCallback_Internal_m2304858844
pua:__ZN9Texture3DC2E18MemLabelIdentifier18ObjectCreationMode
o5e:_InputField_KeyPressed_m3066588581
OMd:__ZN5physx20PxcNpCacheStreamPair5resetEv
_Cj:_Selectable_DoStateTransition_m539253088
lHe:_SHA512_Create_m439875055
sY:__ZN11UnityEngine15CloudWebService17WebFileDownloaderINS0_20WebRequestRestClientENS0_23WebRequestRestHeaderMapEED2Ev
qc:invoke_vi
dHe:_SHA384Managed_update_m2629600295
APa:__ZN15dense_hashtableINSt3__24pairIKN4core12basic_stringIcNS2_20StringStorageDefaultIcEEEEP20ArchiveStorageReaderEES6_20StringHash32FunctionIS6_EN14dense_hash_mapIS6_S9_SC_NS0_8equal_toIS6_EE13stl_allocatorISA_L18MemLabelIdentifier54ELi16EEE9SelectKeyESF_SI_ED2Ev
oc:invoke_vd
Jb:invoke_vf
T5:__ZNK10GameObject8IsActiveEv
lfc:__Z34Component_Get_Custom_PropTransformP12Il2CppObject
hlh:_SByte_System_IConvertible_ToUInt32_m4256495110
eTe:_PointerEventData_set_eligibleForClick_m2036057844
xJa:__ZN18GfxFramebufferGLES23SetupDefaultFramebufferEPP17RenderSurfaceBaseS2_N2gl6HandleILNS3_10ObjectTypeE9EEE
Pyl:_mbsinit
Oli:_GUIStyle_get_Internal_clipOffset_m4237737448
bVc:__ZN5physx2Sq16computeWorldAABBERKNS_3Scb5ShapeERKNS1_5ActorE
N9i:__ZL70EventSystem_t3466835263_CustomAttributesCacheGenerator_m_FirstSelectedP21CustomAttributesCache
Gda:__ZN13ScreenManager18RequestOrientationE17ScreenOrientation
TOk:__ZN6il2cpp2vm5Class12SetupMethodsEP11Il2CppClass
iHd:__ZN5physx14PxsAABBManager31updateAggregateBPOverlapRecordsEv
Ddc:__Z39DeleteLastPathNameComponentWithAnySlashRKN4core12basic_stringIcNS_20StringStorageDefaultIcEEEE
xnc:__ZN10GUIManager14InitGUIManagerEv
Kdj:__ZL68InputField_t1631627530_CustomAttributesCacheGenerator_m_KeyboardTypeP21CustomAttributesCache
eGj:_VerticalLayoutGroup_CalculateLayoutInputHorizontal_m497637066
OLj:_AnimatorControllerPlayable_CrossFadeInFixedTimeInternal_m1452579496
Gqk:_RectTransformUtility_PixelAdjustPoint_m560908615
ldh:_MethodCall__ctor_m4106494862
CFh:__Z167RuntimeInvoker_Void_t1841601450_SByte_t454417549_SByte_t454417549_SByte_t454417549_SByte_t454417549_SByte_t454417549_SByte_t454417549_SByte_t454417549_SByte_t454417549PFvvEPK10MethodInfoPvPS4_
g5d:__ZN5physx7profile10DataBufferINS_6shdfnd6MutexTINS0_26WrapperReflectionAllocatorIhEEEENS0_14ScopedLockImplIS6_EEED2Ev
Jqc:__Z37Register_UnityEngine_GUIStyle_Cleanupv
Xa:invoke_iiifii
Msk:_StackTraceUtility_ExtractStringFromExceptionInternal_m2568950546
jZf:_BinaryReader_FillBuffer_m3097603599
BXk:__ZN6il2cpp6icalls8mscorlib6System8MonoType13IsPointerImplEP20Il2CppReflectionType
Knf:_Convert_ToDecimal_m2284596541
IKj:_AnimatorControllerPlayable_GetLayerIndex_m747049736
_0d:__ZN9Rigidbody16AddNonConvexMeshER8ListNodeI12MeshColliderE
sj:_emscripten_glFramebufferRenderbuffer
_Xf:_Int64_GetHashCode_m4047499913
q8a:__ZN9Transform30EnsureTransformHierarchyExistsEv
mZk:_il2cpp_field_get_flags
Xvd:__ZN5physx2Sc14ConstraintCore15getPxConstraintEv
t_d:__ZNK8Collider12GetRigidbodyEv
jaf:_Attribute_IsDefined_m216577166
ap:FUNCTION_TABLE_viiiiiiii
nef:_Char_ToUpper_m109978609
TG:__Z94Register_UnityEngine_Animations_AnimationLayerMixerPlayable_INTERNAL_CALL_CreateHandleInternalv
m8j:_InternalEnumerator_1_get_Current_m1089848479_gshared
Zvf:_Double_System_IConvertible_ToInt64_m3798425616
BEe:_Rijndael_Create_m113171669
hh:___cxa_find_matching_catch_4
wbc:__ZN13MonoBehaviour13StopCoroutineEPKc
nbb:__ZNSt3__26vectorINS_4pairIN4core12basic_stringIcNS2_20StringStorageDefaultIcEEEEPK17MessageIdentifierEENS_9allocatorISA_EEE12__move_rangeEPSA_SE_SE_
qZa:__ZN14qsort_internal17MedianOfThreeSwapIP17RODataReplacement19ROSorterReplacementEEvT_S4_S4_T0_
KNk:__ZNK15dense_hashtableINSt3__24pairIK10KeyWrapperIPK22Il2CppGenericParameterEP11Il2CppClassEES6_N6il2cpp5utils11PointerHashIS4_EEN14dense_hash_mapIS6_S9_SE_NS6_14EqualsComparerINS0_8equal_toIS5_EEEENS0_9allocatorISA_EEE9SelectKeyESJ_SL_E3endEv
zdc:__ZN17TransformInternal36OnScaleChangedCalculateTransformTypeE15TransformAccess
Hgf:_SynchronizedArrayListWrapper_InsertRange_m709359548
YRa:__ZN17ArchiveFileSystem10ToAbsoluteEPKc
FRg:_BigInteger_op_Modulus_m13450242
Aof:_Convert_ToInt32_m2988544165
kjc:__Z53PlayableHandle_CUSTOM_INTERNAL_CALL_GetPlayableTypeOfR9HPlayable
AA:__ZN7mecanim6CRCKeyENS_7eStringE
w1g:_SslStreamBase_get_CanWrite_m2069502593
d_b:__ZL12SetPrefValueRKN4core12basic_stringIcNS_20StringStorageDefaultIcEEEERK9PrefValue
M$:__ZN19ShaderPropertySheet20ReservePropertyCountEj
Pll:__ZN6il2cpp5utils11StringUtils6PrintfEPKcz
T7k:__ZNSt3__26vectorIN6il2cpp8metadata18GenericArrayMethodENS_9allocatorIS3_EEE7reserveEj
joa:__ZN15NameToObjectMapI6ShaderNSt3__23mapI4PPtrIS0_EN4core12basic_stringIcNS5_20StringStorageDefaultIcEEEENS1_4lessIS4_EENS1_9allocatorINS1_4pairIKS4_S9_EEEEEENS1_8multimapIS9_S4_NSA_IS9_EENSC_INSD_IKS9_S4_EEEEEEE4FindERSK_
Ikj:_ShimEnumerator_Reset_m98005789_gshared
Eva:__ZN24GenerateTypeTreeTransfer21TransferResourceImageE19ActiveResourceImagePKcR13StreamingInfoPvjiPKN5Unity4TypeE
Hri:_Object_INTERNAL_CALL_Internal_InstantiateSingle_m3932420250
bNg:_ReadOnlyCollection_1_System_Collections_IList_set_Item_m1377990618_gshared
bai:_ILGenerator_make_room_m373147874
I5d:__ZN5physx6shdfnd8PoolBaseINS_24NpPtrTableStorageManager8PtrBlockILi16EEENS0_19ReflectionAllocatorIS4_EEED2Ev
psj:_Dictionary_2_Init_m1045257495_gshared
EMl:_emscripten_glLinkProgram__wrapper
OOk:__ZN6il2cpp2vm5Class12GetFinalizerEP11Il2CppClass
jui:_PlayableHandle_SetDurationInternal_m3359857977
Gbf:_Boolean_CompareTo_m3691698947_AdjustorThunk
JFf:_Array_InternalArray__IndexOf_TisKeyValuePair_2_t888819835_m2660446234_gshared
ceg:_PKCS1_Verify_v15_m2571212635
Anb:__ZNSt3__212__deque_baseI18ReflectionProbeJobNS_9allocatorIS1_EEED2Ev
Yz:__ZN11UnityEngine9Animation27DestroyAnimationSetBindingsEPNS0_20AnimationSetBindingsERN7mecanim6memory9AllocatorE
hUb:__ZN15dense_hashtableINSt3__24pairIKiN4core17string_with_labelILi1EEEEEi18SInt32HashFunctionN14dense_hash_mapIiS5_S7_NS0_8equal_toIiEE13stl_allocatorIS6_L18MemLabelIdentifier1ELi16EEE9SelectKeyESA_SD_E13set_empty_keyERKS6_
y3c:__ZN5physx2Sc9ShapeCore23setSimulationFilterDataERKNS_12PxFilterDataE
QE:__ZN8Animator12CleanupClassEv
DPe:_DecoderReplacementFallbackBuffer__ctor_m1305504326
pxc:__Z13TransferFieldI8JSONReadLb0E27Converter_SimpleNativeClassI10RectOffsetEEvRK23StaticTransferFieldInfoR31RuntimeSerializationCommandInfoRT1_
yNe:_String_IndexOf_m570401060
Jwf:_Enum_System_IConvertible_ToDateTime_m2924690746
V_e:_Dropdown_CreateBlocker_m4109366440
GCe:_HashAlgorithm_System_IDisposable_Dispose_m2106335965
Mel:__GLOBAL__sub_I_GenericMetadata_cpp
T4d:__ZN5physx7profile12MemoryBufferINS0_21WrapperNamedAllocatorEE5writeIyEEvRKT_
kvi:_RangeAttribute__ctor_m1657271662
Wmc:__ZNK8GUIStyle4DrawER8GUIStateRK5RectTIfER10GUIContentib
PWk:__ZN6il2cpp6icalls8mscorlib6System8MonoType18GetFields_internalEP20Il2CppReflectionTypeiS5_
L4a:__Z24CalculateSpotLightBoundsffRK10Matrix4x4fR15SpotLightBounds
V7f:_TailoringInfo__ctor_m2248501932
JU:__ZN23CloudWebServicesManager23VirtualRedirectTransferER14SafeBinaryRead
hFh:__Z150RuntimeInvoker_Int32_t2071877448_RuntimeObject_Int32_t2071877448_Int32_t2071877448_RuntimeObject_Int32_t2071877448_Int32_t2071877448_Int32_t2071877448PFvvEPK10MethodInfoPvPS4_
dgf:_FixedSizeArrayListWrapper_InsertRange_m2690348965
ODb:__Z19ShouldTransferFieldR32SerializationCommandQueueBuilder17ScriptingClassPtriR18TransferField_InfoRK20CoreScriptingClasses
C0f:_MemoryStream_Read_m2289595005
JO:__ZN5audio5mixer22UpdateAudioMixerMemoryERKNS0_18AudioMixerConstantERNS0_16AudioMixerMemoryEfPN4FMOD6SystemEf
Dbe:__ZL21InitializeCachedStripPv
C9k:__ZN6il2cpp6icalls8mscorlib6System9Threading6Thread23GetCachedCurrentCultureEP12Il2CppThread
tCj:_Selectable_get_allSelectables_m3045831006
rZa:__ZNK6Camera22GetWorldToCameraMatrixEv
R5k:__ZN14dense_hash_mapI10KeyWrapperINSt3__24pairIPK10MethodInfoP11Il2CppClassEEEj17ReflectionMapHashIS8_ENS9_14EqualsComparerINS1_8equal_toIS8_EEEENS1_9allocatorINS2_IKS9_jEEEEE15set_deleted_keyERSH_
yhl:__ZN6il2cpp2vm12GenericClass11IsValueTypeEP18Il2CppGenericClass
bDb:__ZN13MonoBehaviour7SetNameEPKc
zUg:_ContentInfo__ctor_m3579805263
tQk:__ZN15dense_hashtableINSt3__24pairIK10KeyWrapperIPKcEP11Il2CppClassEES5_N6il2cpp5utils11StringUtils12StringHasherIS4_EEN14dense_hash_mapIS5_S8_SE_NS5_14EqualsComparerINSB_13VmStringUtils21CaseSensitiveComparerEEENS0_9allocatorIS9_EEE9SelectKeyESJ_SL_E15set_deleted_keyERKS9_
Ryd:__ZN5physx6shdfnd8PoolBaseINS_2Sc26ActorPairContactReportDataENS0_19ReflectionAllocatorIS3_EEE15disposeElementsEv
BBj:_ScrollRect_get_verticalNormalizedPosition_m1701804869
bta:__ZN18AwakeFromLoadQueue5ClearEv
Wmj:_Enumerator_get_Current_m2986380627_AdjustorThunk
PTd:__ZN5physx6shdfnd5ArrayIfNS0_19ReflectionAllocatorIfEEE8recreateEj
y3a:__ZNSt3__27__sort5IR15ReflProbeSorterPP15ReflectionProbeEEjT0_S6_S6_S6_S6_T_
S9:__ZN8Playable10DisconnectEPS_i
D5j:_InternalEnumerator_1_get_Current_m1526874475_AdjustorThunk
Xk:_glGenTransformFeedbacks
Nxa:__ZN13LoadOperationD2Ev
Kcg:_KeyPairPersistence__ctor_m1817312194
wDd:__ZN5physx20PxsSolverCoreGeneral6createEv
OAf:_Array_InternalArray__ICollection_Contains_TisMark_t2724874473_m1640201705_gshared
bRc:__ZL29GeomOverlapCallback_SphereBoxRKN5physx10PxGeometryERKNS_11PxTransformES2_S5_PNS_2Gu12TriggerCacheE
S7h:_TypeBuilder_get_AssemblyQualifiedName_m2097258567
Zna:__ZNSt3__27__sort5IRPFbRKNS_4pairIN9ShaderLab16FastPropertyNameEN18UnityPropertySheet11UnityTexEnvEEES8_EPS6_EEjT0_SD_SD_SD_SD_T_
HLj:_AnimatorControllerPlayable_GetParameterCount_m1050153685_AdjustorThunk
fFa:__ZNK7ApiGLES18GetExtensionStringEv
hIf:_Array_InternalArray__ICollection_CopyTo_TisSlot_t2267560602_m1792475781_gshared
hIl:_emscripten_glVertexAttrib1f__wrapper
fRa:__ZNK12HandlerChain4SizeERK13FileEntryData
ltj:_DefaultComparer_Equals_m1281232537_gshared
hq:FUNCTION_TABLE_iiiiiiiii
B4e:_InputField_set_asteriskChar_m619206227
mbd:__ZN5physx7NpCloth15setInertiaScaleEf
tmh:_DES_IsSemiWeakKey_m3967392585
Uuk:_Transform_get_localRotation_m4001487205
bfi:_MonoProperty_get_PropertyType_m1921201152
aXd:__ZN5physx6shdfnd4sortIPvNS0_4LessIS2_EENS0_19ReflectionAllocatorIN17PxcPoolMallocData10PoolData16EEEEEvPT_jRKT0_RKT1_j
mEc:__Z19sweepBox_SphereGeomRKN5physx10PxGeometryERKNS_11PxTransformERKNS_2Gu3BoxERKNS_6PxVec3EfRNS_10PxSweepHitENS_7PxFlagsINS_9PxHitFlag4EnumEtEEf
vol:_GC_allochblk
gta:__Z15UnloadGameScenev
dNl:_glCheckFramebufferStatus__wrapper
VUd:__ZNK5physx13GuMeshFactory15getHeightFieldsEPPNS_13PxHeightFieldEjj
X$d:__ZN15CapsuleCollider9SetRadiusEf
KQg:_BigInteger_get_Rng_m2525288368
Zhh:_BinaryCommon_IsPrimitive_m2132448955
eah:_X509ExtensionEnumerator_Reset_m3200687545
god:__ZN5physx2Cm20visualizeJointFramesERNS0_12RenderOutputEfRKNS_11PxTransformES5_
shf:_CaseInsensitiveHashCodeProvider__ctor_m3775398833
Cfk:_Comparer_1_System_Collections_IComparer_Compare_m674728644_gshared
GId:__ZN5physx22PxcContactPlaneCapsuleERKNS_2Gu13GeometryUnionES3_RKNS_11PxTransformES6_RKfRNS_10PxcNpCacheERNS0_13ContactBufferE
_gc:__Z36Renderer_Get_Custom_PropSortingOrderP12Il2CppObject
o1k:__ZNK15dense_hashtableINSt3__24pairIK10KeyWrapperIPK10Il2CppTypeEjEES6_N6il2cpp8metadata14Il2CppTypeHashEN14dense_hash_mapIS6_jSB_NS6_14EqualsComparerINSA_26Il2CppTypeEqualityComparerEEENS0_9allocatorIS8_EEE9SelectKeyESF_SH_E13find_positionERS7_
Kga:__ZN8Material10SetTextureEN9ShaderLab16FastPropertyNameEP7Texture
oTj:_Collider_set_material_m2093403565
NKb:__Z18Transfer_BlittableI24GenerateTypeTreeTransferLb0E8Vector2fEvRK29SerializationCommandArgumentsR31RuntimeSerializationCommandInfo
EKb:__Z18Transfer_BlittableI24GenerateTypeTreeTransferLb1EhEvRK29SerializationCommandArgumentsR31RuntimeSerializationCommandInfo
SKc:__ZN5physx3Cct17CapsuleController9setRadiusEf
Ncc:__ZNK16TypeTreeIterator10ByteOffsetEv
e0e:_Graphic_get_rectTransform_m2697395074
S8:__ZnwjRKSt9nothrow_t
pD:__ZN8Animator11ClearObjectEv
pCb:__ZNSt3__26vectorIi13stl_allocatorIiL18MemLabelIdentifier12ELi16EEE8__appendEj
OWf:_Int32_System_IConvertible_ToSingle_m4225885999_AdjustorThunk
g2d:__ZN9Rigidbody17MainThreadCleanupEv
h7g:_X500DistinguishedName_Decode_m3070515374
qma:__ZN14SafeBinaryRead19TransferSTLStyleMapINSt3__23mapI39DeprecatedFastPropertyNameSerializationN18UnityPropertySheet11UnityTexEnvENS1_4lessIS3_EENS1_9allocatorINS1_4pairIKS3_S5_EEEEEEEEvRT_17TransferMetaFlags
_ic:__Z45Register_UnityEngine_MonoBehaviour_IsInvokingv
S4g:_IPv6Address_set_ScopeId_m1442934355
ojh:_ObjectManager_RaiseOnDeserializedEvent_m512850179
_7c:__ZN5physx9NpPhysics26unregisterDeletionListenerERNS_18PxDeletionListenerE
Gbc:__Z35UnregisterSerializationCacheBuilderPFv17ScriptingClassPtrR23CachedSerializationDataRbE
Hpl:_GC_reclaim_uninit
Qka:__Z30GetBuiltinVectorParamArraySize24BuiltinShaderVectorParam
G7f:_CodePointIndexer__ctor_m797342079
u6a:__ZN21RendererUpdateManager11AddRendererER8Renderer
D$b:__Z13RegisterClassI15ResourceManagerEvv
C0c:__ZNK5physx18NpArticulationLink15getArticulationEv
a9g:_X509Certificate2Enumerator_System_Collections_IEnumerator_get_Current_m3551585134
gGb:__Z35Transfer_Blittable_FixedBufferFieldI14SafeBinaryReadsEvRK29SerializationCommandArgumentsR31RuntimeSerializationCommandInfo
Lwb:__ZN14SafeBinaryRead21TransferSTLStyleArrayI13dynamic_arrayIfLj4EEEEvRT_17TransferMetaFlags
Qll:__ZN6il2cpp5utils11StringUtils11Utf16ToUtf8EPKDs
Mxe:__ZN11UnityEngine15PlatformWrapper20IsRootedOrJailbrokenEv
dUa:__ZZ23InitPlayerLoopCallbacksvEN52PreLateUpdateScriptRunBehaviourLateUpdateRegistrator7ForwardEv
J7g:_X509Certificate2_GetNameInfo_m402390219
G4a:__Z33IntersectAABBPlaneBoundsOptimizedRK4AABBPKN4math7_float4Ei
S9e:_Swapper_BeginInvoke_m2652511022
Lwi:_RectOffset_t3387826427_marshal_pinvoke_back
XAa:__ZN9GfxDevice19EndGeometryJobFrameEv
yKb:__ZN27Converter_SimpleNativeClassI17AnimationCurveTplIfEE17ScriptingToNativeER18ScriptingObjectPtrPS1_
urf:_DateTime_get_UtcNow_m1309841468
d1c:__ZN5physx2Sc15CoreInteraction17isCoreInteractionEPNS0_11InteractionE
eul:__ZN6il2cpp8metadata24Il2CppGenericInstCompare7CompareERK10KeyWrapperIPK17Il2CppGenericInstES8_
M4d:__ZThn132_N5physx7profile8ZoneImplINS_28PxProfileNameProviderForwardEED0Ev
yzc:__ZN5physx3Cct13BoxController17setHalfSideExtentEf
bRk:__ZNK15dense_hashtableINSt3__24pairIK10KeyWrapperIPK19Il2CppGenericMethodEPK26Il2CppGenericMethodIndicesEES6_N6il2cpp8metadata23Il2CppGenericMethodHashEN14dense_hash_mapIS6_SA_SE_NS6_14EqualsComparerINSD_26Il2CppGenericMethodCompareEEENS0_9allocatorISB_EEE9SelectKeyESI_SK_E5beginEv
v0e:_Graphic_get_materialForRendering_m2600868951
Yt:__ZN27AnimationLayerMixerPlayable21UpdateLayerParametersEv
QDg:_Collection_1_System_Collections_IList_Contains_m3210868188_gshared
b1b:__ZNK17AnimationCurveTplIfE8EvaluateEfPNS0_5CacheE
hTa:__Z31ManagerContextInitializeClassesv
ERf:_NumberFormatter_AppendIntegerString_m868842252
lee:_UNITY_FT_List_Finalize
u_a:__Z20LightAttenuateApproxRKfS0_
u3:__ZN9Scripting30SetCachedPtrOnScriptingWrapperE18ScriptingObjectPtrP6Object
ANb:__Z18Transfer_BlittableI19StreamedBinaryWriteILb0EELb0EdEvRK29SerializationCommandArgumentsR31RuntimeSerializationCommandInfo
VOe:_ASCIIEncoding_GetBytes_m3649277167
Thi:_GUILayoutUtility_Internal_GetWindowRect_m1287880151
IIj:_AnimationPlayableOutput_get_Null_m577023
A0j:_Context_GetProperty_m1664740450
Awa:__ZN18BlockRangeInternal16PopLastNodeIndexEP10BlockRangeji
Uzh:_Version__ctor_m2972638031
Obd:__ZN5physx7NpCloth19setCollisionSpheresEPKNS_22PxClothCollisionSphereEj
Zag:_Kernel_MultiplyByDword_m155008287
$vb:__ZN4MeshD0Ev
EIh:__Z121RuntimeInvoker_Void_t1841601450_Int64_t909078037_RuntimeObject_RuntimeObject_Int64_t909078037_RuntimeObject_RuntimeObjectPFvvEPK10MethodInfoPvPS4_
qCe:__ZL42RequestRecreateEyeTexturesBeforeNextUpdatev
eka:__ZNK6Camera20IsCurrentlyRenderingEv
Iv:__ZN21AnimationClipPlayable23ProcessRootMotionNoClipEPK35AnimationPlayableEvaluationConstantPK32AnimationPlayableEvaluationInputP33AnimationPlayableEvaluationOutput
Vue:__Z36CanvasRenderer_CUSTOM_SetPopMaterialP12Il2CppObjectS0_i
duc:__Z18Transfer_BlittableI9JSONWriteLb0EdEvRK29SerializationCommandArgumentsR31RuntimeSerializationCommandInfo
Bjb:__ZN6Camera8TransferI19StreamedBinaryWriteILb0EEEEvRT_
JKg:_ReadOnlyCollection_1_System_Collections_IList_Insert_m3679749778_gshared
HFj:_Toggle_OnDidApplyAnimationProperties_m325835214
Exl:_wctomb
Uec:__Z27Camera_CUSTOM_GetAllCamerasP11Il2CppArray
vlf:_Convert_InternalFromBase64String_m3682756716
Cd:___cxa_rethrow
QVd:__ZN5physx20InternalTriangleMesh17allocateFaceRemapEv
Dvc:__Z18Transfer_BlittableI8JSONReadLb1EhEvRK29SerializationCommandArgumentsR31RuntimeSerializationCommandInfo
_Lj:_AnimatorControllerPlayable_CrossFadeInFixedTimeInternal_m3383124488
nIl:_glBindRenderbuffer__wrapper
jjk:_Regex_System_Runtime_Serialization_ISerializable_GetObjectData_m4035555909
Sth:_TimeSpan_Add_m3228293154
otj:_DefaultComparer_Equals_m4098991076_gshared
k8a:__ZN13MonoBehaviour8SetClassE17ScriptingClassPtr18ScriptingObjectPtr
eUg:_RC4__cctor_m523650203
vrd:__ZNK5physx7NpScene26getBounceThresholdVelocityEv
Vxd:__ZN5physx6shdfnd8PoolBaseINS_2Sc12SimStateDataENS0_19ReflectionAllocatorIS3_EEE15disposeElementsEv
g1j:_CrossContextDelegate_Invoke_m2908136830
Oda:__ZN20LocalFileSystemPosix4ReadER13FileEntryDatayyPvPy
X1a:__ZNSt3__211__sift_downIRN23ForwardShaderRenderLoop18RenderObjectSorterILb0EEEP21ForwardRenderPassDataEEvT0_S7_T_NS_15iterator_traitsIS7_E15difference_typeES7_
F3f:_UnmanagedMemoryStream_get_Position_m4093669769
_Hh:__Z90RuntimeInvoker_Void_t1841601450_IntPtr_t_RuntimeObject_Int32_t2071877448_Int32_t2071877448PFvvEPK10MethodInfoPvPS4_
rDb:__ZN13MonoBehaviour5DoGUIENS_13GUILayoutTypeEii
M7h:_DerivedType_IsDefined_m555719351
Bgk:_Mark_get_IsDefined_m3332701456
dfb:__ZNK12TLSAllocatorI14StackAllocatorE8ContainsEPKv
Nzb:__ZN11TimeManager8TransferI18StreamedBinaryReadILb0EEEEvRT_
HVd:__ZNK5physx13GuMeshFactory19getNbTriangleMeshesEv
IYb:__ZN15SerializeTraitsINSt3__23mapI4PPtrI6ShaderEN4core12basic_stringIcNS5_20StringStorageDefaultIcEEEENS0_4lessIS4_EENS0_9allocatorINS0_4pairIKS4_S9_EEEEEEE8TransferI24GenerateTypeTreeTransferEEvRSH_RT_
Emh:_DESTransform__cctor_m1179482644
nwb:__ZN14BlendShapeData8TransferI14SafeBinaryReadEEvRT_
NEc:__ZN5physx2Gu15getPolygonIndexERKNS0_13PolygonalDataEPNS0_12SupportLocalERKNS_6shdfnd3aos5Vec3VE
Otk:_TextGenerator_PopulateWithErrors_m467881283
Uwf:_Enum_Format_m2294492821
OOd:__ZN5physx36normalizePartitionsWithArticulationsERNS_6shdfnd5ArrayIjNS0_19ReflectionAllocatorIjEEEEPNS_23PxcSolverConstraintDescEPKNS_13PxcSolverBodyEjjS5_Pjj
xpb:__ZN7Texture25ReloadFromStorageIfNeededEPvb
l0c:__ZN5physx18NpArticulationLink17setLinearVelocityERKNS_6PxVec3Eb
R3h:_OverflowException__ctor_m2564269836
Qud:__ZN5physx2Sq17SceneQueryManager17processSimUpdatesEv
Skj:_ShimEnumerator_get_Entry_m2332479818_gshared
Prf:_DateTime_CheckDateTimeKind_m329345155_AdjustorThunk
gpe:_Update_Max
p9k:__ZN6il2cpp6icalls8mscorlib6SystemL15ThrowNoWideningEv
xYc:__ZN5physx6shdfnd5ArrayIPvNS0_19ReflectionAllocatorINS_13NpRigidStaticEEEE15growAndPushBackERKS2_
k1b:__ZNK23TransformChangeDispatch24GetChangeMaskForInterestENS_12InterestTypeE
Jlc:__Z45Transform_CUSTOM_INTERNAL_CALL_TransformPointP12Il2CppObjectRK8Vector3fRS1_
yDg:__ZN23InterfaceActionInvoker2Ii18Color32_t874517518E6InvokeEjP11Il2CppClassP12Il2CppObjectiS0_
Xtd:__ZN5physx10PxsContext25setVisualizationParameterENS_24PxVisualizationParameter4EnumEf
Ieb:__ZL10KeyHandleriPK23EmscriptenKeyboardEventPv
Pma:__ZNSt3__26__treeINS_12__value_typeI39DeprecatedFastPropertyNameSerializationfEENS_19__map_value_compareIS2_S3_NS_4lessIS2_EELb1EEENS_9allocatorIS3_EEE7destroyEPNS_11__tree_nodeIS3_PvEE
B$d:__ZN8Collider16TransformChangedEi
xjc:__Z81Register_UnityEngine_Playables_PlayableHandle_INTERNAL_CALL_GetInputCountInternalv
Eie:_tt_cmap4_char_index
nOj:_AsyncOperation_get_allowSceneActivation_m2825451182
ruh:_TimeSpan_op_Addition_m3421801803
pRa:__ZNK12HandlerChain8IsHiddenERK13FileEntryData
ddj:__ZL50Graphic_t2426225576_CustomAttributesCacheGeneratorP21CustomAttributesCache
OJb:__ZL26Transfer_SimpleNativeClassI17RemapPPtrTransfer10RectOffsetLb0EEvRK29SerializationCommandArgumentsR31RuntimeSerializationCommandInfo
d5b:__ZN16GraphicsSettings12CleanupClassEv
j$f:_NotSupportedException__ctor_m836173213
vqk:_Vector2_op_Implicit_m1064335535
Fta:__Z31GetLightProbeProxyVolumeManagerv
Rqf:_DateTime_System_IConvertible_ToInt32_m2789391054_AdjustorThunk
uPh:__Z73RuntimeInvoker_Single_t2076509932_Vector3_t2243707580_Vector3_t2243707580PFvvEPK10MethodInfoPvPS4_
Hbg:_ASN1Convert_FromInt32_m1541043489
hUe:_PointerInputModule_ProcessMove_m3200120346
cmf:_Convert_ToByte_m1008221737
fTg:_MD2Managed_MD2Transform_m3825201358
wrb:__ZN21EnlightenSceneMapping16BuildRemapTablesEv
mVb:__ZNSt3__26vectorIN9ShaderLab20SerializedSubProgram13BufferBindingENS_9allocatorIS3_EEEC2ERKS6_
y_e:_Dropdown_AddOptions_m835420907
Ska:__ZNK9ShaderLab20ShaderBlendStateDesc15ToGfxBlendStateEPK19ShaderPropertySheetS3_R13GfxBlendState
Y9d:__Z37Collider_Get_Custom_PropContactOffsetP12Il2CppObject
KXe:_CanvasUpdateRegistry_IsRebuildingLayout_m1677873278
Bz:__ZN11UnityEngine9AnimationL22GenericBindingCallbackEPvS1_i
aAd:__ZN5physx2Sq8AABBTree11shiftOriginERKNS_6PxVec3E
sYb:__ZN9ShaderLab9IntShaderC2Ev
IXk:__ZN6il2cpp6icalls8mscorlib6SystemL9IsPrivateEPK9EventInfo
Csl:__ZN6il2cpp6icalls8mscorlib6System10Reflection4Emit11TypeBuilder20setup_internal_classEP27Il2CppReflectionTypeBuilderS7_
SXd:__ZN5physx11AdjacenciesD2Ev
xod:__ZN5physx6shdfnd8PoolBaseINS_2Sc24ElementInteractionMarkerENS0_19ReflectionAllocatorIS3_EEE12allocateSlabEv
vzd:__ZN5physx2Sq16BucketPrunerCore11shiftOriginERKNS_6PxVec3E
cji:_RectOffset_set_left_m620681523
R3j:_ArrayReadOnlyList_1_IndexOf_m1809425308_gshared
IT:__Z58AudioPlayableOutput_CUSTOM_INTERNAL_CALL_InternalSetTargetR15HPlayableOutputP12Il2CppObject
uZk:_il2cpp_gc_disable
CH:__Z69AnimatorControllerPlayable_CUSTOM_INTERNAL_CALL_GetLayerIndexInternalR9HPlayableP12Il2CppString
SSe:_ExecuteEvents_U3Cs_HandlerListPoolU3Em__0_m2903690915
ijf:_Hashtable_Clone_m165405752
jud:__ZN5physx6shdfnd5ArrayIPNS_3Scb5ShapeENS0_19ReflectionAllocatorIS4_EEE6resizeEjRKS4_
QLc:__ZN5physx3Cct15ObstacleContextD2Ev
OUj:_Component_BroadcastMessage_m444672650
fxe:__ZN11UnityEngine15PlatformWrapper19GetPhysicalMemoryMBEv
Nea:__Z15CreateDirectoryRKN4core12basic_stringIcNS_20StringStorageDefaultIcEEEE
kua:__Z21CalculateGlobalMatrix23TransformAccessReadOnly
FBi:__ZL70InternalsVisibleToAttribute_t1037732567_CustomAttributesCacheGeneratorP21CustomAttributesCache
Szb:__ZNK13BuildSettings22GetTypeVirtualInternalEv
j_f:_MonoIO_GetCurrentDirectory_m1509324201
JCi:__ZL91Hashtable_t909839986_CustomAttributesCacheGenerator_Hashtable_OnDeserialization_m4192849898P21CustomAttributesCache
cqh:_UTF32Encoding_GetHashCode_m4205784236
Tmf:_DateTime_ToUniversalTime_m1815024752
GAd:__ZN5physx2Cm10FanoutTaskC2EPKc
dxd:__ZNK5physx2Sc5Scene17prefetchForRemoveERKNS0_8BodyCoreE
B$b:__Z13RegisterClassI14RenderSettingsEvv
utk:_TextGenerator_Finalize_m4242493229
erl:_GC_set_on_event
F2h:__Z80RuntimeInvoker_Boolean_t3825574718_Navigation_t1571958496_Navigation_t1571958496PFvvEPK10MethodInfoPvPS4_
bAg:_Collection_1_ConvertItem_m3563206219_gshared
ouh:_TimeSpan_Subtract_m3597791685_AdjustorThunk
WVc:__ZN5physx2Sc8RigidSimD2Ev
Vx:__ZN7mecanim12statemachine24CreateStateMachineOutputEPKNS0_20StateMachineConstantEjRNS_6memory9AllocatorE
Koi:_Logger__ctor_m3834134587
xtd:__ZNK5physx13NpVolumeCache7raycastERKNS_6PxVec3ES3_fRNS_13PxHitCallbackINS_12PxRaycastHitEEENS_7PxFlagsINS_9PxHitFlag4EnumEtEERKNS_17PxQueryFilterDataEPNS_21PxQueryFilterCallbackE
uBa:__ZNK9GfxDevice27GetActiveRenderSurfaceWidthEv
aLd:__ZN5physx16PxsIslandManagerC2EjRNS_19PxcScratchAllocatorEPNS_2Cm13EventProfilerE
xxe:__ZN11UnityEngine15PlatformWrapper28GetCleanGraphicsFixedVersionEv
rFh:__Z133RuntimeInvoker_Int32_t2071877448_RuntimeObject_RuntimeObject_Int32_t2071877448_Int32_t2071877448_RuntimeObject_ContextU26_t3131521781PFvvEPK10MethodInfoPvPS4_
y$k:__ZN6il2cpp2vm4Type7GetTypeEPK10Il2CppType
THd:__ZN5physx13ActorAABBTask11runInternalEv
X9e:_AssemblyLoadEventHandler_Invoke_m108373765
vyf:_CCGregorianCalendar_dmy_from_fixed_m2992247462
gUe:_PointerInputModule_ShouldStartDrag_m4163638715
L7d:__ZZN8Collider15InitializeClassEvEN32FunctorImpl_795kTransformChanged4CallEPviR11MessageData
lIk:__ZL24UnresolvedVirtualCall_76P12Il2CppObjectPK10MethodInfo
iqa:__ZN6prcoreL17RemapGenericFloatI18TexFormatRGBAFloat17TexFormatRGBAHalfEEvPKNS_9InnerInfoE
Pkd:__ZN5physx14NpRigidDynamic18setKinematicTargetERKNS_11PxTransformE
BVk:_WebRequestUtils__cctor_m893658947
orb:__ZN10GISettings8TransferI14SafeBinaryReadEEvRT_
jo:FUNCTION_TABLE_vifff
mNg:_ReadOnlyCollection_1_System_Collections_Generic_ICollectionU3CTU3E_Remove_m2957273994_gshared
vsi:_Physics_Raycast_m4027183840
tab:__ZN19CustomRenderTexture12ClearGPUDataEv
_Qe:_BaseInputModule_ShouldActivateModule_m2899747874
O1h:__Z86RuntimeInvoker_Int32_t2071877448_DateTimeOffset_t1362988906_DateTimeOffset_t1362988906PFvvEPK10MethodInfoPvPS4_
kia:__ZN13RenderTexture13ApplySettingsEv
HFl:_glVertexAttrib4f__wrapper
Cf:_JS_Sound_SetListenerPosition
ao:FUNCTION_TABLE_fiffi
OI:__Z86Register_UnityEngine_Animations_AnimatorControllerPlayable_INTERNAL_CALL_SetBoolStringv
bbi:_ModuleBuilderTokenGenerator_GetToken_m3427457873
ICj:_Selectable_get_isPointerInside_m3162215687
gFf:_Array_FindIndex_TisRuntimeObject_m4149904176_gshared
gbd:__ZN5physx7NpCloth21setLinearInertiaScaleENS_6PxVec3E
tzh:_UnauthorizedAccessException__ctor_m3480402128
Wag:_BigInteger_op_Modulus_m3788401748
I1j:_ArgInfo_GetInOutArgs_m3184132151
osa:__ZNK8Material16MarkDependenciesER27GarbageCollectorThreadState
guc:__ZL17Transfer_GUIStyleI9JSONWriteLb0EEvRK29SerializationCommandArgumentsR31RuntimeSerializationCommandInfo
JYa:__Z28GetHaloVertexPositionsStereoP8Vector3fRKS_S2_f
J8d:__ZN17TriggerStayStates20executeDeferredEraseEv
Zqa:__ZN6prcoreL27StretchGenericFloatBilinearI15TexFormatRGHalfEEvPKNS_9InnerInfoE
Xjg:_Enumerator_MoveNext_m598197344_AdjustorThunk
jWj:_DisplaysUpdatedDelegate_Invoke_m3646339243
kHd:__ZN5physx14PxsAABBManager22processAggregateSingleERKNS_19AggregateSortedDataERKNS_9AggregateEjPNS_2Cm10BitMapBaseINS_6shdfnd9AllocatorEEE
mOe:_String_JoinUnchecked_m1880555587
hla:__ZNK9ShaderLab7Program21GetMatchingSubProgramEPK6ShaderPKNS_4PassERK16ShaderKeywordSetjPS7_R19ShaderSnippetResult
gJf:_Array_InternalArray__Insert_TisKeyValuePair_2_t1174980068_m2464431954_gshared
hkc:__Z49Register_UnityEngine_Resources_GetBuiltinResourcev
XLd:__ZN5physx2Sc17ParticleSystemSim20scheduleCollisionCpuERNS0_16InteractionSceneERKNS_6shdfnd5ArrayIPS1_NS4_19ReflectionAllocatorIS6_EEEERNS_10PxBaseTaskE
Qie:_tt_cmap10_char_index
u_e:_Dropdown_Awake_m335654827
Urj:_Dictionary_2_U3CCopyToU3Em__0_m1479035402_gshared
$gf:_BitArray_set_Item_m3801461194
YNk:__ZN15dense_hashtableINSt3__24pairIK10KeyWrapperIPK22Il2CppGenericParameterEP11Il2CppClassEES6_N6il2cpp5utils11PointerHashIS4_EEN14dense_hash_mapIS6_S9_SE_NS6_14EqualsComparerINS0_8equal_toIS5_EEEENS0_9allocatorISA_EEE9SelectKeyESJ_SL_E3endEv
XNe:_String_Remove_m3580114465
YWb:__ZN9ShaderLab22SerializedBindChannels8TransferI19StreamedBinaryWriteILb0EEEEvRT_
DLh:__Z82RuntimeInvoker_Int32_t2071877448_RuntimeObject_Int32_t2071877448_Int16_t4041245914PFvvEPK10MethodInfoPvPS4_
Eoc:__ZN5IMGUI20MoveWindowFromLayoutER8GUIStateiRK5RectTIfE
Wyh:_UIntPtr__ctor_m2737768530
ree:_UNITY_FT_Stream_ReadUShort
O4e:_InputField_OnEnable_m3797157569
ogc:__Z51Register_UnityEngine_GUILayer_INTERNAL_CALL_HitTestv
Pmc:__Z50Register_UnityEngine_Object_FindSceneObjectsOfTypev
pma:__ZNSt3__26__treeINS_12__value_typeIN4core12basic_stringIcNS2_20StringStorageDefaultIcEEEES6_EENS_19__map_value_compareIS6_S7_NS_4lessIS6_EELb1EEE13stl_allocatorIS7_L18MemLabelIdentifier1ELi16EEE7destroyEPNS_11__tree_nodeIS7_PvEE
sMk:_Nullable_1__ctor_m796575255_gshared
Vml:__ZN6il2cpp2vm8Profiler7GCEventE13Il2CppGCEvent
$qf:_DateTimeUtils_ToString_m3878360633
o9k:__ZN6il2cpp6icalls8mscorlib6SystemL16ThrowInvalidCastEPK11Il2CppClassS5_
jGa:__Z13IsDepthFormat14GraphicsFormat
PAb:__ZN12AspectRatios8TransferI24GenerateTypeTreeTransferEEvRT_
zNc:__Z12FormatBufferPciPKcz
RBc:__ZN37ConvexVsMeshContactGenerationCallback10processHitERKN5physx12PxRaycastHitERKNS0_6PxVec3ES6_S6_RfPKj
rg:_emscripten_glUniform1fv
bOd:__ZL28removeBrokenEdgesFromIslandsPKjjS0_jS0_RKN5physx11NodeManagerERNS1_11EdgeManagerERNS1_13IslandManagerERNS1_2Cm10BitMapBaseINS1_6shdfnd9AllocatorEEEPSD_
iOk:__ZN6il2cpp2vm5Class13GetArrayClassEP11Il2CppClassj
tfk:_Comparer_1__cctor_m1367179810_gshared
vM:__ZN4FMOD7Channel7setModeEj
x7h:_DerivedType_InvokeMember_m4149586013
YKj:_AnimatorControllerPlayable_GetNextAnimatorStateInfo_m1690618991
qo:FUNCTION_TABLE_iifff
Loc:__ZN11IMGUIModule12AddGUIScriptER8ListNodeI13MonoBehaviourE
Fb:invoke_difi
t8:__ZL50StaticRegisterSceneLoadedCallback_LightmapSettingsPv
GHh:__Z119RuntimeInvoker_Void_t1841601450_RuntimeObject_RuntimeObject_RuntimeObject_RuntimeObject_Int32_t2071877448_RuntimeObjectPFvvEPK10MethodInfoPvPS4_
vn:FUNCTION_TABLE_iiffi
x1e:_GridLayoutGroup_get_cellSize_m1061731753
Fbd:__ZNK5physx7NpCloth24getSeparationConstraintsEPNS_35PxClothParticleSeparationConstraintE
SFa:__ZN21GLESGpuProgramApplier11ApplyVectorERKN20GpuProgramParameters14ValueParameterEPK8Vector4ft
i4a:__Z17PrepareSceneNodesP11CullResults
pxk:_Vector4_ToString_m2340321043_AdjustorThunk
flk:_Parser_IsIgnoreCase_m4155598997
dle:_cff_size_done
FOd:__ZN5physx6shdfnd5ArrayINS_17PxcSolverBodyDataENS0_16AlignedAllocatorILj128ENS0_19ReflectionAllocatorIS2_EEEEE6resizeEjRKS2_
eAc:__ZN5physx2Cm12RenderOutputlsEj
Mab:__ZN6Camera34UpdatePreviousViewProjectionMatrixEv
kla:__ZN9ShaderLab11ShaderState25RemoveUnsupportedProgramsEPK6Shader
LXb:__ZL23AddGpuProgramParametersR20GpuProgramParametersRKNSt3__26vectorIN9ShaderLab20SerializedSubProgram15MatrixParameterENS1_9allocatorIS5_EEEERKNS2_INS4_15VectorParameterENS6_ISB_EEEEiP16PropertyNamesSet
Hmc:__Z44Register_UnityEngine_Object_DestroyImmediatev
Afc:__Z47Register_UnityEngine_Component_BroadcastMessagev
Rs:__ZN18StreamedBinaryReadILb0EE21TransferSTLStyleArrayI13dynamic_arrayI4PPtrI6ObjectELj4EEEEvRT_17TransferMetaFlags
cHi:__ZL62_ConstructorBuilder_t1236878896_CustomAttributesCacheGeneratorP21CustomAttributesCache
Zbc:__Z26scripting_class_has_parent17ScriptingClassPtrS_
FXf:_Int64_System_IConvertible_ToInt16_m2022633688_AdjustorThunk
v7:__ZN13RuntimeStaticI21AssetReferenceStorageLb0EE16StaticInitializeEPv
qvl:__ZN6il2cpp8metadata25Il2CppGenericClassCompare7CompareEPK18Il2CppGenericClassS4_
bD:__ZNK8Animator20IsInMatchTargetStateEv
qpc:__Z36Register_UnityEngine_GUI_set_changedv
coh:_Encoding_get_Unicode_m1382741113
U$j:_LifetimeServices_set_SponsorshipTimeout_m1403222216
sef:_Char_ToString_m1401375624_AdjustorThunk
RGf:_Array_InternalArray__ICollection_Add_TisTableRange_t2011406615_m147373358_gshared
inf:_Convert_ToDateTime_m1251728572
ZHj:_AnimationMixerPlayable_op_Explicit_m2834005805
_ad:__ZN5physx7NpCloth13setTargetPoseERKNS_11PxTransformE
TGf:_Array_InternalArray__ICollection_Add_TisBoolean_t3825574718_m1009318882_gshared
Aki:_GUISkin_set_verticalSliderThumb_m2120268044
hOg:_ReadOnlyCollection_1_System_Collections_IList_set_Item_m1149349508_gshared
lx:__ZN27AnimationLayerMixerPlayable18SetInputConnectionEP8Playablei
Uqc:__Z42Register_UnityEngine_GUIStyle_get_wordWrapv
Xw:__ZN7mecanim28TransformValueArrayBlendNodeEiiiRKNS_10ValueArrayERKNS_14ValueArrayMaskERS0_RS3_RNS_16ValueArrayWeightEf
Qih:_ObjectReader_ReadObjectContent_m3949770110
Pzj:_Scrollbar_get_stepSize_m244845137
KUj:_Component_SendMessage_m4199581575
JPk:__ZN6il2cpp2vm5Class40GetInterfaceInvokeDataFromVTableSlowPathEPK12Il2CppObjectPK11Il2CppClassj
clb:__ZN20TierGraphicsSettings8TransferI18StreamedBinaryReadILb0EEEEvRT_
yEj:_Text_get_font_m3115501113
y8k:__GLOBAL__sub_I_Thread_cpp
zma:__ZN14SafeBinaryRead8TransferINSt3__24pairIN9ShaderLab16FastPropertyNameE10ColorRGBAfEEEEvRT_PKc17TransferMetaFlags
Kih:_ObjectReader_RecordFixup_m1893348030
EOf:_LayoutGroup_SetProperty_TisRuntimeObject_m1703476175_gshared
Z2h:__Z49RuntimeInvoker_UIVertex_t1204258818_RuntimeObjectPFvvEPK10MethodInfoPvPS4_
m6k:__ZN14dense_hash_mapI10KeyWrapperINSt3__24pairIPK12PropertyInfoP11Il2CppClassEEEj17ReflectionMapHashIS8_ENS9_14EqualsComparerINS1_8equal_toIS8_EEEENS1_9allocatorINS2_IKS9_jEEEEE13set_empty_keyERSH_
Ik:_glRenderbufferStorage
Ndl:__ZNK15dense_hashtableINSt3__24pairIK10KeyWrapperINS1_IPKcS4_EEEiEES6_24NamespaceAndNamePairHashN14dense_hash_mapIS6_iS9_NS6_14EqualsComparerI26NamespaceAndNamePairEqualsEENS0_9allocatorIS8_EEE9SelectKeyESD_SF_E13find_positionERS7_
Nhc:__Z45Register_UnityEngine_Input_get_touchSupportedv
Bxe:__ZN11UnityEngine15PlatformWrapper28GetTextureFormatSupportFlagsEv
Gge:_UNITY_FT_Create_Class_pshinter_module_class
uNe:_String_CompareOrdinalCaseInsensitiveUnchecked_m2002640463
Mbf:_Boolean_GetHashCode_m1894638460
Ile:_cf2_setError
pwb:__ZN14SafeBinaryRead21TransferSTLStyleArrayI13dynamic_arrayI12BoneWeights4Lj16EEEEvRT_17TransferMetaFlags
sqh:_UTF7Encoding_InternalGetChars_m4157428055
dua:__Z33InterpolateLightProbeCoefficientsRK17LightProbeContextRK29LightProbeSamplingCoordinatesR20SphericalHarmonicsL2
FTa:__ZZ23InitPlayerLoopCallbacksvEN35PreUpdateSendMouseEventsRegistrator7ForwardEv
gdg:_SmallXmlParser_HandleBufferedContent_m3397096753
VQj:_BoxCollider_INTERNAL_get_center_m3433872495
Fh:_glDisable
W5e:_InputField_OnDeselect_m3963675647
hwe:__Z44Register_UnityEngine_Canvas_get_pixelPerfectv
jml:__ZN6il2cpp5utils11StringUtils15StringDuplicateEPKDsj
vah:_BaseMachine_Scan_m122450399
Qx:__ZN17AnimationPlayable17ProcessRootMotionEP35AnimationPlayableEvaluationConstantP32AnimationPlayableEvaluationInputP33AnimationPlayableEvaluationOutput
dff:_ArrayList_CopyTo_m2353632788
EFc:__ZN5physx10getInverseERNS_7PxMat33ERNS_6PxVec3ERKS0_RKS2_
m8:__ZNSt3__26vectorINS_4pairIyP17VertexDeclarationEENS_9allocatorIS4_EEE6assignIPS4_EENS_9enable_ifIXaasr21__is_forward_iteratorIT_EE5valuesr16is_constructibleIS4_NS_15iterator_traitsISB_E9referenceEEE5valueEvE4typeESB_SB_
kMj:_AnimatorControllerPlayable_CrossFade_m3391147919_AdjustorThunk
SUa:__ZNK8Material12GetPassCountEv
Jkf:_Enumerator__cctor_m3784927209
uKl:b110
vKl:b111
wKl:b112
DBl:_bitshift64Ashr
CKl:b114
DKl:b115
JLl:b117
VAd:__ZN5physx6shdfnd5ArrayIPhNS0_19ReflectionAllocatorIS2_EEE8recreateEj
uHa:__ZN4crnd12crn_unpacker22decode_alpha_endpointsEv
i5a:__Z23CullDynamicObjectsUmbraPK4AABBPKN5Umbra15OcclusionBufferER9IndexList
DPf:_Array_InternalArray__get_Item_TisContactPoint_t1376425630_m3234597783_gshared
Oy:__ZThn148_NK26AnimatorControllerPlayable41GetStateMachineBehaviourVectorDescriptionEv
R8h:_EnumBuilder_MakeByRefType_m3504630835
Fie:_tt_cmap4_char_next
sTh:__Z444RuntimeInvoker_Boolean_t3825574718_RuntimeObject_RuntimeObject_RuntimeObject_ColorU26_t3402129837_Int32_t2071877448_Single_t2076509932_Single_t2076509932_Int32_t2071877448_SByte_t454417549_SByte_t454417549_Int32_t2071877448_Int32_t2071877448_Int32_t2071877448_Int32_t2071877448_SByte_t454417549_Int32_t2071877448_Single_t2076509932_Single_t2076509932_Single_t2076509932_Single_t2076509932_SByte_t454417549_SByte_t454417549_UInt32U26_t2197289955PFvvEPK10MethodInfoPvPS4_
Zmk:_GeneralNames_ToString_m800435094
yWe:_BaseMeshEffect_OnDidApplyAnimationProperties_m2484799839
aPe:_ASCIIEncoding_GetString_m3931709239
Uwh:_UInt16_Parse_m3560204090
Sxc:__ZN8JSONRead21TransferSTLStyleArrayI13dynamic_arrayIsLj2EEEEvRT_18MemLabelIdentifier17TransferMetaFlags
hM:__ZN4FMOD7Channel11setPositionEjj
wi:_glBindSampler
wPg:_ReadOnlyCollection_1_System_Collections_Generic_ICollectionU3CTU3E_Clear_m964488020_gshared
n1c:__ZN5physx2Sc8BodyCore20clearSpatialVelocityEbb
Ai:_glGetVertexAttribiv
VGf:_Array_InternalArray__ICollection_Add_TisChar_t3454481338_m422084244_gshared
Mre:__ZN2UI11CanvasGroup23VirtualRedirectTransferER18StreamedBinaryReadILb0EE
PLd:__ZN5physx2Sc27ConstraintProjectionManagerC2Ev
_wc:__ZN8JSONRead8TransferIbEEvRT_PKc17TransferMetaFlagsb
OQc:__ZN5physx6shdfnd5ArrayIPvNS0_19ReflectionAllocatorINS_2Sc24ElementInteractionMarkerEEEE4copyINS0_15InlineAllocatorILj256ES6_EEEEvRKNS1_IS2_T_EE
R8c:__ZNK5physx7NpShape15getGeometryTypeEv
toi:_DefaultValueAttribute_Equals_m3216982933
C6g:_X509KeyUsageExtension_Decode_m3292847033
HVh:__Z52RuntimeInvoker_RaycastResult_t21186376_RuntimeObjectPFvvEPK10MethodInfoPvPS4_
edi:_Module_filter_by_type_name_ignore_case_m3574895736
_qb:__ZN26CustomRenderTextureManager19PreAllocateMaterialEP19CustomRenderTexture
qih:_ObjectReader_ReadObject_m397855326
dol:_GC_promote_black_lists
cWh:__Z119RuntimeInvoker_Void_t1841601450_Color_t2020392075_Single_t2076509932_SByte_t454417549_SByte_t454417549_SByte_t454417549PFvvEPK10MethodInfoPvPS4_
y2e:_Image_get_fillAmount_m3354146540
Lxc:__Z29Transfer_Blittable_ArrayFieldI8JSONRead8Vector4fEvRT_R9ArrayInfoRK23StaticTransferFieldInfo
vp:FUNCTION_TABLE_vd
Bvh:_Type_GetMethod_m1930231379
xp:FUNCTION_TABLE_vi
R6:__ZN13RuntimeStaticI37UnityShaderCompilerExtPluginConfigureLb0EE16StaticInitializeEPv
Zac:__ZN10systeminfo24GetRuntimePlatformStringEv
zEd:__ZN5physxL25solveContact4_StaticBlockEPKNS_23PxcSolverConstraintDescERNS_16PxcSolverContextE
w8f:_SimpleCollator_GetContraction_m1391584430
Pbf:_CultureInfo_get_InvariantCulture_m398972276
pbf:_Boolean_System_IConvertible_ToInt64_m4142756949_AdjustorThunk
GF:__ZNK8Animator17HasBoundPlayablesEv
VSg:_HMAC_initializePad_m3828610671
Cpi:_Mathf_InverseLerp_m55890283
wKc:__ZNK5physx3Cct17CapsuleController15getFootPositionEv
Aqd:__ZN5physx7NpScene15removeAggregateERNS_11PxAggregateEb
aGe:_RSAParameters_t1462703416_marshal_pinvoke_cleanup
_Xk:__ZN6il2cpp2vm7Runtime9SetConfigEPKc
lOj:_AsyncOperation_get_priority_m966065939
za:invoke_iiifiii
ual:__ZN6il2cpp2vm9Exception11FromNameMsgEPK11Il2CppImagePKcS6_S6_
mvh:_Type_internal_from_name_m1506974323
Pn:FUNCTION_TABLE_fiiifii
GEd:__ZN5physx25solveContact_BStaticBlockEPKNS_23PxcSolverConstraintDescEjRNS_16PxcSolverContextE
Y$:__Z14GetTimeManagerv
Bhb:__Z12GUIDToStringRK9UnityGUIDPc
EPj:_AudioMixerPlayable_GetAutoNormalizeVolumes_m2199898677_AdjustorThunk
afe:__ZN20TextRenderingPrivate8TextMesh17MainThreadCleanupEv
jDc:__ZL4facejjjRN5physx6PxVec3ERKS0_S3_S3_PfRf
vud:__ZN5physx6shdfnd5ArrayIPNS_2Sc14ConstraintCoreENS0_19ReflectionAllocatorIS4_EEE6resizeEjRKS4_
gml:__ZN4utf88internal20is_overlong_sequenceIiEEbjT_
rPj:_AudioMixerPlayable__ctor_m2704850458
tgf:_SynchronizedArrayListWrapper_get_Count_m4104930530
wPd:__ZL18getFrictionPatchesRN5physx26PxcFrictionPatchStreamPairERNS_20PxcCorrelationBufferEPKhjRKNS_11PxTransformES8_f
t1f:_Stream_Close_m1499612649
Gfc:__Z41Register_UnityEngine_Cursor_get_lockStatev
w0a:__Z14SetupLightmapsRK8Vector4fS1_R17ShaderPassContext
M4k:__ZN14dense_hash_mapI10KeyWrapperIPK14Il2CppAssemblyEPK22Il2CppMonoAssemblyNameN6il2cpp5utils11PointerHashIS2_EENS4_14EqualsComparerINSt3__28equal_toIS3_EEEENSD_9allocatorINSD_4pairIKS4_S7_EEEEE13set_empty_keyERSJ_
hch:_Interval_get_Empty_m3170923997
MUa:__ZL20InitializeGUIShadersv
a1b:__Z20DestroyObjectDelayedP6Objectf
SZ:__ZN20DynamicHeapAllocatorI17LowLevelAllocatorED0Ev
j5e:_InputField_OnDrag_m726194348
Z_d:__ZN8Collider16RecreateColliderEPK9Rigidbody
E9f:_PreviousInfo__ctor_m1442166472_AdjustorThunk
UZa:__ZN9DepthPassD2Ev
hL:__ZN11AudioFilter6GetDSPEv
$5c:__ZN5physx2Sc14ConstraintCore9setBodiesEPNS0_9RigidCoreES3_
$1:__ZN19RuntimeSceneManager14CanUnloadSceneEP10UnityScene
LKh:__Z50RuntimeInvoker_Single_t2076509932_Int64_t909078037PFvvEPK10MethodInfoPvPS4_
XZa:__Z22ExtractRenderNodeQueueRK11CullResults15ExtractionFlagsR15RenderNodeQueue
ZKf:_Array_InternalArray__set_Item_TisContentType_t1028629049_m703420360_gshared
lyg:_List_1_set_Item_m1431784996_gshared
V5d:__ZN5physx6shdfnd8PoolBaseINS_24NpPtrTableStorageManager8PtrBlockILi64EEENS0_19ReflectionAllocatorIS4_EEE12allocateSlabEv
vK:__ZN24AudioScriptBufferManagerC2Ev
lde:__ZNSt3__26vectorIh13stl_allocatorIhL18MemLabelIdentifier1ELi16EEE8__appendEj
vEh:__Z95RuntimeInvoker_Void_t1841601450_RuntimeObject_Int32_t2071877448_Int32_t2071877448_RuntimeObjectPFvvEPK10MethodInfoPvPS4_
Lbf:_Boolean_Equals_m294106711_AdjustorThunk
ode:__ZN20TextRenderingPrivate8FontImpl16ResetPackingDataEv
Eth:_TimeSpan_get_Hours_m3804628138_AdjustorThunk
HFf:_Array_InternalArray__IndexOf_TisLink_t865133271_m3612939760_gshared
gtc:__Z18Transfer_BlittableI9JSONWriteLb0EfEvRK29SerializationCommandArgumentsR31RuntimeSerializationCommandInfo
yia:__Z21GetAsyncUploadManagerv
kk:_emscripten_glDetachShader
CVf:_Int16_System_IConvertible_ToInt64_m733340257
D7f:_SafeHandleZeroOrMinusOneIsInvalid_get_IsInvalid_m2033528032
eef:_Char_IsUpper_m4083577610
HGa:__ZN17GenericDynamicVBO20ReleaseChunkInternalERK21DynamicVBOChunkHandlejj
tqe:__ZL27CleanupModule_TextRenderingv
C7f:_SafeHandleZeroOrMinusOneIsInvalid__ctor_m3340306667
eyl:_fmodl
Ufh:_SerializationInfo_AddValue_m902275108
syl:_fmodf
oOc:__ZN5physx6shdfnd5ArrayIPNS_3Scb5ActorENS0_19ReflectionAllocatorIS4_EEE6resizeEjRKS4_
Gja:__ZN12CachedWriter11Align4WriteEv
__a:__Z20DoDeferredRenderLoopR17RenderLoopContextR13dynamic_arrayI16RenderObjectDataLj4EES4_RK11CullResultsRP13RenderTextureSA_Pb
Txa:__ZN19RuntimeSceneManager11CreateSceneEv
Vke:_ps_get_standard_strings
VCg:_Collection_1_IsValidItem_m1908012838_gshared
Y0a:__Z27SetupBakedOcclusionForLightbRK15SharedLightDataR17ShaderPassContext
Ftl:__ZN6il2cpp2os5Mutex6UnlockEv
d7c:__ZN5physx7NpScene14removeMaterialERNS_10NpMaterialE
yUc:__ZN5physx16PxsIslandManager24setEdgeArticulationJointERKNS_20PxsIslandManagerHookIjLj4294967295EEE
MKj:_AnimatorControllerPlayable_GetLayerWeight_m1435294989
MBj:_ScrollRect_OnScroll_m3346515304
f1c:__ZN5physx2Sc10NPhaseCore25addToDirtyInteractionListEPNS0_15CoreInteractionE
Tkg:_Enumerator_System_Collections_IEnumerator_get_Current_m3461301268_gshared
Mqj:_Dictionary_2_CopyToCheck_m1638253305_gshared
EVa:__Z18RenderImageFiltersR10RenderLoopb
A_:__Z19free_alloc_internalPv18MemLabelIdentifier
Rue:__Z43CanvasRenderer_Get_Custom_PropMaterialCountP12Il2CppObject
P8a:__ZN10GameObjectD2Ev
BKg:_ReadOnlyCollection_1_System_Collections_Generic_IListU3CTU3E_set_Item_m25653560_gshared
BQd:__ZN5physx2Cm12DelegateTaskINS_2Sc5SceneEXadL_ZNS3_19islandGenSecondPassEPNS_10PxBaseTaskEEEE11runInternalEv
ofj:__ZL68Selectable_t1490392188_CustomAttributesCacheGenerator_m_InteractableP21CustomAttributesCache
kUj:_Color32_op_Implicit_m889975790
Lbc:__ZN19RuntimeSceneManager32LoadSceneAsyncByNameOrBuildIndexERKN4core12basic_stringIcNS0_20StringStorageDefaultIcEEEEiNS_11LoadingModeEb
QXj:_UnityEventBase_RebuildPersistentCallsIfNeeded_m1583202007
x6c:__ZN5physx6shdfnd4sortIPvNS0_4LessIS2_EENS0_19ReflectionAllocatorINS_10NpMaterialEEEEEvPT_jRKT0_RKT1_j
VUg:_CertificateSelectionCallback_Invoke_m2902629105
Q7:__ZN10InputEventD2Ev
Xvk:_Vector2_ToString_m775491729_AdjustorThunk
WRf:_NumberFormatter_Append_m3268121457
OBe:__ZN22UnityWebRequestManagerD2Ev
LFe:_RSA_ToXmlString_m4145056574
iwf:_Double_System_IConvertible_ToUInt64_m1318285078_AdjustorThunk
CLc:__ZN5physx3Cct15ObstacleContext13onOriginShiftERKNS_6PxVec3E
Lxl:_isalpha
cPj:_AudioClipPlayable_SetStartDelayInternal_m1268437955
ppd:__ZN5physx6shdfnd8PoolBaseINS_2Gu31SpherePersistentContactManifoldENS0_19ReflectionAllocatorIS3_EEE12allocateSlabEv
WUc:__ZN5physx6shdfnd5ArrayIPNS_2Sc7BodySimENS0_19ReflectionAllocatorIS4_EEE8recreateEj
PZk:_il2cpp_object_unbox
sAj:_Selectable_FindSelectable_m2739582497
j2e:_LayoutGroup_GetAlignmentOnAxis_m1783063916
brf:_DateTimeUtils_ZeroPad_m86470512
Oui:_ScriptPlayableOutput_get_Null_m2995109571
kIj:_AnimationOffsetPlayable_Equals_m3411254421
WVk:__ZN6il2cpp2vmL17IsSocketAsyncCallEP14Il2CppDelegate
kRj:_Camera_get_clearFlags_m1743144302
Roi:_Logger_IsLogTypeAllowed_m1750132386
Ell:__ZN6il2cpp2vm6String6NewLenEPKcj
mjb:__ZN6Camera23VirtualRedirectTransferER19StreamedBinaryWriteILb0EE
Al:_time
JPc:__ZNK5physx2Sc8ShapeSim15getPxsRigidCoreEv
Z0e:_Graphic_UnregisterDirtyLayoutCallback_m1724443555
NQc:__ZN5physx2Sc20ContactStreamManager28fillInContactReportExtraDataEPNS_17PxContactPairPoseEjRKNS0_8RigidSimEb
pme:_cf2_stack_free
$bd:__ZN5physx7NpCloth23removeCollisionTriangleEj
DJj:_AnimatorControllerPlayable_GetBool_m217461036_AdjustorThunk
Pv:__ZN7mecanim9animation19EvaluateFloatValuesEPKNS0_18ClipMuscleConstantEPKNS_18ValueArrayConstantEPKNS0_12ClipBindingsEPKNS0_10ClipOutputEPNS0_18AnimationNodeStateEfbb
z2:__ZN15dense_hashtableINSt3__24pairIKiP6ObjectEEi21InstanceIDHashFunctorN14dense_hash_mapIiS4_S6_NS0_8equal_toIiEE13stl_allocatorIS5_L18MemLabelIdentifier65ELi16EEE9SelectKeyES9_SC_E12resize_deltaEjj
GD:__ZN8Animator31ClearInternalControllerPlayableEv
dKj:_AnimatorControllerPlayable_SetTrigger_m4033120343_AdjustorThunk
sAh:_WeakReference_Finalize_m3318354542
wlg:_Enumerator_VerifyState_m3913376581_gshared
ECd:__ZNK5physx2Gu29EPASupportMapPairRelativeImplINS0_9TriangleVENS0_11ConvexHullVEE9doSupportERKNS_6shdfnd3aos5Vec3VERS7_SA_SA_
E0k:__ZN15dense_hashtableINSt3__24pairIK10KeyWrapperINS1_IPK9FieldInfoP11Il2CppClassEEEjEES9_17ReflectionMapHashIS8_EN14dense_hash_mapIS9_jSD_NS9_14EqualsComparerINS0_8equal_toIS8_EEEENS0_9allocatorISB_EEE9SelectKeyESI_SK_E4findERSA_
AMl:_glDeleteSync__wrapper
Hnf:_Decimal_op_Implicit_m623319612
vnj:_ValueCollection_System_Collections_Generic_ICollectionU3CTValueU3E_Remove_m98888100_gshared
SRe:_EventTrigger_OnPointerExit_m2119176877
$ta:__ZNK9Transform21GetLocalToWorldMatrixEv
Csh:_ThreadAbortException__ctor_m1623816114
Q1b:__ZN13ProduceHelperI30RuntimeInitializeOnLoadManagerLb0EE7ProduceE18MemLabelIdentifier18ObjectCreationMode
m7a:__ZN13RenderTexture19SetAutoGenerateMipsEb
Doa:__Z20GetTextureFormatInfo13TextureFormat
Sqc:__Z43Register_UnityEngine_GUIStyle_get_alignmentv
h4b:__Z40InitializeLightAnimationBindingInterfacev
UGh:__Z119RuntimeInvoker_RuntimeObject_RuntimeObject_RuntimeObject_Int32_t2071877448_Int32_t2071877448_MonoIOErrorU26_t1029615899PFvvEPK10MethodInfoPvPS4_
zy:__ZN26AnimatorControllerPlayable8GetFloatEiRf
sCf:_PlayableHandle_IsPlayableOfType_TisRuntimeObject_m4111068959_gshared
oLj:_AnimatorControllerPlayable_GetCurrentAnimatorClipInfoCount_m3938711391
wyj:_Shadow__ctor_m924057531
ETe:_PointerEventData_set_worldPosition_m192283671
NDl:dynCall_iiifiiii
Qwk:_Vector3_get_right_m1884123822
Yrl:__ZN6il2cpp5utils10MemoryPool6MallocEj
QJ:__ZN11SoundHandle8InstanceD2Ev
bba:__ZN31CanvasBatchIntermediateRenderer13StaticDestroyEPv
aqk:_X509Store_BuildCrlsCollection_m52567568
rsd:__ZN5physx13NpVolumeCache13onOriginShiftERKNS_6PxVec3E
Fai:_MethodBuilder_MakeGenericMethod_m303913412
p$g:_RecordProtocol_InternalSendRecordCallback_m3984764857
Wsd:__ZNK5physx2Sc5Scene20getBroadPhaseRegionsEPNS_22PxBroadPhaseRegionInfoEjj
pic:__Z29Mesh_CUSTOM_RecalculateBoundsP12Il2CppObject
Twf:_Enum_ToString_m662345249
OPh:__Z150RuntimeInvoker_Single_t2076509932_Single_t2076509932_Single_t2076509932_SingleU26_t4173844468_Single_t2076509932_Single_t2076509932_Single_t2076509932PFvvEPK10MethodInfoPvPS4_
Dfc:__Z41Register_UnityEngine_CullingGroup_Disposev
h3c:__ZN5physx14NpShapeManagerD2Ev
Rpb:__ZN7Cubemap23VirtualRedirectTransferER19StreamedBinaryWriteILb0EE
sQa:__ZN25MultiBlocksMemoryFileData5WriteEyyPKv
Htg:_List_1_System_Collections_IList_Add_m4271264217_gshared
I5k:__ZN14dense_hash_mapI10KeyWrapperIPK10Il2CppTypeEjN6il2cpp8metadata14Il2CppTypeHashENS4_14EqualsComparerINS6_26Il2CppTypeEqualityComparerEEENSt3__29allocatorINSB_4pairIKS4_jEEEEE13set_empty_keyERSE_
qfc:__Z35Component_CUSTOM_SendMessageUpwardsP12Il2CppObjectP12Il2CppStringS0_i
BIa:__ZL17ProgramUniform2fvPK7ApiGLESjiihPKv
jIl:b83
w2c:__ZN5physx2Sc5Scene16removeConstraintERNS0_14ConstraintCoreE
gde:__ZN20TextRenderingPrivate8FontImpl21HasCharacterInTextureEjijfPj
fzl:_htonl
dEa:__Z20GetBufferManagerGLESv
_Rb:__ZN18StreamedBinaryReadILb0EE21TransferSTLStyleArrayI31ArrayOfManagedObjectsTransfererEEvRT_17TransferMetaFlags
mwd:__ZN5physx2Sc18ParticleSystemCore18addDeltaVelocitiesERKNS_2Cm10BitMapBaseINS_6shdfnd9AllocatorEEEPKNS_6PxVec3Ef
Dqh:_UTF7Decoder_GetChars_m2790530452
_vc:__Z18Transfer_BlittableI8JSONReadLb0EtEvRK29SerializationCommandArgumentsR31RuntimeSerializationCommandInfo
fNd:__ZN5physx6shdfnd8PoolBaseINS_2Sc16ActorElementPairENS0_19ReflectionAllocatorIS3_EEE12allocateSlabEv
yej:__ZL68Navigation_t1571958496_CustomAttributesCacheGenerator_m_SelectOnLeftP21CustomAttributesCache
H7c:__ZNK5physx9NpPhysics17getNbClothFabricsEv
gz:__ZN34AnimationStateMachineMixerPlayable13EndTransitionEv
$ll:__ZNSt3__212basic_stringIDsNS_11char_traitsIDsEENS_9allocatorIDsEEE9__grow_byEjjjjjj
ML:__ZN12AudioManager21FixMasterGroupRoutingEv
PHe:_SymmetricAlgorithm_set_Key_m2973350820
iah:_X509KeyUsageExtension_GetValidFlags_m1346045110
F5g:_WebHeaderCollection_IsHeaderValue_m1723393133
rCf:_ExecuteEvents_ShouldSendToComponent_TisRuntimeObject_m2998351876_gshared
Iif:_Hashtable__ctor_m4280223555
_Eh:__Z69RuntimeInvoker_Boolean_t3825574718_Int32_t2071877448_SByte_t454417549PFvvEPK10MethodInfoPvPS4_
ijl:__ZN6il2cpp2os10ThreadImpl33UnregisterCurrentThreadForCleanupEv
VXd:__ZL10UpdateLinkjjjjPN5physx11AdjTriangleERKNS_17ADJACENCIESCREATEE
ox:__ZN27AnimationLayerMixerPlayable22PrepareAnimationEventsEfR13dynamic_arrayI22AnimationClipEventInfoLj4EE
pTc:__ZN5physx2Sc16InteractionScene19registerInteractionEPNS0_11InteractionEb
dGb:__Z18Transfer_BlittableI14SafeBinaryReadLb1E4AABBEvRK29SerializationCommandArgumentsR31RuntimeSerializationCommandInfo
cEd:__ZN5physx19solveContactCoulombERKNS_23PxcSolverConstraintDescERNS_16PxcSolverContextE
doi:_Input_INTERNAL_get_mouseScrollDelta_m1140491498
p9:__Z22CreateMutexLockedQueue18MemLabelIdentifier
BQc:__ZNK5physx2Sc9ActorPair23createContactReportDataEv
BK:__ZN9AudioClip7WWWOpenEPKciPjPPvS4_
n0c:__ZN5physx18NpArticulationLink18setAngularVelocityERKNS_6PxVec3Eb
YFb:__Z18Transfer_BlittableI14SafeBinaryReadLb0E8Vector2fEvRK29SerializationCommandArgumentsR31RuntimeSerializationCommandInfo
EAj:_U3CClickRepeatU3Ec__Iterator0_MoveNext_m1747924386
VKf:_Array_InternalArray__set_Item_TisPlayableBinding_t2498078091_m2071396616_gshared
B2f:_SynchronizedReader_Peek_m282642073
TUb:__ZN15SerializeTraitsIN9ShaderLab20SerializedSubProgram16TextureParameterEE8TransferI14SafeBinaryReadEEvRS2_RT_
qcf:_Byte_System_IConvertible_ToInt16_m1575115635_AdjustorThunk
Tyd:__ZN5physx6shdfnd8PoolBaseINS_2Sc19ShapeInstancePairLLENS0_19ReflectionAllocatorIS3_EEE15disposeElementsEv
zGc:__ZN5physx2Gu14sweepTriSphereERKNS_10PxTriangleERKNS_6PxVec3ES6_fS6_Rf
V8f:_SimpleCollator_CompareQuick_m619038530
i1g:_SslStreamBase_EndRead_m1072850679
wye:__ZThn1044_N18UnityConnectClientD0Ev
Od:_SDL_GetTicks
Qgg:_X509CertificateEnumerator_System_Collections_IEnumerator_get_Current_m1643583406
kte:__ZN2UI14CanvasRenderer11SyncCullingENS0_8SyncFlagE
x2k:__ZN15dense_hashtableINSt3__24pairIK10KeyWrapperINS1_IPK11Il2CppImageP11Il2CppClassEEEjEES9_17ReflectionMapHashIS8_EN14dense_hash_mapIS9_jSD_NS9_14EqualsComparerINS0_8equal_toIS8_EEEENS0_9allocatorISB_EEE9SelectKeyESI_SK_E6insertERKSB_
N4a:__Z21CreateShadowCullerJobP30CreateUmbraShadowCullerJobData
ecd:__ZNK5physx7NpCloth21getNbVirtualParticlesEv
RPd:__ZN5physx17PxcNpMemBlockPool23releaseConstraintBlocksERNS_6shdfnd5ArrayIPNS_13PxcNpMemBlockENS1_19ReflectionAllocatorIS4_EEEE
tIa:__ZL18ProgramUniform2uivPK7ApiGLESjiihPKv
YKl:_glUniform4iv__wrapper
N1a:__Z33GenerateShadowCasterPartsSortDataRK16ShadowCasterDatajRK15RenderNodeQueueRKNSt3__26vectorI20ShadowCasterPartData13stl_allocatorIS7_L18MemLabelIdentifier2ELi16EEEERK10Matrix4x4fRjP20ShadowCasterSortData
Fsj:_Dictionary_2_ToTKey_m4209561517_gshared
i1c:__ZN5physx2Sq17SceneQueryManager13markForUpdateEPNS0_10ActorShapeE
Cle:_cf2_computeDarkening
dZ:__GLOBAL__sub_I_runtime_gfxdevice_lump_cpp
mOj:_AsyncOperation_set_priority_m3581020444
zol:_GC_expand_hp_inner
sfl:__ZNK15dense_hashtableI10KeyWrapperIP18Il2CppGenericClassES3_N6il2cpp8metadata22Il2CppGenericClassHashEN14dense_hash_setIS3_S6_NS3_14EqualsComparerINS5_25Il2CppGenericClassCompareEEENSt3__29allocatorIS3_EEE8IdentityESA_SD_E12test_deletedEj
bhc:__Z25Screen_Get_Custom_PropDpiv
z1e:_GridLayoutGroup_get_spacing_m1909275195
Xll:__ZN4utf812find_invalidIPKcEET_S3_S3_
$9g:_X509ExtensionCollection_System_Collections_ICollection_CopyTo_m3421329346
Tnl:_GC_err_printf
c9h:_FieldBuilder_SetValue_m3109503557
i0e:_Graphic_OnBeforeTransformParentChanged_m1866292273
S7g:_X509Certificate2_Verify_m1574874641
HW:__ZN11UnityEngine15CloudWebService20WebRequestRestClient7PrepareEv
Qbj:__ZL58PhysicsRaycaster_t249603239_CustomAttributesCacheGeneratorP21CustomAttributesCache
Wce:__ZN20TextRenderingPrivate19NativeTextGenerator23FixLineHorizontalOffsetEiii
Bkf:_SortedList_GetEnumerator_m1318483481
M8e:_Array_CreateInstance_m3327690220
rA:__ZN7mecanim9animation19DestroyAnimationSetEPNS0_12AnimationSetERNS_6memory9AllocatorE
SFl:_emscripten_glDepthRange__wrapper
Edb:__ZN16MemoryFileSystem4OpenER13FileEntryData14FilePermission16FileAutoBehavior
Qaa:__ZN13RuntimeStaticI13RendererSceneLb0EE13StaticDestroyEPv
nLb:__Z18Transfer_BlittableI24GenerateTypeTreeTransferLb1E12PropertyNameEvRK29SerializationCommandArgumentsR31RuntimeSerializationCommandInfo
f4b:__ZN5Light15InitializeClassEv
_zb:__ZN14SafeBinaryRead21TransferSTLStyleArrayI10vector_mapIPKN5Unity4TypeE7Hash128NSt3__24lessIS5_EENS7_9allocatorINS7_4pairIS5_S6_EEEEEEEvRT_17TransferMetaFlags
AK:__ZN9AudioClip18GetQueuedAudioDataEPPvj
hqe:__ZN20TextRenderingPrivate21TextMeshGeneratorImpl14GarbageCollectEv
j9b:__ZNK9Texture2D17CheckHasPixelDataEv
ccd:__ZNK5physx7NpCloth16getCollisionDataEPNS_22PxClothCollisionSphereEPjPNS_21PxClothCollisionPlaneES3_PNS_24PxClothCollisionTriangleE
DZa:__Z18SetShadowsKeywordsR17ShaderPassContext9LightType10ShadowType16ShadowProjectionbb
l6k:__ZN14dense_hash_mapI10KeyWrapperINSt3__24pairIPK12PropertyInfoP11Il2CppClassEEEj17ReflectionMapHashIS8_ENS9_14EqualsComparerINS1_8equal_toIS8_EEEENS1_9allocatorINS2_IKS9_jEEEEEC2EjRKSB_RKSF_
W3b:__ZN17CollisionMeshDataC2Ev
z4h:_Assembly_GetModule_m2064378601
Qgk:_Regex_get_RightToLeft_m529734879
nBj:_ScrollRect_SetDirty_m93243192
wzd:__ZN5physx2Sq11PruningPool11preallocateEj
frb:__ZN16LightmapSettings23VirtualRedirectTransferER19StreamedBinaryWriteILb0EE
WTa:__ZZ23InitPlayerLoopCallbacksvEN47PostLateUpdateMemoryFrameMaintenanceRegistrator7ForwardEv
Ap:FUNCTION_TABLE_viiififii
kpl:_GC_push_next_marked
Ari:_MessageTypeSubscribers__ctor_m743474932
Pwa:__ZN18IDCollectorFunctor18GenerateInstanceIDEi17TransferMetaFlags
bKf:_Array_InternalArray__set_Item_TisTableRange_t2011406615_m2386708730_gshared
fSf:_NumberFormatter_ToDecHex_m1474793296
MOj:_AudioClipPlayable_SetClipInternal_m3129974269
J1c:__ZN5physx2Sc17ParticleSystemSim15onRbShapeChangeERKNS0_19ParticlePacketShapeERKNS0_8ShapeSimE
Teb:__ZN14StackAllocatorD0Ev
W8k:__ZN6il2cpp2vm6Thread8SetStateEP12Il2CppThreadNS0_11ThreadStateE
J$e:_FontData_set_richText_m29558601
Tsh:_Scheduler_Change_m4063588742
HQd:__ZN5physx27updateIslandsSecondPassMainEjRNS_2Cm10BitMapBaseINS_6shdfnd9AllocatorEEEPKjjRNS_11NodeManagerERNS_11EdgeManagerERNS_13IslandManagerERNS_23ArticulationRootManagerERNS_33ProcessSleepingIslandsComputeDataERNS_30IslandManagerUpdateWorkBuffersEPNS0_13EventProfilerE
cE:__ZN8Animator8TransferI19StreamedBinaryWriteILb0EEEEvRT_
ZSj:_CharacterController_get_isGrounded_m2594228107
Trk:_HitInfo_SendMessage_m3368777144_AdjustorThunk
ijc:__Z22PlayableValidityChecksRK9HPlayableb
eBb:__ZN15ResourceManagerD2Ev
psg:_List_1_Insert_m2532850849_gshared
ifc:__Z41Register_UnityEngine_Camera_GetAllCamerasv
sEe:_RC2Transform__ctor_m492910827
mqi:_Mesh_get_vertices_m626989480
Uxj:_MaskableGraphic_OnCanvasHierarchyChanged_m2012659245
oHa:__ZN4crnd12crn_unpacker10unpack_dxnEPPhjjjjjj
sze:__ZN28PerformanceReportingSettings8TransferI14SafeBinaryReadEEvRT_
aof:_Double_Parse_m2344589511
TJh:__Z78RuntimeInvoker_Boolean_t3825574718_IntPtr_t_Int32_t2071877448_SByte_t454417549PFvvEPK10MethodInfoPvPS4_
U6c:__ZN5physx10NpMaterial17resolveReferencesERNS_24PxDeserializationContextE
kal:__ZN6il2cpp2vm22EmbeddedResourceRecordC2ERKS1_
oKj:_AnimatorControllerPlayable_INTERNAL_CALL_ResetTriggerID_m1182483253
Mpb:__ZN9Texture2D13AwakeFromLoadE17AwakeFromLoadMode
m8f:_MSCompatUnicodeTableUtil__cctor_m1479836795
dlk:_PositionAssertion__ctor_m3703837499
Y6e:_LayoutGroup_get_minWidth_m4111745491
c2f:_StreamWriter_Initialize_m1707678624
nhl:__ZN6il2cpp2vm3RCW14QueryInterfaceILb0EEEP14Il2CppIUnknownP15Il2CppComObjectRK10Il2CppGuid
gBj:_ScrollRect_set_verticalScrollbar_m2903688658
Mpa:__ZN6prcoreL17RemapGenericFloatI15TexFormatRFloat18TexFormatARGBFloatEEvPKNS_9InnerInfoE
rHi:__ZL50_Thread_t1894135853_CustomAttributesCacheGeneratorP21CustomAttributesCache
vXc:__ZN5physx6shdfnd8PoolBaseINS_2Sc19ParticlePacketShapeENS0_19ReflectionAllocatorIS3_EEE15disposeElementsEv
Y5c:__ZN5physx7NpActor15removeConnectorERNS_7PxActorENS_15NpConnectorType4EnumEPNS_6PxBaseEPKc
w8j:_InternalEnumerator_1_get_Current_m1047712960_gshared
OHd:__ZN5physx19ActorAABBUpdateTask11runInternalEv
$Y:__GLOBAL__sub_I_runtime_camera_renderlayers_lump_cpp
GPf:_Array_InternalArray__get_Item_TisPlayableBinding_t2498078091_m3248833039_gshared
Jye:__ZN11UnityEngine15PlatformWrapper20GetPlayerPrefsUInt64ERKN4core12basic_stringIcNS1_20StringStorageDefaultIcEEEEy
l1a:__ZN20ReflectionProbeCacheC2ER13BatchRendererR15RenderLoopStats
Cba:__ZN18AssetBundleManagerC2Ev
HRa:__ZNK12HandlerChain6ExistsERK13FileEntryData
TQd:__ZN5physx10PxsContext28runModifiableContactManagersEv
yof:_Convert_ToInt32_m2734833291
c2a:__Z30FindDirectAttenuationFromProbeP18ForwardLightsBlockbiRK10RenderNodeRK23FindForwardLightsParamsf
ezb:__ZN12InputManager23VirtualRedirectTransferER24GenerateTypeTreeTransfer
MZb:__ZN9Transform23VirtualRedirectTransferER24GenerateTypeTreeTransfer
kNd:__ZN5physx21PxsBodyTransformVault7addBodyERKNS_11PxsBodyCoreE
qnc:__ZN12GUIClipState10BeginOnGUIER10InputEvent
$Xb:__ZNSt3__26vectorIN9ShaderLab20SerializedSubProgram12UAVParameterENS_9allocatorIS3_EEE21__push_back_slow_pathIKS3_EEvRT_
$cd:__ZN5physx6shdfnd5ArrayINS_35PxClothParticleSeparationConstraintENS0_19ReflectionAllocatorIS2_EEE6resizeEjRKS2_
K9g:_X509ChainElement_Count_m228862214
Cuh:_TimeZone_IsDaylightSavingTime_m1840774423
ioe:_UNITY_tt_size_ready_bytecode
Fbe:__ZN13TextRendering4FontD2Ev
OAh:__Z47RuntimeInvoker_Single_t2076509932_RuntimeObjectPFvvEPK10MethodInfoPvPS4_
fch:_Interval__ctor_m160053574
Aee:_UNITY_FT_Stream_Open
BUh:__Z97RuntimeInvoker_Int32_t2071877448_IntPtr_t_RectU26_t844847526_RuntimeObject_Vector2U26_t3911752445PFvvEPK10MethodInfoPvPS4_
mse:__GLOBAL__sub_I_runtime_ui_lump_cpp
BQa:__ZN10MemoryFile4ReadEyyPvPy
nAa:__ZN13GfxDeviceGLES26UpdateViewProjectionMatrixEv
lqj:_Dictionary_2_ContainsKeyValuePair_m1750905675_gshared
BXh:__Z53RuntimeInvoker_RaycastHit2D_t4063908774_RuntimeObjectPFvvEPK10MethodInfoPvPS4_
v4b:__ZZL23RegisterLightPropertiesR22GenericPropertyBindingEN22Wrapper_LightIntensity13SetFloatValueEPvf
eJ:__ZN4FMOD3DSP12setParameterEif
rfa:__ZN13MemoryManager16StaticInitializeEv
dDi:__ZL53StackFrame_t2050294881_CustomAttributesCacheGeneratorP21CustomAttributesCache
Uf:___cxa_free_exception
xOg:_ReadOnlyCollection_1_System_Collections_ICollection_CopyTo_m4126742951_gshared
SM:__ZN4FMOD22FakeModChannelCallbackEPv
_f:_emscripten_glValidateProgram
gTf:_NumberFormatInfo_get_InvariantInfo_m2658215204
g2e:_HorizontalOrVerticalLayoutGroup_set_childControlWidth_m4209477792
F3k:__ZN6il2cpp2gc19AppendOnlyGCHashMapINSt3__24pairIPK9EventInfoP11Il2CppClassEEP21Il2CppReflectionEvent17ReflectionMapHashIS9_ENS2_8equal_toIS9_EEE3AddERKS9_SB_
yEd:__ZN5physx36solveContactPreBlock_WriteBackStaticEPKNS_23PxcSolverConstraintDescEjRNS_16PxcSolverContextEPNS_25PxcThresholdStreamElementEjPi
usk:_Sprite_get_associatedAlphaSplitTexture_m3617241169
Fhh:_ArrayFixupRecord_FixupImpl_m2377725358
z9b:__ZN17CollisionMeshData21GetSharedNxConvexMeshER4Mesh
_le:_cf2_stack_clear
NCl:dynCall_viiiiiiiiiiiiiiiiiiiiiiiiiiiiiiiiii
Kvf:_Double_System_IConvertible_ToBoolean_m4251806534_AdjustorThunk
Wkj:_ShimEnumerator_Reset_m2247049027_gshared
ebl:__ZN6il2cpp6icalls8mscorlib6System4Type27get_IsGenericTypeDefinitionEP20Il2CppReflectionType
n7a:__ZN7Texture13SetAnisoLevelEi
b8g:_X509Chain_Process_m2508784250
exg:_List_1_RemoveAt_m2929488689_gshared
dge:_raccess_guess_vfat
Yve:__Z44Canvas_CUSTOM_GetETC1SupportedCanvasMaterialv
t9:__ZN33InstancedMeshIntermediateRenderer13StaticDestroyEPv
$Vf:_Int16_Parse_m3012618547
dqe:__Z13RegisterClassIN20TextRenderingPrivate8TextMeshEEvv
Zqd:__ZN5physx7NpScene26setSimulationEventCallbackEPNS_25PxSimulationEventCallbackEh
vcl:__ZN14dense_hash_mapI10KeyWrapperIP14Il2CppIUnknownEjN6il2cpp5utils11PointerHashIS1_EENS3_14EqualsComparerINSt3__28equal_toIS2_EEEENS9_9allocatorINS9_4pairIKS3_jEEEEE13set_empty_keyERSF_
oHh:__Z50RuntimeInvoker_Void_t1841601450_OpCode_t2247480392PFvvEPK10MethodInfoPvPS4_
ulf:_Convert__cctor_m926133987
Ojb:__Z21DestroyShadowMapCacheP14ShadowMapCache
Ux:__ZN7mecanim9animation25CreateControllerWorkspaceEPKNS0_18ControllerConstantERNS_6memory9AllocatorE
Qjg:_Enumerator_VerifyState_m739025304_gshared
QZe:_Graphic_RegisterDirtyVerticesCallback_m4169445219
L5k:__ZN15dense_hashtableINSt3__24pairIK10KeyWrapperIPK10Il2CppTypeEjEES6_N6il2cpp8metadata14Il2CppTypeHashEN14dense_hash_mapIS6_jSB_NS6_14EqualsComparerINSA_26Il2CppTypeEqualityComparerEEENS0_9allocatorIS8_EEE9SelectKeyESF_SH_E14squash_deletedEv
ubl:__ZN6il2cpp2vm13LivenessState5ResetEv
yPc:__ZN5physx6shdfnd4sortIPvNS0_4LessIS2_EENS0_19ReflectionAllocatorINS_2Sc16ActorElementPairEEEEEvPT_jRKT0_RKT1_j
avk:_Transform_get_parent_m147407266
IXh:__Z138RuntimeInvoker_Void_t1841601450_RuntimeObject_Color32_t874517518_Int32_t2071877448_Int32_t2071877448_Single_t2076509932_Single_t2076509932PFvvEPK10MethodInfoPvPS4_
fsc:__ZN9JSONWrite8TransferI11KeyframeTplIfEEEvRT_PKc17TransferMetaFlags
vEj:_Text_get_cachedTextGenerator_m224335893
Xgi:_GameObject_GetComponent_m306258075
_Xd:__ZN5physx2Gu15EdgeListBuilder18ComputeActiveEdgesEjPKjPKtPKNS_6PxVec3Ef
VOa:__ZN24BuiltinShaderParamValuesC2Ev
Ysc:__ZL41CreateJSONTransferFunctionScriptingTraitsv
rpd:__ZN5physx17PxsContactManagerC2EPNS_10PxsContextEj
f$f:_FileStream_get_CanWrite_m775322953
eUa:__Z23GetLateBehaviourManagerv
fbe:__Z46Register_UnityEngine_SphereCollider_get_radiusv
NMc:__ZN5physx6shdfnd5ArrayIPNS_7PxShapeENS0_15InlineAllocatorILj64ENS0_19ReflectionAllocatorIS3_EEEEE6resizeEjRKS3_
c6:__ZN10MemoryPool10DeallocateEPv
Gzf:_CultureInfo_set_NumberFormat_m1618950525
ZSf:_NumberFormatInfo__ctor_m2752806684
nWe:_CanvasUpdateRegistry_get_instance_m862315367
WBc:__ZN5physx6shdfnd19optimizeBoundingBoxERNS_7PxMat33E
Nhk:_PatternCompiler_EmitFastRepeat_m1175707353
YOf:_Array_InternalArray__get_Item_TisKeyValuePair_2_t3716250094_m3120861630_gshared
Qfe:_cff_driver_class_pic_free
KCd:__ZN5physx2Gu22gjkRelativePenetrationINS0_9TriangleVENS0_10ShrunkBoxVEEEjRKT_RKT0_RKNS_6shdfnd3aos15PsMatTransformVERKNSB_6FloatVERNSB_5Vec3VESJ_SJ_RSF_PhSL_Rh
_wh:_UInt32_TryParse_m3987111861
ryc:__ZNK9rapidjson12GenericValueINS_4UTF8IcEE13JSONAllocatorE6AcceptINS_6WriterI16TempBufferWriterS2_S2_S3_EEEEbRT_
yDl:dynCall_vif
zDl:dynCall_vid
qVj:_Native_CSSNodeGetMeasureFunc_m3825031950
_qg:_List_1_System_Collections_IList_get_Item_m3989815218_gshared
ADl:dynCall_vii
Rmf:_DateTime__ctor_m3604679583
PRb:__Z18Transfer_BlittableI18StreamedBinaryReadILb0EELb0EdEvRK29SerializationCommandArgumentsR31RuntimeSerializationCommandInfo
chk:_Enumerator_System_Collections_IEnumerator_MoveNext_m3313126804
HZa:__ZNK17InstancedPropInfo14IsInstanceableERK19ShaderPropertySheet
_fb:__ZN5Unity9Component16CheckConsistencyEv
kWe:_LayoutRebuilder_ValidController_m2595049322
kJa:__ZN7ApiGLES11CheckShaderERjb
cha:__ZN19ShaderPropertySheet37CreateTextureAuxPropertyUninitializedEN9ShaderLab16FastPropertyNameES1_PKc
axi:_RectTransform_set_anchoredPosition_m2077229449
qNb:__ZL26Transfer_SimpleNativeClassI19StreamedBinaryWriteILb0EE10RectOffsetLb1EEvRK29SerializationCommandArgumentsR31RuntimeSerializationCommandInfo
XOf:_Array_InternalArray__get_Item_TisKeyValuePair_2_t1174980068_m964958642_gshared
KId:__ZN5physx20PxcContactCapsuleBoxERKNS_2Gu13GeometryUnionES3_RKNS_11PxTransformES6_RKfRNS_10PxcNpCacheERNS0_13ContactBufferE
j1k:__ZN15dense_hashtableINSt3__24pairIK10KeyWrapperIPK10Il2CppTypeEjEES6_N6il2cpp8metadata14Il2CppTypeHashEN14dense_hash_mapIS6_jSB_NS6_14EqualsComparerINSA_26Il2CppTypeEqualityComparerEEENS0_9allocatorIS8_EEE9SelectKeyESF_SH_E3endEv
e2a:__Z28GetNonInterpolatedLightProbeRK17LightProbeContextjR20SphericalHarmonicsL2
eHf:_Array_InternalArray__ICollection_Add_TisDateTime_t693205669_m3559987213_gshared
UCa:__ZN13GfxDeviceGLES17SetGpuProgramNameEP10GpuProgramPKc
UW:__ZNK11UnityEngine15CloudWebService25WebRequestDownloadHandler11GetProgressEv
NSg:_ARC4Managed_CheckInput_m3033530539
bVk:__ZN6il2cpp2vm13MetadataCache28GetMethodDefinitionFromIndexEi
ykl:__ZN6il2cpp2os20FileErrnoToErrorCodeEi
sma:__ZN14SafeBinaryRead19TransferSTLStyleMapINSt3__23mapI39DeprecatedFastPropertyNameSerialization10ColorRGBAfNS1_4lessIS3_EENS1_9allocatorINS1_4pairIKS3_S4_EEEEEEEEvRT_17TransferMetaFlags
nQj:_Behaviour_get_enabled_m4079055610
Edi:_MonoEventInfo_GetEventInfo_m2331957186
vZk:_il2cpp_gchandle_new
rwk:_Vector3_Lerp_m2935648359
Hxk:_NetFxCoreExtensions_GetMethodInfo_m2715372889
Hh:_atexit
lhf:_BitArrayEnumerator_Reset_m3218489242
QZf:_IOException__ctor_m613517077
oqd:__ZNK5physx7NpScene8getFlagsEv
m4k:__ZN6il2cpp2vmL31GetObjectForMissingDefaultValueEj
OKc:__ZN5physx3Cct17CapsuleController6resizeEf
hUc:__ZN5physx6shdfnd8PoolBaseINS_2Cm5BlockIhLj384EEENS0_19ReflectionAllocatorIS4_EEE12allocateSlabEv
IBd:__Z13sweepAABBAABBRKN5physx6PxVec3ES2_S2_S2_S2_S2_
ISk:__ZNK15dense_hashtableINSt3__24pairIK10KeyWrapperIN6il2cpp5utils13dynamic_arrayIPK10Il2CppTypeLj4EEEEPFvvEEESA_NS3_8metadata19Il2CppSignatureHashEN14dense_hash_mapISA_SD_SG_NSA_14EqualsComparerINSF_22Il2CppSignatureCompareEEENS0_9allocatorISE_EEE9SelectKeyESK_SM_E10test_emptyEj
BVb:__ZN9ShaderLab14SerializedPassC2ERKS0_
l6j:_InternalEnumerator_1_System_Collections_IEnumerator_get_Current_m3088751576_AdjustorThunk
vBa:__ZNK9GfxDevice28GetActiveRenderSurfaceHeightEv
O7c:__ZN5physx9NpPhysics20createParticleSystemEjb
l:STACKTOP
Ine:_cff_get_name_index
c4f:_Math_Cos_m43596019
yYd:__ZN5physx17ConvexHullBuilder14CreateEdgeListEv
vFb:__ZNSt3__26vectorI4PPtrI10MonoScriptE13stl_allocatorIS3_L18MemLabelIdentifier76ELi16EEE8__appendEj
M7b:__ZN17TransformInternal27UpdateDeepChildCountUpwardsER18TransformHierarchyii
OAl:__ZNK10__cxxabiv117__class_type_info16search_above_dstEPNS_19__dynamic_cast_infoEPKvS4_ib
uCd:__ZN5physxL24PxcSweepCapsuleTrianglesERKNS_11PxsCCDShapeES2_RKNS_11PxTransformES5_S5_S5_fRNS_6PxVec3ES7_RNS_10PxcNpCacheERNS_18PxcNpThreadContextERKNS_2Cm23FastVertex2ShapeScalingERNS_2Gu9TriangleVEf
BMj:_AnimatorControllerPlayable_Play_m656940433
A:tempBigIntD
hMe:_Single_Equals_m3359827399_AdjustorThunk
XRe:_EventTrigger_OnPointerClick_m413999043
z:tempBigIntI
Iyk:_CachedInvokableCall_1__ctor_m127496184_gshared
aSg:_PrimalityTests_RabinMillerTest_m2029846965
y:tempBigIntR
x:tempBigIntS
w:tempBigIntP
go:FUNCTION_TABLE_viffi
Zde:_open_face_PS_from_sfnt_stream
fhh:_ServerIdentity_CreateObjRef_m1056204803
Q5:__ZN6Object18RegisterInstanceIDEPS_
WKb:__Z18Transfer_BlittableI24GenerateTypeTreeTransferLb1EsEvRK29SerializationCommandArgumentsR31RuntimeSerializationCommandInfo
Agl:__ZN15dense_hashtableINSt3__24pairIK10KeyWrapperIP12Il2CppObjectEN6il2cpp2gc9CachedCCWEEES5_NS7_5utils11PointerHashIS3_EEN14dense_hash_mapIS5_S9_SD_NS5_14EqualsComparerINS0_8equal_toIS4_EEEENS0_9allocatorISA_EEE9SelectKeyESI_SK_E11set_deletedER30dense_hashtable_const_iteratorISA_S5_SD_SM_SI_SK_E
oAa:__ZNK9GfxDevice18GetWorldViewMatrixEv
jrg:_List_1_Contains_m3819542652_gshared
bXg:_TlsServerKeyExchange__ctor_m247733406
cQf:_Object_Instantiate_TisRuntimeObject_m1767088036_gshared
LLg:_ReadOnlyCollection_1_System_Collections_IList_Add_m3065652010_gshared
Tml:__ZN6il2cpp6icalls8mscorlib6System7Convert17Base64ToByteArrayEPDsib
GBk:_IndexedSet_1_Clear_m2776064367_gshared
NKd:__ZN5physx2Gu18pcmContactPlaneBoxERKNS0_13GeometryUnionES3_RKNS_11PxTransformES6_RKfRNS0_5CacheERNS0_13ContactBufferE
Ini:_GUIUtility_set_systemCopyBuffer_m2040945785
C2h:__Z82RuntimeInvoker_Boolean_t3825574718_RaycastResult_t21186376_RaycastResult_t21186376PFvvEPK10MethodInfoPvPS4_
vqi:_Mesh_SetNormals_m3341225499
nSk:__ZNSt3__218__insertion_sort_3IRN6il2cpp5utils11collections13ArrayValueMapIPK10Il2CppType17Il2CppInteropData26InteropDataToTypeConverterNS1_8metadata14Il2CppTypeLessENSA_26Il2CppTypeEqualityComparerEE12SortComparerEPS8_EEvT0_SH_T_
Fse:__ZN2UI39SendIgnoreNextTransformChangedRecursiveEPK9TransformPKNS_6CanvasE
j1c:__ZN5physx6shdfnd5ArrayIPNS_2Sq10ActorShapeENS0_19ReflectionAllocatorIS4_EEE15growAndPushBackERKS4_
sAa:__ZNK9GfxDevice25GetDeviceProjectionMatrixEv
h4g:_HttpWebRequest__ctor_m1248252412
ra:invoke_iidiii
aLb:__Z18Transfer_BlittableI24GenerateTypeTreeTransferLb1EtEvRK29SerializationCommandArgumentsR31RuntimeSerializationCommandInfo
X3h:_RankException__ctor_m2119191472
yyc:__ZN9rapidjson12PrettyWriterI16TempBufferWriterNS_4UTF8IcEES3_13JSONAllocatorE11WriteIndentEv
AFc:__ZL13midPhaseQueryRKN5physx22PxTriangleMeshGeometryERKNS_11PxTransformERNS_2Gu3BoxERNS6_9ContainerE
mvc:__ZN9JSONWrite8TransferI13dynamic_arrayI4AABBLj4EEEEvRT_PKc17TransferMetaFlags
pHh:__Z64RuntimeInvoker_Void_t1841601450_OpCode_t2247480392_RuntimeObjectPFvvEPK10MethodInfoPvPS4_
UT:__ZN5physx14PxLightCpuTask15removeReferenceEv
DRh:__Z88RuntimeInvoker_Void_t1841601450_Double_t4078015681_Double_t4078015681_Double_t4078015681PFvvEPK10MethodInfoPvPS4_
x5g:_SPKey_Equals_m1112627532
hJe:_SecurityPermission_IsSubsetOf_m1087302418
H1j:_ArgInfo__ctor_m3787931268
rpk:_X509Chain_Build_m175470596
TOd:__ZN5physx6shdfnd5ArrayINS_24PxsConstraintBatchHeaderENS0_19ReflectionAllocatorIS2_EEE8recreateEj
M8d:__ZN14PhysicsManagerC2E18MemLabelIdentifier18ObjectCreationMode
jha:__ZN9ShaderLab6TexEnvC2ERKNS_25SerializedTexturePropertyE
hsi:_Object_Instantiate_m2489341053
Lka:__ZN19ShaderPropertySheet38CopyTextureWithAuxiliaryPropertiesFromERKN9ShaderLab16FastPropertyNameERKS_
Uce:__ZN20TextRenderingPrivate19NativeTextGeneratorD2Ev
GVk:__ZN6il2cpp2vm19SocketPollingThread14DequeueRequestEv
fkl:__ZL10RevealLinkPv
JKf:_Array_InternalArray__set_Item_TisSingle_t2076509932_m4273663642_gshared
GQc:__ZN5physx6shdfnd8PoolBaseINS_2Sc26ActorPairContactReportDataENS0_19ReflectionAllocatorIS3_EEE12allocateSlabEv
jj:___cxa_end_catch
Z$d:__ZN23ControllerContactFilter9preFilterERKN5physx12PxFilterDataEPKNS0_7PxShapeEPKNS0_12PxRigidActorERNS0_7PxFlagsINS0_9PxHitFlag4EnumEtEE
S4h:_AssemblyName_InternalGetPublicKeyToken_m3706025887
KDl:dynCall_viffffii
iSe:_ExecuteEvents_Execute_m4235029535
u4g:_HttpWebRequest_GetObjectData_m1200570677
Qqd:__ZN5physx7NpScene12createClientEv
ewe:__Z43Register_UnityEngine_Canvas_set_scaleFactorv
mfi:_MonoProperty_GetCustomAttributes_m1756234231
yli:_GUIStyle_set_onHover_m3908151335
ege:_raccess_guess_linux_cap
j$g:_ReceiveRecordAsyncResult_get_AsyncWaitHandle_m1602093076
WQh:__Z113RuntimeInvoker_Boolean_t3825574718_Ray_t2469606224_RaycastHitU26_t1969197280_Single_t2076509932_Int32_t2071877448PFvvEPK10MethodInfoPvPS4_
$Rb:__Z19TransferField_ArrayI18StreamedBinaryReadILb0EE27Converter_UnityEngineObjectEvRK23StaticTransferFieldInfoR31RuntimeSerializationCommandInfoRT0_
OLh:__Z221RuntimeInvoker_Void_t1841601450_Int32_t2071877448_Int16_t4041245914_Int16_t4041245914_SByte_t454417549_SByte_t454417549_SByte_t454417549_SByte_t454417549_SByte_t454417549_SByte_t454417549_SByte_t454417549_SByte_t454417549PFvvEPK10MethodInfoPvPS4_
emb:__ZN5Light8TransferI24GenerateTypeTreeTransferEEvRT_
aDc:__ZN26ContactCapsuleMeshCallback10processHitERKN5physx12PxRaycastHitERKNS0_6PxVec3ES6_S6_RfPKj
D0:__Z33InitializeBuiltinShaderParamNamesv
thg:_ActivationContext_System_Runtime_Serialization_ISerializable_GetObjectData_m775951299
$8d:__ZN13PhysicsModule24CapsuleColliderSetHeightER15CapsuleColliderf
dxi:_RectTransform_INTERNAL_get_sizeDelta_m3975625099
GWc:__ZN5physx6shdfnd5ArrayINS_19PxHeightFieldSampleENS0_19ReflectionAllocatorIS2_EEE6resizeEjRKS2_
vHd:__ZN5physx14PxsAABBManager25removeAggregateSinglePairEjPNS_9AggregateEPNS_2Cm10BitMapBaseINS_6shdfnd9AllocatorEEE
Kri:_Object_GetOffsetOfInstanceIDInCPlusPlusObject_m1587840561
_ia:__ZNK16TypeTreeIterator4TypeEv
F1j:_LeaseManager__ctor_m2166901364
dPa:__ZN10FileSystem25MountDataFolderFileSystemERKN4core12basic_stringIcNS0_20StringStorageDefaultIcEEEES6_
mfj:__ZL67Selectable_t1490392188_CustomAttributesCacheGenerator_m_SpriteStateP21CustomAttributesCache
Sj:_glGetUniformLocation
DBa:__ZN13GfxDeviceGLES32CreateColorRenderSurfacePlatformEP17RenderSurfaceBase19RenderTextureFormat
kK:__ZN12AudioManager24CreateFMODSoundFromMovieEP9AudioClip
Ayc:__ZN9rapidjson6WriterI16TempBufferWriterNS_4UTF8IcEES3_13JSONAllocatorE8WriteIntEi
pWd:__ZN5physx2Gu12TriangleMesh15exportExtraDataERNS_22PxSerializationContextE
aUk:__ZN6il2cpp2vm13MetadataCache24GetGenericInstanceMethodEPK10MethodInfoPK20Il2CppGenericContext
j8f:_MSCompatUnicodeTable_get_IsReady_m562849792
o8f:_SimpleCollator_SetCJKTable_m1356471502
AOb:__Z18Transfer_BlittableI18StreamedBinaryReadILb1EELb0E8Vector2fEvRK29SerializationCommandArgumentsR31RuntimeSerializationCommandInfo
WWf:_Int32_System_IConvertible_ToUInt64_m2888588559_AdjustorThunk
j5:__Z24ConvertSeparatorsToUnityPc
rzb:__ZNSt3__213__vector_baseI9InputAxisNS_9allocatorIS1_EEED2Ev
E8k:__ZN6il2cpp2vm6Thread20FreeThreadStaticDataEP12Il2CppThread
llf:_Console_SetEncodings_m342145566
yAh:__Z28RuntimeInvoker_RuntimeObjectPFvvEPK10MethodInfoPvPS4_
Vxf:_Exception_get_ClassName_m2189012117
Dcf:_Byte_System_IConvertible_ToUInt16_m2275325191
SZj:_MarshalDirectiveException__ctor_m3894820706
EVc:__ZN5physx2Sc8BodyCore17setupSimStateDataEPNS_6shdfnd4PoolINS0_12SimStateDataENS2_19ReflectionAllocatorIS4_EEEEbb
hgc:__Z41Register_UnityEngine_RectOffset_set_rightv
nme:_cf2_glyphpath_finalize
Tkf:_Stack__ctor_m521896492
xYa:__Z20LookRotationToMatrixRK8Vector3fS1_P10Matrix3x3f
Ngd:__Z25computePacketSizeMultLog2ff
eEl:dynCall_viififi
EBb:__ZNSt3__26vectorIN15ResourceManager10DependencyE13stl_allocatorIS2_L18MemLabelIdentifier51ELi16EEE6assignINS_11__wrap_iterIPS2_EEEENS_9enable_ifIXaasr21__is_forward_iteratorIT_EE5valuesr16is_constructibleIS2_NS_15iterator_traitsISC_E9referenceEEE5valueEvE4typeESC_SC_
jge:_UNITY_FT_Stream_Free
Yuh:_Type_GetTypeFromHandle_m432505302
r8k:__ZN15dense_hashtableINSt3__24pairIK10KeyWrapperINS1_IP11Il2CppClassjEEES4_EES6_N6il2cpp8metadata14ArrayClassHashEN14dense_hash_mapIS6_S4_SB_NS6_14EqualsComparerINSA_17ArrayClassCompareEEENS0_9allocatorIS8_EEE9SelectKeyESF_SH_E12maybe_shrinkEv
uCf:_PlayableHandle_IsPlayableOfType_TisAnimationClipPlayable_t4099382200_m682525715_gshared
DZj:_GCHandle_FreeHandle_m2466807271
Tod:__ZN5physx16PxsIslandManager18setEdgeUnconnectedERKNS_20PxsIslandManagerHookIjLj4294967295EEE
l0e:_GraphicRegistry_get_instance_m2112667631
bV:__ZN11UnityEngine15CloudWebService14DataDispatcher25OnDataBlockConsumedStaticEPv
nSe:_ExecuteEvents_Execute_m2476343313
GAc:__ZL27GeomMTDCallback_PlaneConvexRN5physx6PxVec3ERfRKNS_10PxGeometryERKNS_11PxTransformES5_S8_
lHi:__ZL54_MethodInfo_t3642518830_CustomAttributesCacheGeneratorP21CustomAttributesCache
uXe:_CanvasUpdateRegistry_CleanInvalidItems_m1402635291
uPf:_Array_InternalArray__get_Item_TisSingle_t2076509932_m1495809753_gshared
HTk:__ZNK6il2cpp5utils11collections13ArrayValueMapIPK10Il2CppType17Il2CppInteropData26InteropDataToTypeConverterNS_8metadata14Il2CppTypeLessENS8_26Il2CppTypeEqualityComparerEE10find_firstERKS5_
QKf:_Array_InternalArray__set_Item_TisAnimatorClipInfo_t3905751349_m978873279_gshared
vHf:_Array_InternalArray__ICollection_Add_TisSByte_t454417549_m46595441_gshared
ISe:_ExecuteEvents_get_endDragHandler_m56074740
_si:_Playable_get_Null_m3678950051
e3b:__ZZN8Renderer15InitializeClassEvEN28FunctorImpl_136kLayerChanged4CallEPviR11MessageData
x5e:_InputField_IsValidChar_m3929866302
sUb:__Z14resize_trimmedINSt3__26vectorIN9ShaderLab20SerializedSubProgram16SamplerParameterENS0_9allocatorIS4_EEEEEvRT_j
fpd:__ZN5physx6shdfnd5ArrayIPvNS0_15InlineAllocatorILj256ENS0_19ReflectionAllocatorINS_2Gu30LargePersistentContactManifoldEEEEEE15growAndPushBackERKS2_
Hef:_ArrayList__cctor_m2090802806
xAl:__ZNSt3__212basic_stringIcNS_11char_traitsIcEENS_9allocatorIcEEE6insertEjPKcj
_sc:__Z44InitializeTransferFunctionScriptingTraitsForI8JSONReadEvR31TransferFunctionScriptingTraits
Tcd:__ZN5physx2Sc13ClothBulkData15exportExtraDataERNS_22PxSerializationContextE
ybb:__ZNSt3__26vectorINS_4pairIN4core12basic_stringIcNS2_20StringStorageDefaultIcEEEES6_EE13stl_allocatorIS7_L18MemLabelIdentifier37ELi16EEE6insertENS_11__wrap_iterIPKS7_EERSD_
Lya:__ZNSt3__27__sort4IRNS_4lessIN22BuiltinResourceManager8ResourceEEEPS3_EEjT0_S7_S7_S7_T_
rSe:_ExecuteEvents_Execute_m171612015
Cha:__ZN15dense_hashtableINSt3__24pairIKPK17RenderSurfaceBaseP13RenderTextureEES4_19PointerHashFunctionIS4_EN14dense_hash_mapIS4_S7_SA_NS0_8equal_toIS4_EE13stl_allocatorIS8_L18MemLabelIdentifier65ELi16EEE9SelectKeyESD_SG_E12resize_deltaEjj
mHa:__ZN4crnd12crn_unpacker11unpack_dxt5EPPhjjjjjj
Jxh:_UInt32_System_IConvertible_ToUInt64_m4083788326_AdjustorThunk
z6i:__ZL99GUIStyle_t1799908754_CustomAttributesCacheGenerator_GUIStyle_t1799908754____clipOffset_PropertyInfoP21CustomAttributesCache
gQc:__ZN5physx6shdfnd4sortIPvNS0_4LessIS2_EENS0_19ReflectionAllocatorINS_2Sc19ShapeInstancePairLLEEEEEvPT_jRKT0_RKT1_j
Gmh:_DESTransform_Permutation_m4174035780
DVd:__ZN5physx13GuMeshFactory17createHeightFieldERKNS_17PxHeightFieldDescE
a$f:_MonoIO_Seek_m3461199288
FSb:__Z29Transfer_Blittable_ArrayFieldI18StreamedBinaryReadILb0EE4AABBEvRT_R9ArrayInfoRK23StaticTransferFieldInfo
g8a:__ZN10GameObject34AddFirstTransformComponentInternalEP9Transform
Ffc:__Z31Cursor_Get_Custom_PropLockStatev
U0:__ZNSt3__26__treeINS_12__value_typeINS_4pairIPcS3_EENS_3setIS3_15compare_tstringIPKcENS_9allocatorIS3_EEEEEENS_19__map_value_compareIS4_SD_20smaller_tstring_pairIS8_ELb1EEENSA_ISD_EEE7destroyEPNS_11__tree_nodeISD_PvEE
aOk:__ZN15dense_hashtableINSt3__24pairIK10KeyWrapperIPK22Il2CppGenericParameterEP11Il2CppClassEES6_N6il2cpp5utils11PointerHashIS4_EEN14dense_hash_mapIS6_S9_SE_NS6_14EqualsComparerINS0_8equal_toIS5_EEEENS0_9allocatorISA_EEE9SelectKeyESJ_SL_E15insert_noresizeERKSA_
Hgc:__Z52Register_UnityEngine_GameObject_GetComponentInParentv
jAb:__ZN15SerializeTraitsINSt3__24pairIPKN5Unity4TypeE7Hash128EEE8TransferI14SafeBinaryReadEEvRS7_RT_
U4d:__ZN5physx7profile10EventValue9streamifyINS0_15EventSerializerINS0_12MemoryBufferINS0_21WrapperNamedAllocatorEEEEEEEvRT_RKNS0_11EventHeaderE
M4a:__Z37GenerateCombinedDynamicVisibleListJobP11CullResults
hZ:__GLOBAL__sub_I_runtime_graphics_billboard_lump_cpp
xda:__ZNK13ScreenManager21GetCursorInsideWindowEv
Ljl:__ZN6il2cpp2vmL22RaiseOverflowExceptionEv
vXf:_Int64_System_IConvertible_ToByte_m3027162116_AdjustorThunk
Mgk:_Match_get_Empty_m3581361913
M1a:__Z20IntersectAABBFrustumRK4AABBPK5Planej
jOe:_String_Concat_m626692867
j5b:__ZN13RenderManager15InitializeClassEv
iIb:__ZN15SerializeTraitsI12PropertyNameE8TransferI14SafeBinaryReadEEvRS0_RT_
Lma:__ZN18UnityPropertySheet11UnityTexEnvC2Ev
ltk:_TextGenerationSettings_CompareVector2_m592645251_AdjustorThunk
Q3d:__ZN5physx7profile8ZoneImplINS_28PxProfileNameProviderForwardEED0Ev
PDl:dynCall_iiiiiiiiiiffffii
$uc:__ZN9JSONWrite8TransferI11ColorRGBA32EEvRT_PKc17TransferMetaFlags
sxc:__Z22TransferField_NonArrayI8JSONRead27Converter_SimpleNativeClassI8GradientEEvRK23StaticTransferFieldInfoR31RuntimeSerializationCommandInfoRT0_
pdb:__ZNSt3__26__treeIN4core12basic_stringIcNS1_20StringStorageDefaultIcEEEENS_4lessIS5_EE13stl_allocatorIS5_L18MemLabelIdentifier37ELi16EEE7destroyEPNS_11__tree_nodeIS5_PvEE
SIa:__ZNSt3__26vectorI15ComputeShaderCBNS_9allocatorIS1_EEE21__push_back_slow_pathIKS1_EEvRT_
k0b:__ZN13ProduceHelperI11MonoManagerLb0EE7ProduceE18MemLabelIdentifier18ObjectCreationMode
cLa:__ZNK18GfxFramebufferGLES15DiscardContentsER12ObjectHandleI17RenderSurface_TagP17RenderSurfaceBaseE
Tcg:_KeyPairPersistence_IsUserProtected_m37342608
Iyl:___fflush_unlocked
euc:__Z18Transfer_BlittableI9JSONWriteLb1EdEvRK29SerializationCommandArgumentsR31RuntimeSerializationCommandInfo
yIl:_glGetIntegerv__wrapper
eRf:_NumberFormatter_ResetCharBuf_m3823516989
b6c:__ZN5physx2Sc13ConstraintSim15preBodiesChangeEv
H:Math_pow
Yba:__ZN14dense_hash_mapIN4core12basic_stringIcNS0_20StringStorageDefaultIcEEEE10vector_setI4PPtrI11SpriteAtlasENSt3__24lessIS8_EE13stl_allocatorIS8_L18MemLabelIdentifier79ELi16EEE20StringHash32FunctionIS4_ENS9_8equal_toIS4_EESC_INS9_4pairIKS4_SF_EELSD_79ELi16EEE15set_deleted_keyERSL_
o8a:__ZN10GameObject28FinalizeAddComponentInternalEPN5Unity9ComponentE
gI:__Z64AnimatorControllerPlayable_CUSTOM_INTERNAL_CALL_SetTriggerStringR9HPlayableP12Il2CppString
Zli:_GUIStyle_Internal_Draw_m3610093213
Lsk:_StackTraceUtility_IsSystemStacktraceType_m506502194
Jqb:__ZN9Texture2DD2Ev
cZ:__GLOBAL__sub_I_runtime_geometry_lump_cpp
aff:_ArrayList_Remove_m3941780739
$1d:__ZN14PhysicsManager8TransferI19StreamedBinaryWriteILb0EEEEvRT_
ded:__ZNK5physx2Sc9ClothCore16getStretchConfigENS_22PxClothFabricPhaseType4EnumE
cLh:__Z69RuntimeInvoker_Void_t1841601450_SByte_t454417549_TimeSpan_t3430258949PFvvEPK10MethodInfoPvPS4_
Vc:invoke_iiiifiiiii
Qwd:__ZN5physx2Sc5Scene31setClothInterCollisionStiffnessEf
E6h:_ConstructorBuilder_not_created_m2150488017
aCh:__Z63RuntimeInvoker_Char_t3454481338_Int16_t4041245914_RuntimeObjectPFvvEPK10MethodInfoPvPS4_
nH:__ZNSt3__26vectorIiNS_9allocatorIiEEE6insertENS_11__wrap_iterIPKiEERS5_
umk:_Uri_AppendQueryAndFragment_m2358658590
bqi:_Mesh_GetIndicesImpl_m2398977086
Or:__ZN13dynamic_arrayIhLj1EE18resize_initializedEjRKh12ResizePolicy
mXj:_InvokableCallList_AddListener_m786891050
axa:__ZN17PersistentManager27GetLoadErrorMessageFromPathERKN4core12basic_stringIcNS0_20StringStorageDefaultIcEEEE
HPe:_DecoderReplacementFallbackBuffer_Fallback_m1790184670
Em:_glGenRenderbuffers
Ubl:__ZN6il2cpp6icalls8mscorlib6System2IO6MonoIO19GetCurrentDirectoryEPi
wRd:__ZN5physx2Sc13ConstraintSim11projectPoseEPNS0_7BodySimE
qOe:_String_GetHashCode_m931956593
yAb:__ZN14PlayerSettings23VirtualRedirectTransferER17RemapPPtrTransfer
OIl:_emscripten_glGetIntegerv__wrapper
MId:__ZN5physx21PxcContactCapsuleMeshERKNS_2Gu13GeometryUnionES3_RKNS_11PxTransformES6_RKfRNS_10PxcNpCacheERNS0_13ContactBufferE
mP:__ZN12AudioManager31GetCurrentSpatializerDefinitionEv
Xxb:__ZN12MeshRenderer16UpdateCachedMeshEv
l9d:__ZN9Rigidbody11SetPositionERK8Vector3f
RHb:__Z19TransferField_ArrayI14SafeBinaryRead27Converter_SimpleNativeClassI8GradientEEvRK23StaticTransferFieldInfoR31RuntimeSerializationCommandInfoRT0_
Bdl:__ZN6il2cpp2vm5Image9GetCorlibEv
mz:__ZNK27StateMachineBehaviourPlayer25FireStateMachineBehaviourEiiN7mecanim12statemachine19StateMachineMessageE
KAj:_ScrollRectEvent__ctor_m2283981448
JKh:__Z52RuntimeInvoker_Single_t2076509932_Single_t2076509932PFvvEPK10MethodInfoPvPS4_
wXh:__Z109RuntimeInvoker_Single_t2076509932_RuntimeObject_RuntimeObject_Single_t2076509932_ILayoutElementU26_t440254879PFvvEPK10MethodInfoPvPS4_
Blg:_Enumerator_VerifyState_m3913376581_AdjustorThunk
U2g:_NameObjectCollectionBase_System_Collections_ICollection_CopyTo_m810189168
H7a:__ZN6Camera15SetOrthographicEb
The:_UNITY_FT_Stream_GetUShort
yAa:__ZN13GfxDeviceGLES14DisableScissorEv
nyd:__ZN5physx17PxcNpMemBlockPool23releaseConstraintMemoryEv
uGi:__ZL71ReliabilityContractAttribute_t1625655220_CustomAttributesCacheGeneratorP21CustomAttributesCache
hOd:__ZNK5physx10PxsContext25getManagerTouchEventCountEPiS1_S1_
Bpf:_Decimal_op_Explicit_m1986696267
isj:_Dictionary_2_System_Collections_ICollection_CopyTo_m3578539931_gshared
A4h:_Assembly_GetModules_m2242070953
FRf:_NumberFormatter_AppendDecimalString_m3532330813
id:_glVertexAttrib4f
cPh:__Z94RuntimeInvoker_RuntimeObject_RuntimeObject_Int32_t2071877448_SByte_t454417549_SByte_t454417549PFvvEPK10MethodInfoPvPS4_
Fxf:_Environment_GetFolderPath_m1849163024
vbg:_ASN1_Add_m2540239672
BBf:_Array_InternalArray__ICollection_Remove_TisInt16_t4041245914_m3380378727_gshared
Sti:_PlayableHandle_GetInputCount_m3249715311_AdjustorThunk
yBd:__ZN5physx6shdfnd4sortIPNS_10PxsCCDPairENS_13ToiPtrCompareENS0_19ReflectionAllocatorIS3_EEEEvPT_jRKT0_RKT1_j
ceh:_MethodDictionary_CopyTo_m1721788774
ABd:__ZN5physx13PxsCCDContext23runCCDModifiableContactEPNS_19PxModifiableContactEjPKNS_12PxsShapeCoreES5_PKNS_12PxsRigidCoreES8_PKNS_12PxsRigidBodyESB_
ice:__ZNSt3__26vectorINS_4pairINS1_IttEEfEENS_9allocatorIS3_EEE8__appendEj
GUe:_RaycastResult_ToString_m2233441736_AdjustorThunk
cpe:_UNITY_tt_face_get_location
kpi:_Mathf_Sin_m831310046
wgd:__ZN5physx15PxsParticleData6createERNS_30PxvParticleSystemStateDataDescERKNS_9PxBounds3E
Ipl:_GC_set_hdr_marks
TVa:__Z17SetupObjectMatrixRK10Matrix4x4fi
mLe:_SecurityFrame_ToString_m1282306399
k9f:_SimpleCollator_MatchesBackwardCore_m1884994267
euh:_TimeSpan_From_m1249538749
UXc:__ZN5physx6shdfnd8PoolBaseINS_11NpAggregateENS0_19ReflectionAllocatorIS2_EEE17releaseEmptySlabsEv
G8f:_SimpleCollator_GetSortKey_m1317491197
zmc:__Z43Object_CUSTOM_DoesObjectWithInstanceIDExisti
YZf:_Path_IsDsc_m1314465747
R0:__ZN13RuntimeStaticINSt3__23mapINS0_4pairIPcS3_EEPFbPvR14SafeBinaryReadE20smaller_tstring_pairIPKcENS0_9allocatorINS2_IKS4_S9_EEEEEELb0EE13StaticDestroyES5_
Mdi:_MonoEvent_GetCustomAttributes_m3899596098
$of:_Convert_ToSByte_m3295168715
Iu:__ZN7mecanim9animation16CreateClipMemoryEPKNS0_4ClipEiRNS_6memory9AllocatorE
Wde:_open_face
j3b:__ZZL31RegisterOtherRendererPropertiesR22GenericPropertyBindingEN30Wrapper_RendererReceiveShadows13SetFloatValueEPvf
yue:__Z17RegisterModule_UIv
ISd:__ZN5physx2Sc17ParticleSystemSim19unlinkParticleShapeEPNS0_19ParticlePacketShapeE
vRj:_Camera_FireOnPreRender_m24116662
jwh:_TypeLoadException_GetObjectData_m2885802706
jBa:__ZN9GfxDevice24CreateRenderDepthSurfaceE9TextureIDiiii16TextureDimension17DepthBufferFormat18SurfaceCreateFlags
gjh:_ObjectManager_DoFixups_m835924385
Igh:_RemotingServices_CreateWellKnownServerIdentity_m3390048085
cK:__ZN4FMOD5Sound11setUserDataEPv
CTb:__ZN14SafeBinaryRead21TransferSTLStyleArrayINSt3__26vectorIN9ShaderLab19SerializedSubShaderENS1_9allocatorIS4_EEEEEEvRT_17TransferMetaFlags
Vbl:__ZN6il2cpp6icalls8mscorlib6System2IO6MonoIO17GetFileAttributesEP12Il2CppStringPi
nve:__Z56Register_UnityEngine_CanvasRenderer_set_popMaterialCountv
gx:__ZN27AnimationLayerMixerPlayable13SetInputCountEi
FSg:_ARC4Managed_KeySetup_m73384687
RQa:__ZNK25SingleBlockMemoryFileData4SizeEv
Nrf:_DateTime_Equals_m2562884703
OAd:__ZN5physx6shdfnd9SListImpl7getSizeEv
MB:__ZN9BlobWrite8TransferIN7mecanim12statemachine18StateMachineMemoryEEEvRT_PKc17TransferMetaFlags
tBd:__ZN5physx2Cm12DelegateTaskINS_13PxsCCDContextEXadL_ZNS2_12postCCDSweepEPNS_10PxBaseTaskEEEE11runInternalEv
Zhd:__ZN5physx23NpParticleFluidReadData18setDataAccessFlagsENS_7PxFlagsINS_16PxDataAccessFlag4EnumEhEE
LN:__ZL50UnityAudioEffect_InternalSetFloatParameterCallbackP14FMOD_DSP_STATEif
Zfl:__ZNK15dense_hashtableINSt3__24pairIK10KeyWrapperIP12Il2CppObjectEN6il2cpp2gc9CachedCCWEEES5_NS7_5utils11PointerHashIS3_EEN14dense_hash_mapIS5_S9_SD_NS5_14EqualsComparerINS0_8equal_toIS4_EEEENS0_9allocatorISA_EEE9SelectKeyESI_SK_E3endEv
wTj:_Collider_INTERNAL_get_bounds_m4035290675
Mfb:__ZN17LowLevelAllocator4FreeEPvj
Jjf:_KeyMarker__cctor_m2057880225
i4d:__ZN5physx7profile8ZoneImplINS_28PxProfileNameProviderForwardEE10eventValueEtyx
z9d:__ZN9Rigidbody16TransformChangedEi
Vpj:_Dictionary_2_Init_m248376403_gshared
FNk:__ZN15dense_hashtableINSt3__24pairIK10KeyWrapperIPK22Il2CppGenericParameterEP11Il2CppClassEES6_N6il2cpp5utils11PointerHashIS4_EEN14dense_hash_mapIS6_S9_SE_NS6_14EqualsComparerINS0_8equal_toIS5_EEEENS0_9allocatorISA_EEE9SelectKeyESJ_SL_E9copy_fromERKSO_j
jUf:_TextInfo_get_ListSeparator_m3426465394
R3a:__ZN14qsort_internal5QSortIP16RenderObjectDatai25RenderPrePassObjectSorterEEvT_S4_T0_T1_
GYg:_Context_set_RecordProtocol_m1968834768
n7:__ZL19StaticCleanupPlayerPv
T8g:_X509Certificate2Enumerator_MoveNext_m1861665712
ZDd:__ZN5physx24writeBackContactCoulomb4EPKNS_23PxcSolverConstraintDescERNS_16PxcSolverContextEPPKNS_17PxcSolverBodyDataES8_
UDh:__Z87RuntimeInvoker_RuntimeObject_RuntimeObject_RuntimeObject_RuntimeObject_SByte_t454417549PFvvEPK10MethodInfoPvPS4_
Aba:__ZN15dense_hashtableINSt3__24pairIKN4core12basic_stringIcNS2_20StringStorageDefaultIcEEEEP11AssetBundleEES6_20StringHash32FunctionIS6_EN14dense_hash_mapIS6_S9_SC_NS0_8equal_toIS6_EENS0_9allocatorISA_EEE9SelectKeyESF_SH_ED2Ev
Mrh:_Monitor_Monitor_wait_m3813798368
rPe:_DecoderExceptionFallbackBuffer_Fallback_m3457210607
bgb:__ZN9Behaviour10DeactivateE19DeactivateOperation
$Vj:_Display_get_renderingWidth_m2127568366
eGg:_Collection_1_System_Collections_IList_get_Item_m2836259259_gshared
bPj:_Debug_LogWarning_m2503577968
zva:__ZN13StreamingInfo8TransferI14SafeBinaryReadEEvRT_
xJj:_AnimatorControllerPlayable_GetBoolString_m2522782124
$Tb:__ZN15dense_hashtableINSt3__24pairIKiN4core17string_with_labelILi1EEEEEi18SInt32HashFunctionN14dense_hash_mapIiS5_S7_NS0_8equal_toIiEE13stl_allocatorIS6_L18MemLabelIdentifier1ELi16EEE9SelectKeyESA_SD_E15insert_noresizeERKS6_
jCb:__ZN14SafeBinaryRead21TransferSTLStyleArrayINSt3__26vectorIN4core12basic_stringIcNS3_20StringStorageDefaultIcEEEE13stl_allocatorIS7_L18MemLabelIdentifier12ELi16EEEEEEvRT_17TransferMetaFlags
lNc:__GLOBAL__sub_I_runtime_dynamics_lump_cpp
Iq:__Z23CalculateGlobalRotation23TransformAccessReadOnly
X8g:_X509Store_Close_m2412711366
Exd:__ZN5physx2Cm10FanoutTaskD0Ev
hG:__Z25HumanPoseMaskFromBodyMaskRK13dynamic_arrayIjLj4EE
MQh:__Z93RuntimeInvoker_Boolean_t3825574718_Vector3_t2243707580_Vector3_t2243707580_Single_t2076509932PFvvEPK10MethodInfoPvPS4_
T0c:__ZN5physx14NpShapeManager26markAllSceneQueryForUpdateERNS_2Sq17SceneQueryManagerE
XJj:_AnimatorControllerPlayable_SetInteger_m881630854_AdjustorThunk
XSc:__ZN5physx2Sc21ConstraintInteractionD2Ev
g3b:__Z43InitializeRendererAnimationBindingInterfacev
$5:__ZL26DestroyGameObjectRecursiveR10GameObjectR11BatchDelete
yxj:_CullStateChangedEvent__ctor_m4025397477
Zpl:_GC_allochblk_nth
Rrh:_Mutex_ReleaseMutex_m2143813124
Axh:_UInt32_System_IConvertible_ToSByte_m604037412_AdjustorThunk
JXd:__ZNK5physx2Gu9Container8ContainsEjPj
t2b:__Z7HaloTexP9Texture2DPhiiii
VEl:dynCall_i
aIf:_Array_InternalArray__ICollection_CopyTo_TisKeyValuePair_2_t3749587448_m2750720485_gshared
Isi:_Physics_RaycastAll_m410413656
JR:__ZN17AudioCustomFilter4InitEv
rok:_X509Certificate__cctor_m2984068893
xIb:__ZN14SafeBinaryRead21TransferSTLStyleArrayI13dynamic_arrayIxLj8EEEEvRT_17TransferMetaFlags
bEl:dynCall_f
r2d:__ZN9Rigidbody10DeactivateE19DeactivateOperation
zLb:__Z35Transfer_Blittable_FixedBufferFieldI24GenerateTypeTreeTransferjEvRK29SerializationCommandArgumentsR31RuntimeSerializationCommandInfo
fob:__ZN8Playable13SetInputCountEi
hEl:dynCall_v
l1f:_Path__cctor_m3685888661
stf:_Decimal_System_IConvertible_ToDateTime_m4247760250_AdjustorThunk
Rbg:_BitConverterLE_ULongFromBytes_m2583105400
hKa:__ZN7ApiGLES14TextureSamplerEjjRK24GfxTextureSamplingParams17TextureColorSpace
$qj:_Dictionary_2_ToTKey_m965425080_gshared
qjb:__ZN6Camera23VirtualRedirectTransferER14SafeBinaryRead
Tqg:_List_1_System_Collections_IList_Insert_m2838947798_gshared
mul:__ZNSt3__26vectorINS_12basic_stringIDsNS_11char_traitsIDsEENS_9allocatorIDsEEEENS4_IS6_EEE8__appendEj
duh:_TimeSpan_FromDays_m2859053398
N$k:__ZN6il2cpp2vm4Type11IsEmptyTypeEPK10Il2CppType
gye:__ZN11UnityEngine7Connect13ConnectConfig11ConfigValueD2Ev
vEa:__ZNSt3__26__treeINS_12__value_typeIjP14DataBufferGLESEENS_19__map_value_compareIjS4_NS_4lessIjEELb1EEENS_9allocatorIS4_EEE7destroyEPNS_11__tree_nodeIS4_PvEE
RYc:__ZN5physx14NpArticulationD0Ev
P6b:__ZN13PlayableGraph15SetPrepareStageE13DirectorStage
Vb:invoke_viiiiiiii
p4f:_MissingMemberException__ctor_m2869542203
Myk:_CachedInvokableCall_1__ctor_m3238306320_gshared
l5a:__ZNK6Camera16GetCullingMatrixEv
Vwg:_List_1_Find_m160737912_gshared
Tlk:_Uri_EnsureAbsoluteUri_m1892758054
drb:__ZN16LightmapSettings5ResetEv
OPa:__ZN12FileAccessor4ReadEyPvPy
kpc:__Z42Register_UnityEngine_Event_get_commandNamev
Fef:_ArrayList_ThrowNewArgumentOutOfRangeException_m3795973535
lik:_Regex_Init_m1873144192
Vbg:_BitConverterLE_ToDouble_m516016818
P5:__ZNK15FileSystemEntry6ExistsEv
iUd:__ZN5physx2Gu10ConvexMesh4loadERNS_13PxInputStreamE
STg:_EncryptedPrivateKeyInfo__ctor_m3398795484
d2c:__ZN5physx2Sc5Scene11removeShapeERNS0_8ShapeSimEb
XK:__ZN13AudioListener23VirtualRedirectTransferER19StreamedBinaryWriteILb0EE
$Wd:__ZN5physx6shdfnd5ArrayIPvNS0_19ReflectionAllocatorIN17PxcPoolMallocData10PoolData16EEEE15growAndPushBackERKS2_
_Ba:__ZN13GfxDeviceGLES11CopyTextureE9TextureIDS0_
$dc:__Z72Register_UnityEngine_AssetBundleCreateRequest_DisableCompatibilityChecksv
JHl:_emscripten_glViewport__wrapper
QTh:__Z47RuntimeInvoker_RuntimeObject_Single_t2076509932PFvvEPK10MethodInfoPvPS4_
b0j:_Context__cctor_m3895126354
coe:_tt_size_select
Fae:__Z45CharacterController_Get_Custom_PropIsGroundedP12Il2CppObject
tV:__ZN11UnityEngine15CloudWebService17SessionEventQueue15RestoreFromFileER12FileAccessorPvy
pAb:__ZN14PlayerSettingsD2Ev
h$f:_FileStream_get_Length_m2265080501
svh:_Type_type_is_assignable_from_m1620694099
Nol:_GC_reclaim_all
M9:__ZN13PlayableGraph14DestroyOutputsEv
a1j:_ContextAttribute_GetPropertiesForNewContext_m4007241045
Tf:___syscall122
ZGc:__ZN16RayRTreeCallbackILi1ELb1EED0Ev
SId:__ZL18PxcContactHullHullRKN5physx2Gu13PolygonalDataES3_RKNS_9PxBounds3ES6_RKNS_11PxTransformES9_fRNS0_13ContactBufferERKNS_2Cm23FastVertex2ShapeScalingESF_bb
zYj:_ResourceSet__ctor_m2566914412
ycd:__ZN5physx7NpCloth16setContactOffsetEf
wcd:__ZN5physx7NpCloth23setSimulationFilterDataERKNS_12PxFilterDataE
YJj:_AnimatorControllerPlayable_SetInteger_m3338355659
jAc:__ZN5physx3Cct26CharacterControllerManager21resetObstaclesBuffersEv
ySg:_ASN1Convert_ToDateTime_m2305963290
eSd:__ZN5physx6shdfnd5ArrayIPNS_10PxsCCDBodyENS0_19ReflectionAllocatorIS3_EEE8recreateEj
HHe:_SymmetricAlgorithm_Finalize_m1665128997
xR:__ZN9AudioClip16EnableLegacyModeEv
dNj:_AnimatorStateInfo_IsName_m4069203550
jfc:__Z52Register_UnityEngine_Camera_INTERNAL_CALL_RaycastTryv
wbb:__ZN13sorted_vectorINSt3__24pairIN4core12basic_stringIcNS2_20StringStorageDefaultIcEEEES6_EEN10vector_mapIS6_S6_27compare_tstring_insensitiveIS6_E13stl_allocatorIS7_L18MemLabelIdentifier37ELi16EEE13value_compareESD_E10insert_oneERKS7_
lNd:__ZN5physx6shdfnd8PoolBaseINS_21PxsBodyTransformVault13PxsBody2WorldENS0_19ReflectionAllocatorIS3_EEE12allocateSlabEv
fmf:_Convert_ToByte_m791636053
nek:_InternalEnumerator_1_get_Current_m2986222582_AdjustorThunk
zNg:_ReadOnlyCollection_1_System_Collections_IList_RemoveAt_m2372993063_gshared
yEl:dynCall_iifi
Ccc:__ZN18ScriptingArguments13CopyFromOtherERKS_
qpi:_Mathf_Ceil_m3621406599
kke:_ps_hints_close
t5b:__Z16CreateRenderLoopR6Camera
tDd:__ZN5physx20PxcNpCacheStreamPairC2ERNS_17PxcNpMemBlockPoolE
C_:_tlsf_create
rfk:_DefaultComparer_Compare_m4039941311_gshared
dnj:_Enumerator_MoveNext_m2534596951_AdjustorThunk
eDb:__ZN13MonoBehaviour23VirtualRedirectTransferER18StreamedBinaryReadILb0EE
jVb:__ZN9ShaderLab20SerializedSubProgramC2ERKS0_
CMl:_emscripten_glCompileShader__wrapper
TGe:_SHA256Managed_ProcessBlock_m1064908669
LRj:_Canvas_get_pixelPerfect_m730801767
OSj:_CapsuleCollider_INTERNAL_get_center_m2069429931
pBl:__ZNK10__cxxabiv121__vmi_class_type_info27has_unambiguous_public_baseEPNS_19__dynamic_cast_infoEPvi
$pf:_Convert_ToUInt64_m2215781574
Mok:_X509Certificate_VerifySignature_m4020723406
fwh:_TypeInitializationException_GetObjectData_m2244451030
fzf:_CompareInfo_LastIndexOf_m2978196696
BEb:__ZN10MonoScript13AwakeFromLoadE17AwakeFromLoadMode
pcg:_DSAManaged_Generate_m3166917081
Ejj:_Enumerator_VerifyCurrent_m3330382363_AdjustorThunk
L3b:__ZZN12MeshRenderer15InitializeClassEvEN29FunctorImpl_133kDidDeleteMesh4CallEPviR11MessageData
Vl:_emscripten_glGetActiveUniform
q$a:__Z20RenderFullScreenQuadR9GfxDeviceRK6Camera17ShaderChannelMaskRK5RectTIfEf21MonoOrStereoscopicEye
ZIg:_ReadOnlyCollection_1_System_Collections_IList_Contains_m2320811592_gshared
aka:__ZN16RenderTextureMap5QueryEPK17RenderSurfaceBase
mKj:_AnimatorControllerPlayable_ResetTrigger_m758725835
Plb:__ZN5Light17MainThreadCleanupEv
x3f:_UnexceptionalStreamWriter_Write_m186237617
yBj:_ScrollRect_UpdateScrollbars_m3921404746
vLl:_emscripten_glUniform4iv__wrapper
YOd:__ZN5physx28solveParallelCouloumFrictionERNS_18PxsDynamicsContextEjjPNS_13PxcSolverBodyEPNS_17PxcSolverBodyDataEjjPNS_25PxcArticulationSolverDescEjPNS_23PxcSolverConstraintDescEjS9_jPiSA_SA_SA_SA_SA_PNS_25PxcThresholdStreamElementEjSA_PNS_2Cm13SpatialVectorEPKPNS_11PxsBodyCoreERNSD_10BitMapBaseINS_6shdfnd9AllocatorEEEPKPNS_15PxsArticulationEjPViRNSL_5ArrayINS_24PxsConstraintBatchHeaderENSL_19ReflectionAllocatorISW_EEEES10_RNSV_IjNSX_IjEEEES13_PPNS_12PxsRigidBodyEj
Jbf:_Boolean_CompareTo_m1086129598_AdjustorThunk
u3b:__ZN8Material8GetFloatEN9ShaderLab16FastPropertyNameE
ICd:__ZN5physx2Gu18gjkRelativeRayCastINS0_9TriangleVENS0_4BoxVES2_NS0_10ShrunkBoxVEEEbRT_RT0_RKNS_6shdfnd3aos15PsMatTransformVERKNSA_6FloatVERKNSA_5Vec3VESJ_RSE_RSH_SL_fb
IPj:_AudioPlayableOutput__ctor_m2971183853
Ofe:_psnames_module_class_pic_free
pnc:__Z11GetGUIStatev
Sg:_pthread_key_create
k3c:__ZN5physx2Sc8BodyCoreD2Ev
IUh:__Z61RuntimeInvoker_Boolean_t3825574718_Int32_t2071877448_IntPtr_tPFvvEPK10MethodInfoPvPS4_
Uef:_ArrayList_Clear_m3834604134
Bma:__ZN15SerializeTraitsI10ColorRGBAfE8TransferI14SafeBinaryReadEEvRS0_RT_
XUk:__ZN6il2cpp2vm13MetadataCache27GetEventDefinitionFromIndexEi
t7:__ZN22BuiltinResourceManager13StaticDestroyEPv
NLf:_Array_Resize_TisCustomAttributeTypedArgument_t1498197914_m3055365808_gshared
U5:__ZN10GameObject17GetComponentIndexEPN5Unity9ComponentE
zbd:__ZN5physx7NpCloth20setMotionConstraintsEPKNS_31PxClothParticleMotionConstraintE
jub:__ZN14SafeBinaryRead21TransferSTLStyleArrayI13dynamic_arrayI7SubMeshLj4EEEEvRT_17TransferMetaFlags
$Le:_Single_IsNegativeInfinity_m2615809279
rXf:_Int32_GetTypeCode_m3811463295_AdjustorThunk
AWg:_CipherSuiteFactory_GetSsl3SupportedCiphers_m2476597368
E4g:_IPv6Address_Fill_m1824197512
zN:__ZN29AudioEffectInternalDefinition9CreateDSPEPN4FMOD6SystemEPvPfP23UnityAudioAmbisonicDataPP25UnityAudioSpatializerData
Hpe:_UNITY_tt_face_vary_cvt
MWk:__ZNK6il2cpp5utils10functional6FilterINSt3__212basic_stringIcNS3_11char_traitsIcEENS3_9allocatorIcEEEENS0_13VmStringUtils21CaseSensitiveComparerEEclIPKcEEbRKT_
Umh:_DSACryptoServiceProvider_Finalize_m1911772902
Cnc:__Z28DidLoadAllAssembliesCallbackv
YTd:__ZNK5physx2Sc15ClothFabricCore9getPhasesEPNS_18PxClothFabricPhaseEj
abb:__ZN35RegisterRuntimeInitializeAndCleanup22ExecuteInitializationsEv
sQf:_GameObject_GetComponents_TisRuntimeObject_m3618562997_gshared
Ira:__ZN23PreloadManagerOperation14SetFinalTimingEffff
i:DYNAMICTOP_PTR
E_e:_Dropdown_SetupTemplate_m1416189897
nWa:__Z11CopyTextureP7TextureiiS0_ii
lAb:__ZN13BuildSettings8TransferI18StreamedBinaryReadILb0EEEEvRT_
Eyj:_PositionAsUV1__ctor_m412270210
i$b:__ZN10GameObject15InitializeClassEv
ovd:__ZN5physx3Scb17ArticulationJoint9syncStateEv
oCd:__ZNK5physx2Gu29EPASupportMapPairRelativeImplINS0_8CapsuleVENS0_4BoxVEE18doWarmStartSupportEiiRNS_6shdfnd3aos5Vec3VES8_S8_
Zgc:__Z38Renderer_Get_Custom_PropSortingLayerIDP12Il2CppObject
hRd:__ZN5physx17PxsThresholdTable5buildERKNS_18PxsThresholdStreamE
Mfj:__ZL90StencilMaterial_t1630303189_CustomAttributesCacheGenerator_StencilMaterial_Add_m1745413071P21CustomAttributesCache
fBf:_Array_InternalArray__ICollection_Contains_TisWorkRequest_t1154022482_m865286315_gshared
TGd:__ZN9BoxPruner12updateObjectERK5IAABBt
DQc:__ZN5physx2Sc10NPhaseCore32createActorPairContactReportDataEv
QKd:__ZN5physx2Gu22pcmContactPlaneCapsuleERKNS0_13GeometryUnionES3_RKNS_11PxTransformES6_RKfRNS0_5CacheERNS0_13ContactBufferE
C5d:__ZN5physx6shdfnd4sortIPvNS0_4LessIS2_EENS0_19ReflectionAllocatorINS_24NpPtrTableStorageManager8PtrBlockILi4EEEEEEEvPT_jRKT0_RKT1_j
flf:_Stack_Push_m284336154
U3e:_InputField_set_caretBlinkRate_m3521089516
yrf:_DateTime_Add_m4237489122
yBb:__ZN15ResourceManager10Dependency8TransferI14SafeBinaryReadEEvRT_
VEd:__ZNK5physx29BroadPhaseBatchUpdateWorkTask7getNameEv
pol:_GC_extend_size_map
wgk:_Comparer_1_System_Collections_IComparer_Compare_m637596782_gshared
$N:__ZN4FMOD6System9setDriverEi
wfl:__ZN6il2cpp8metadataL24RecursiveGenericDepthForEPK17Il2CppGenericInst
z5b:__ZNK9Transform11GetRotationEv
K7g:_X509Certificate2_Find_m833446211
VR:__ZN12AudioManager15DidReloadDomainEv
Vtd:__ZN5physx2Sc5Scene26setVisualizationCullingBoxERKNS_9PxBounds3E
Jke:_pshinter_get_globals_funcs
ALb:__Z18Transfer_BlittableI24GenerateTypeTreeTransferLb0EyEvRK29SerializationCommandArgumentsR31RuntimeSerializationCommandInfo
Jga:__ZN8Material14CreateMaterialER6ShaderN6Object9HideFlagsEb
adg:_KeyPairPersistence_FromXml_m2310151202
oec:__Z60Register_UnityEngine_AsyncOperation_get_allowSceneActivationv
Xsf:_DBNull_System_IConvertible_ToUInt64_m2919804476
xzl:_fread
vlb:__ZNK17InstancedPropInfo15RenderInstancesERK15RenderNodeQueuePK17BatchInstanceDataj17ShaderChannelMaskPFbPvS6_iR11MeshBuffersR16DrawBuffersRangeRiSC_E
gqc:__Z31GUIStyle_CUSTOM_GetFontInternalP12Il2CppObject
uje:_tt_cmap12_char_map_binary
U7d:__Z27GetMeshAssetPathDescriptivePK4Mesh
qKh:__Z51RuntimeInvoker_Double_t4078015681_Int16_t4041245914PFvvEPK10MethodInfoPvPS4_
vge:_ft_outline_glyph_transform
Mga:__Z25GetBuiltinResourceManagerv
Gzd:__ZN5physx2Sq16BucketPrunerCore20allocateSortedMemoryEj
Hfl:__ZN6il2cpp2gc8GCHandle15GetTargetHandleEP12Il2CppObjectii
ni:_llvm_trap
I0:__ZNSt3__27__sort5IRNS_6__lessIN12_GLOBAL__N_114ParamNameIndexES3_EEPS3_EEjT0_S7_S7_S7_S7_T_
IZf:_Directory_CreateDirectory_m3561886598
Mol:_get_index
cId:__ZNK5physx14SingleAABBTask7getNameEv
LYd:__ZN5physx11HullLibrary11calchullgenEPNS_6float3Eiif
fYa:__Z26scripting_method_get_class18ScriptingMethodPtr
MXg:_ClientSessionInfo_get_Valid_m3589823308
$dg:_PKCS1_Sign_v15_m2137018891
QCf:_SetPropertyUtility_SetClass_TisRuntimeObject_m3524554928_gshared
L8b:__ZN17CollisionMeshData20VertexDataHasChangedEv
uZj:_GCHandle__ctor_m2952050298
SVk:__ZN6il2cpp2vm21ThreadPoolCompartment12DetachThreadEP12Il2CppThread
zBa:__ZN13GfxDeviceGLES30SetBackBufferColorDepthSurfaceEP17RenderSurfaceBaseS1_
Goh:_Latin1Encoding_GetBytes_m1067304501
Src:__Z52Register_UnityEngine_GUIUtility_get_systemCopyBufferv
p7b:__ZN16StreamedResource8TransferI18StreamedBinaryReadILb0EEEEvRT_
Ohc:__Z49Register_UnityEngine_Input_get_imeCompositionModev
ltd:__ZN5physx6shdfnd5ArrayINS_12PxActorShapeENS0_19ReflectionAllocatorIS2_EEE8recreateEj
_Tb:__ZN15dense_hashtableINSt3__24pairIKiN4core17string_with_labelILi1EEEEEi18SInt32HashFunctionN14dense_hash_mapIiS5_S7_NS0_8equal_toIiEE13stl_allocatorIS6_L18MemLabelIdentifier1ELi16EEE9SelectKeyESA_SD_E12resize_deltaEjj
MNg:_ReadOnlyCollection_1__ctor_m2387481411_gshared
h6a:__ZNK20OcclusionCullingData22GetStaticRendererCountEv
Ghe:_UNITY_tt_face_free_ps_names
_o:FUNCTION_TABLE_iiiiifi
L$a:__ZNK6Camera17GetSkyboxMaterialEv
OMl:_emscripten_glDisableVertexAttribArray__wrapper
v7j:_InternalEnumerator_1_get_Current_m3259181373_AdjustorThunk
s9j:_InternalEnumerator_1_get_Current_m789289033_gshared
hQj:_DelegatePInvokeWrapper_AudioConfigurationChangeHandler_t3743753033
Xee:__ZNSt3__26vectorIN20TextRenderingPrivate8FontImpl13CharacterInfoE13stl_allocatorIS3_L18MemLabelIdentifier34ELi16EEE6insertENS_11__wrap_iterIPKS3_EERS9_
MPf:_Array_InternalArray__get_Item_TisUILineInfo_t3621277874_m1432166059_gshared
Zxb:__ZN12MeshRenderer18CalculateLocalAABBER4AABBRKS_RK4Mesh
ned:__ZN5physx2Sc9ClothCore20setMotionConstraintsEPKNS_31PxClothParticleMotionConstraintE
Mnk:_X509CertificateCollection_GetEnumerator_m3994741635
cVf:_Guid_ToString_m3927110175
Gfb:__ZN21UnityDefaultAllocatorI17LowLevelAllocatorE8AllocateEji
h3e:_Image_get_preferredHeight_m1045199335
LId:__ZN5physx23PxcContactCapsuleConvexERKNS_2Gu13GeometryUnionES3_RKNS_11PxTransformES6_RKfRNS_10PxcNpCacheERNS0_13ContactBufferE
Ete:__ZL28InitializeUIScriptingClassesv
Zdc:__Z43AssetBundleRequest_Get_Custom_PropAllAssetsP12Il2CppObject
ora:__ZN10UnityScene10ClearRootsEv
bbe:__Z50Register_UnityEngine_BoxCollider_INTERNAL_get_sizev
CRa:__ZN12HandlerChain10AtomicMoveER13FileEntryDataS1_
RCf:_SetPropertyUtility_SetStruct_TisBoolean_t3825574718_m752301298_gshared
gaa:__ZZN15DirectorManager15InitializeClassEvEN48PreLateUpdateDirectorDeferredEvaluateRegistrator7ForwardEv
Z$:__ZN20SpeedTreeWindManager6UpdateEf
aUj:_Color_op_Multiply_m325555950
Vkk:_Literal_GetWidth_m1285678191
xT:__Z71Register_UnityEngine_Audio_AudioClipPlayable_INTERNAL_CALL_ValidateTypev
Beg:_RSAManaged_GetPaddedValue_m4394397
tD:__ZN7mecanim9animation20CreateAvatarConstantEPNS_8skeleton8SkeletonEPNS1_13SkeletonPoseTIN4math4trsXEEES8_PNS_5human5HumanES3_iRKS6_RNS_6memory9AllocatorE
v3f:_UnexceptionalStreamWriter__ctor_m2209699189
FPj:_AudioMixerPlayable_INTERNAL_CALL_SetAutoNormalizeInternal_m2425179629
ftg:_List_1_Find_m970100220_gshared
pqk:_Transform_INTERNAL_get_rotation_m2427701365
kCf:_Array_InternalArray__ICollection_Remove_TisVector2_t2243707579_m3881494282_gshared
Ulj:_Transform_1_Invoke_m719893226_gshared
sxb:__ZN14CompressedMesh8TransferI19StreamedBinaryWriteILb0EEEEvRT_
HYc:__ZN5physx6shdfnd5ArrayIPvNS0_15InlineAllocatorILj256ENS0_19ReflectionAllocatorINS_14NpRigidDynamicEEEEEE15growAndPushBackERKS2_
L4h:_AssemblyFileVersionAttribute__ctor_m2026149866
Xdc:__Z58AssetBundleCreateRequest_CUSTOM_DisableCompatibilityChecksP12Il2CppObject
TIf:_Array_InternalArray__ICollection_CopyTo_TisUILineInfo_t3621277874_m2142954044_gshared
Tai:_TypeBuilder_SetParent_m387557893
ELc:__ZN5physx3Cct9SweepTest13onOriginShiftERKNS_6PxVec3E
Tfh:_SerializationInfo_SetType_m499725474
lWg:_CipherSuiteCollection_cultureAwareCompare_m1825407448
YQf:_DateTimeFormatInfo_GetEraName_m1437894363
xJf:_Array_InternalArray__Insert_TisLabelFixup_t4090909514_m3927736182_gshared
hah:_X509KeyUsageExtension_Encode_m3100824560
Xkb:__ZN24GenerateTypeTreeTransfer8TransferI21PlatformShaderDefinesEEvRT_PKc17TransferMetaFlags
gBb:__ZNK15ResourceManager22GetTypeVirtualInternalEv
htj:_DefaultComparer_GetHashCode_m1728348656_gshared
k5e:_InputField_MouseDragOutsideRect_m3758282095
xyj:_Outline_ModifyMesh_m3796381413
Nbe:__ZN13TextRendering4Font23VirtualRedirectTransferER24GenerateTypeTreeTransfer
QIc:__ZN5physx6shdfnd5ArrayINS_11PxDebugLineENS0_19ReflectionAllocatorIS2_EEE15growAndPushBackERKS2_
JEd:__ZN5physx25solveContactConcludeBlockEPKNS_23PxcSolverConstraintDescEjRNS_16PxcSolverContextE
nbh:_Interpreter_PopulateGroup_m4098755954
cUg:_PrivateKeyInfo_DecodeRSA_m919734506
Xhc:__ZNSt3__27__sort4IRNS_6__lessI11KeyframeTplIfES3_EEPS3_EEjT0_S7_S7_S7_T_
IId:__ZN5physx21PxcContactPlaneConvexERKNS_2Gu13GeometryUnionES3_RKNS_11PxTransformES6_RKfRNS_10PxcNpCacheERNS0_13ContactBufferE
xYf:_IntPtr__ctor_m3803259710
Ztf:_Decimal_Multiply_m1884379383
dzg:_Enumerator_System_Collections_IEnumerator_get_Current_m1270503615_gshared
wji:_GUILayoutGroup_CalcHeight_m1454440153
N6j:_InternalEnumerator_1_System_Collections_IEnumerator_get_Current_m3315293493_gshared
nKj:_AnimatorControllerPlayable_ResetTriggerID_m1114520954
HYa:__ZN11HaloManager17RenderGeometryJobEP25DynamicVBOGeometryJobDataj
fYf:_Int64_Parse_m4214159959
B9j:_InternalEnumerator_1_System_Collections_IEnumerator_get_Current_m4023948615_gshared
uF:__ZNSt3__227__insertion_sort_incompleteIRPFbN7mecanim9animation13MuscleIndexIdES3_EPS3_EEbT0_S8_T_
vQe:_BaseInput_get_mousePresent_m3571192771
_Ml:_emscripten_glBlendEquation__wrapper
M7k:__ZN15dense_hashtableINSt3__24pairIK10KeyWrapperIP11Il2CppClassES4_EES5_N6il2cpp8metadata16SZArrayClassHashEN14dense_hash_mapIS5_S4_SA_NS5_14EqualsComparerINS9_19SZArrayClassCompareEEENS0_9allocatorIS7_EEE9SelectKeyESE_SG_E13set_empty_keyERKS7_
iAl:__ZNSt3__212basic_stringIcNS_11char_traitsIcEENS_9allocatorIcEEE6__initEPKcj
rk:_emscripten_set_fullscreenchange_callback
knd:__ZN5physx2Sc5Scene11preAllocateEjjjjj
Mdg:_KeyPairPersistence__IsUserProtected_m3417764903
Kah:_CategoryUtils_CategoryFromName_m226887453
vuf:_Decimal_op_Division_m1099836590
eY:__ZN11UnityEngine15CloudWebService14DataDispatcher22ResetNetworkRetryIndexEv
_a:invoke_vifiiiiiiiiiiiiiiiiiiiiiiiiiiii
wk:_emscripten_glDrawArrays
Cae:__Z40CapsuleCollider_Get_Custom_PropDirectionP12Il2CppObject
sTa:__ZZ23InitPlayerLoopCallbacksvEN43EarlyUpdateExecuteMainThreadJobsRegistrator7ForwardEv
HX:__ZN11UnityEngine15CloudWebService19SessionEventManagerC2Ev
B_f:_File_Open_m1543461971
A2j:_LogicalCallContext_GetObjectData_m104142736
pjf:_Hashtable_KeyEquals_m1433874944
gik:_QuickSearch_GetShiftDistance_m2364008966
vuk:_TouchScreenKeyboard_get_text_m538529702
jCe:__ZN13RuntimeStaticI14dynamic_bitsetLb0EE16StaticInitializeEPv
OMc:__ZN5physx3Ext9MassProps13rotateInertiaERKNS_7PxMat33ERKNS_6PxQuatE
QS:__ZL19CleanupModule_Audiov
mFk:_GenericComparer_1_Compare_m2516380588_gshared
p_k:__ZN6il2cpp2os4File10DeleteFileERKNSt3__212basic_stringIcNS2_11char_traitsIcEENS2_9allocatorIcEEEEPi
JZf:_File_Exists_m1685968367
UIb:__Z29Transfer_Blittable_ArrayFieldI14SafeBinaryReadiEvRT_R9ArrayInfoRK23StaticTransferFieldInfo
qH:__Z30Animator_CUSTOM_SetFloatStringP12Il2CppObjectP12Il2CppStringf
RSk:__ZN15dense_hashtableINSt3__24pairIK10KeyWrapperIN6il2cpp5utils13dynamic_arrayIPK10Il2CppTypeLj4EEEEPFvvEEESA_NS3_8metadata19Il2CppSignatureHashEN14dense_hash_mapISA_SD_SG_NSA_14EqualsComparerINSF_22Il2CppSignatureCompareEEENS0_9allocatorISE_EEE9SelectKeyESK_SM_E5clearEv
wOj:_AudioClipPlayable__ctor_m1273139759_AdjustorThunk
rTj:_Collider_ClosestPoint_m1789427421
bJl:_emscripten_glVertexAttrib3fv__wrapper
kQg:_Comparison_1_BeginInvoke_m1549337842_gshared
Mpk:_X509Crl_VerifySignature_m25189948
PCf:_PlayableOutputHandle_IsPlayableOutputOfType_TisScriptPlayableOutput_t1666207618_m804587587_AdjustorThunk
bdc:__ZN8Material10GetTextureEN9ShaderLab16FastPropertyNameE
u0b:__ZNK28MonoBehaviourPropertyBinding13GetFloatValueERKN11UnityEngine9Animation10BoundCurveE
hMd:__ZN5physx24PxsParticleSystemBatcher19scheduleDynamicsCpuEPPNS_20PxvParticleSystemSimEjRNS_10PxBaseTaskE
zBb:__ZN14SafeBinaryRead21TransferSTLStyleArrayINSt3__26vectorI4PPtrI6ObjectE13stl_allocatorIS5_L18MemLabelIdentifier51ELi16EEEEEEvRT_17TransferMetaFlags
mJj:_AnimatorControllerPlayable_INTERNAL_CALL_GetFloatID_m1278007428
Cql:_GC_generic_malloc
Dwi:_Rect_op_Equality_m2793663577
mzd:__ZNK5physx2Sq12BucketPruner7overlapERKNS0_9ShapeDataERNS0_14PrunerCallbackE
C0b:__ZNSt3__26vectorI16MessageForwarder13stl_allocatorIS1_L18MemLabelIdentifier6ELi8EEE6resizeEj
Emj:_Enumerator_System_Collections_IEnumerator_get_Current_m2160496972_AdjustorThunk
RLa:__Z19GetVertexFormatSize12VertexFormat
hr:__ZN14SafeBinaryRead21TransferSTLStyleArrayI13dynamic_arrayIiLj4EEEEvRT_17TransferMetaFlags
Xij:_Enumerator_System_Collections_IDictionaryEnumerator_get_Value_m120250090_gshared
Aca:__ZN15dense_hashtableINSt3__24pairIKN4core12basic_stringIcNS2_20StringStorageDefaultIcEEEE13dynamic_arrayI4PPtrI6SpriteELj4EEEES6_20StringHash32FunctionIS6_EN14dense_hash_mapIS6_SC_SF_NS0_8equal_toIS6_EE13stl_allocatorISD_L18MemLabelIdentifier79ELi16EEE9SelectKeyESI_SL_E9set_valueEPSD_RKSD_
HFd:__ZN5physx23PxsBroadPhaseContextSap7destroyEv
Dmb:__ZN19LightProbeOcclusion8TransferI14SafeBinaryReadEEvRT_
Vgk:_MatchCollection_TryToGet_m2938913145
TBd:__ZN5physx19PxcGetMaterialShapeEPKNS_12PxsShapeCoreEjRNS_18PxcNpThreadContextEPNS_15PxsMaterialInfoE
qNl:_emscripten_glIsTexture__wrapper
wvi:_Ray_ToString_m2019179238_AdjustorThunk
FBl:_llvm_bswap_i32
XCe:_KeyedHashAlgorithm_get_Key_m3672929432
dBa:__ZN9GfxDevice25ReleaseAsyncCommandHeaderEPN21GfxDeviceAsyncCommand3ArgE
DMj:_AnimatorControllerPlayable_INTERNAL_CALL_PlayInternal_m1154456170
eTg:_MD2Managed_HashCore_m248147901
s8d:__ZZN14PhysicsManager15InitializeClassEvEN40FixedUpdatePhysicsFixedUpdateRegistrator7ForwardEv
FLa:__ZN21UniformBufferTFMethod20IsBoneCountSupportedEi
GMj:_AnimatorControllerPlayable_Play_m3939684325_AdjustorThunk
dHj:_AnimationClipPlayable_INTERNAL_CALL_GetAnimationClipInternal_m4096750434
RSh:__Z101RuntimeInvoker_Void_t1841601450_RuntimeObject_Single_t2076509932_Int32_t2071877448_Single_t2076509932PFvvEPK10MethodInfoPvPS4_
q0f:_MemoryStream__ctor_m4073175573
c2d:__ZNSt3__26__treeINS_12__value_typeI9ShapePair16TriggerStayStateEENS_19__map_value_compareIS2_S4_NS_4lessIS2_EELb1EEENS_9allocatorIS4_EEE7destroyEPNS_11__tree_nodeIS4_PvEE
nla:__ZN6Shader27MarkShaderStateNotSupportedEPKS_
EJc:__Z13raycast_planeRKN5physx10PxGeometryERKNS_11PxTransformERKNS_6PxVec3ES8_fNS_7PxFlagsINS_9PxHitFlag4EnumEtEEjPNS_12PxRaycastHitEbPFbRSD_PvESG_
lwh:_UInt16_System_IConvertible_ToBoolean_m887616848_AdjustorThunk
acj:__ZL81AnimationTriggers_t3244928895_CustomAttributesCacheGenerator_m_HighlightedTriggerP21CustomAttributesCache
s9a:__ZN10GameObject21EnsureUniqueTransformEbb
fLa:__ZN25TransformFeedbackSkinning8SkinMeshERK18VertexStreamSourceP9GfxBufferP17GPUSkinPoseBufferS4_ii17ShaderChannelMaskb
Tcl:__ZN15dense_hashtableINSt3__24pairIK10KeyWrapperIP14Il2CppIUnknownEjEES5_N6il2cpp5utils11PointerHashIS3_EEN14dense_hash_mapIS5_jSB_NS5_14EqualsComparerINS0_8equal_toIS4_EEEENS0_9allocatorIS7_EEE9SelectKeyESG_SI_E12resize_deltaEjj
W5d:__ZN5physx9NpFactory14createInstanceEv
Hph:_UnicodeEncoding_GetCharCount_m3719064538
Fbf:_Boolean_CompareTo_m3691698947
itj:_DefaultComparer_Equals_m3262686272_gshared
jMc:__ZN5physx2Cm12RenderBufferD2Ev
gRc:__ZL32GeomOverlapCallback_PlaneCapsuleRKN5physx10PxGeometryERKNS_11PxTransformES2_S5_PNS_2Gu12TriggerCacheE
Jed:__ZN5physx2Sc9ClothCore13setGlobalPoseERKNS_11PxTransformE
Nfe:_pshinter_module_class_pic_free
HCj:_Selectable_set_interactable_m63718297
SIf:_Array_InternalArray__ICollection_CopyTo_TisUICharInfo_t3056636800_m2132994790_gshared
Jq:__Z17CalculateGlobalSM23TransformAccessReadOnlyRKN4math7_float4E
vm:_emscripten_glLoadIdentity
obb:__ZNSt3__26vectorINS_4pairIN4core12basic_stringIcNS2_20StringStorageDefaultIcEEEEPK17MessageIdentifierEENS_9allocatorISA_EEE26__swap_out_circular_bufferERNS_14__split_bufferISA_RSC_EEPSA_
Qlf:_Decimal_op_GreaterThan_m1625379433
z4a:__Z29CullShadowCastersWithoutUmbraR9IndexListRK17CullingParametersPK4AABBjj
ZHc:__ZN5physx2Gu21sweepCapsuleTrianglesEjPKNS_10PxTriangleERKNS0_7CapsuleERKNS_6PxVec3EfPKjRNS_7PxFlagsINS_9PxHitFlag4EnumEtEERfRS7_SI_RjSI_SF_bPKNS0_3BoxE
Owk:_Vector3_get_down_m2372302126
dr:__ZN4AABB8TransferI14SafeBinaryReadEEvRT_
uYi:__ZL86Object_t1021602117_CustomAttributesCacheGenerator_Object_FindObjectsOfType_m2121813744P21CustomAttributesCache
SLh:__Z79RuntimeInvoker_RuntimeObject_SByte_t454417549_SByte_t454417549_SByte_t454417549PFvvEPK10MethodInfoPvPS4_
QTf:_NotImplementedException__ctor_m808189835
vVf:_Int16_System_IConvertible_ToDecimal_m2010889121_AdjustorThunk
gyb:__ZN12MeshRenderer23VirtualRedirectTransferER19StreamedBinaryWriteILb0EE
Rrb:__ZN18StreamedBinaryReadILb0EE21TransferSTLStyleArrayI13dynamic_arrayI12LightmapDataLj4EEEEvRT_17TransferMetaFlags
ajc:__Z49Register_UnityEngine_MonoBehaviour_StartCoroutinev
udb:__Z11MD5ToStringPh
sP:__ZN20SoundChannelInstanceC2E11SoundHandleb
Ckg:_Enumerator_MoveNext_m2625246500_AdjustorThunk
xhc:__Z38Input_Get_Custom_PropCompositionStringv
_qh:_UTF8Encoding_GetPreamble_m4179999478
nri:_ConnectionChangeEvent__ctor_m616483304
PSc:__ZNK5physx2Sc14ConstraintCore13getBreakForceERfS2_
WOc:__ZN5physx2Sc8ShapeSim21destroyLowLevelVolumeEv
tPk:__ZN6il2cpp2vm5Class19GetArrayElementSizeEPK11Il2CppClass
vle:_cf2_builder_moveTo
Mzh:_ValueType_InternalEquals_m4068150072
PV:__ZN9JSONWrite8TransferIN4core12basic_stringIcNS1_20StringStorageDefaultIcEEEEEEvRT_PKc17TransferMetaFlags
nqh:_UTF7Encoding_GetByteCount_m253528135
$Te:_PointerInputModule_CopyFromTo_m2185451090
l4d:__ZThn116_N5physx7profile8ZoneImplINS_28PxProfileNameProviderForwardEED1Ev
X_f:_FileNotFoundException_GetObjectData_m3405690481
rAl:__ZNSt3__212basic_stringIcNS_11char_traitsIcEENS_9allocatorIcEEE6resizeEjc
vld:__ZN5physx2Sc8BodyCore17setAngularDampingEf
sAb:__ZN14PlayerSettings16CheckConsistencyEv
yS:__ZN11AudioModule30GetOrCreateDSPFromCustomFilterEP17AudioCustomFilter
tVa:__ZN19AtomicPageAllocatorD2Ev
no:FUNCTION_TABLE_viiiiiiiiiiiiii
lWd:__ZNK5physx2Gu12TriangleMesh24getTriangleMaterialIndexEj
N5d:__ZN5physx6shdfnd5ArrayIPvNS0_19ReflectionAllocatorINS_24NpPtrTableStorageManager8PtrBlockILi64EEEEEE4copyINS0_15InlineAllocatorILj256ES7_EEEEvRKNS1_IS2_T_EE
tdl:__ZN6il2cpp6icalls8mscorlib6System13GlobalizationL20culture_lcid_locatorEPKvS5_
MCl:dynCall_vifiiiiiiiiiiiii
pDg:_Collection_1_Add_m3182287887_gshared
mTe:_PointerEventData_set_useDragThreshold_m2778439880
vpb:__ZNK12CubemapArray16ExtractImageImplEP14ImageReferenceNS0_8BlitModeEbi
$ic:__Z63Register_UnityEngine_MonoBehaviour_StartCoroutine_Auto_Internalv
imb:__ZN5Light8TransferI19StreamedBinaryWriteILb0EEEEvRT_
cbc:__ZN10systeminfo24GetSystemLanguageCultureEi
lph:_StringBuilder_Append_m3618697540
XBj:_ScrollRect_get_normalizedPosition_m1640825682
oJe:_SecurityElement_IsValidAttributeName_m2201790420
EAb:__ZN10VRSettings8TransferI14SafeBinaryReadEEvRT_
twh:_UInt16_System_IConvertible_ToDecimal_m984067306_AdjustorThunk
TUd:__ZN5physx13BigConvexData15exportExtraDataERNS_22PxSerializationContextE
duk:_Texture2D_INTERNAL_CALL_GetPixelBilinear_m570286059
yge:_UNITY_FT_Outline_Get_CBox
AHf:_Array_InternalArray__ICollection_Add_TisUInt16_t986882611_m2791161149_gshared
na:invoke_viifiiii
njj:_Enumerator_Reset_m3115320746_gshared
pRf:_NumberFormatter_FormatDecimal_m1435371940
y8f:_SimpleCollator_GetTailContraction_m1037943844
uEe:_RC2CryptoServiceProvider_CreateEncryptor_m252199767
TBk:_U3CStartU3Ec__Iterator0_MoveNext_m2339115502_gshared
PTh:__Z165RuntimeInvoker_Void_t1841601450_RuntimeObject_Int32_t2071877448_Int32_t2071877448_RuntimeObject_Int32_t2071877448_Single_t2076509932_Single_t2076509932_RuntimeObjectPFvvEPK10MethodInfoPvPS4_
WVa:__ZN22PerThreadPageAllocator14AcquireNewPageEj
WR:__ZN24AudioScriptBufferManager15DidReloadDomainEv
nPj:_AudioClipPlayable_Seek_m2908742681
x0a:__ZN6Camera13ClearNoSkyboxEb
JXf:_Int64_System_IConvertible_ToInt64_m989981560_AdjustorThunk
osg:_List_1_CheckIndex_m2576265846_gshared
OVh:__Z110RuntimeInvoker_Boolean_t3825574718_Vector2_t2243707579_Vector2_t2243707579_Single_t2076509932_SByte_t454417549PFvvEPK10MethodInfoPvPS4_
cNc:__ZN5physx6shdfnd21atomicCompareExchangeEPViii
Ewi:_Rect_GetHashCode_m559954498
ENj:_Application_CallLowMemory_m626389230
gSk:__ZNK15dense_hashtableI10KeyWrapperIPK17Il2CppGenericInstES4_N6il2cpp8metadata21Il2CppGenericInstHashEN14dense_hash_setIS4_S7_NS4_14EqualsComparerINS6_24Il2CppGenericInstCompareEEENSt3__29allocatorIS4_EEE8IdentityESB_SE_E12test_deletedEj
v9e:_Array_combsort_m2486643569
oed:__ZNK5physx2Sc9ClothCore26getNbParticleAccelerationsEv
N8:__ZNSt3__27__sort5IR17CompareInstanceIDPP6ObjectEEjT0_S6_S6_S6_S6_T_
pib:__ZNSt3__26vectorI17SortingLayerEntryNS_9allocatorIS1_EEE12__move_rangeEPS1_S5_S5_
xtj:_DefaultComparer_Equals_m145577182_gshared
jEa:__ZN18GfxFramebufferGLES10InvalidateEv
Uad:__ZN5physx7NpCloth16lockParticleDataENS_7PxFlagsINS_16PxDataAccessFlag4EnumEhEE
hhg:_SmallXmlParser_SkipWhitespaces_m2923234398
Ftf:_Decimal_System_IConvertible_ToSingle_m1736019752_AdjustorThunk
jHa:__ZN4crnd11crnd_deleteINS_13prefix_coding14decoder_tablesEEEvPT_
suk:_TouchScreenKeyboard_Open_m2760130151
F$:__ZN10MemoryPoolD2Ev
wZj:_GCHandle__ctor_m2952050298_AdjustorThunk
k1c:__ZN5physx7NpActor13getOwnerSceneERKNS_7PxActorE
eoc:__ZNSt3__26__treeINS_12__value_typeIN4core12basic_stringIcNS2_20StringStorageDefaultIcEEEEN5IMGUI12NamedControlEEENS_19__map_value_compareIS6_S9_NS_4lessIS6_EELb1EEENS_9allocatorIS9_EEE7destroyEPNS_11__tree_nodeIS9_PvEE
U$g:_SslClientStream_get_SelectedClientCertificate_m1580018944
sDd:__ZN5physx18PxcNpThreadContextC2EfffRKNS_2Cm12RenderOutputERNS_17PxcNpMemBlockPoolEb
Jmf:_DateTime_FromTicks_m75527956
scg:_KeyGeneratedEventHandler_Invoke_m4220935979
gBd:__ZN5physx2Cm12DelegateTaskINS_13PxsCCDContextEXadL_ZNS2_14postCCDAdvanceEPNS_10PxBaseTaskEEEE11runInternalEv
hrh:_CompressedStack_Capture_m179370023
jbe:__Z44Register_UnityEngine_MeshCollider_get_convexv
lCf:_Array_InternalArray__ICollection_Remove_TisVector3_t2243707580_m3881497481_gshared
azl:___mmap
Gcc:__ZN9Scripting26RaiseArgumentNullExceptionEPKc
dWd:__ZN5physx2Gu12TriangleMeshD0Ev
L_:__ZL18InternalLogConsolePKcz
Wxl:_lseek
Yrg:_List_1_System_Collections_IList_set_Item_m2267202349_gshared
Vlg:_Enumerator_System_Collections_IEnumerator_get_Current_m3866069145_AdjustorThunk
HDg:_Collection_1_ConvertItem_m2972284337_gshared
T3:__Z37scripting_method_get_nth_argumenttype18ScriptingMethodPtri
pP:__ZN11AudioSource16UpdatePauseStateEv
u8:__ZL52StaticUnregisterSceneLoadedCallback_LightmapSettingsPv
Cx:__ZN7mecanim5human25HumanPoseAddAdditiveLayerERNS0_9HumanPoseERKS1_fRKNS_6bitsetILj70EEE
bjc:__Z48Register_UnityEngine_MonoBehaviour_StopCoroutinev
b4g:_RemoteCertificateValidationCallback_Invoke_m2237177542
c2e:_HorizontalOrVerticalLayoutGroup_set_childForceExpandWidth_m1140293254
wbd:__ZN5physx7NpCloth24setParticleAccelerationsEPKNS_6PxVec4E
yul:__ZN6il2cpp5utils25NativeDelegateMethodCache17AddNativeDelegateEPFvvEPK10MethodInfo
$9c:__ZN5physx3Scb5Shape18setMaterialsHelperEPKPNS_10PxMaterialEt
oAf:_Array_InternalArray__ICollection_Contains_TisKeyValuePair_2_t1174980068_m650645929_gshared
I$a:__ZN27DeviceViewProjMatricesStateD2Ev
uUc:__ZN5physx6shdfnd5ArrayINS_19PxsArticulationLinkENS0_19ReflectionAllocatorIS2_EEE8recreateEj
zFe:_RNGCryptoServiceProvider_RngOpen_m2238023214
rQj:_Bounds__ctor_m1202659404_AdjustorThunk
J5h:_CustomAttributeData_GetCustomAttributes_m4124612360
LKb:__Z18Transfer_BlittableI24GenerateTypeTreeTransferLb0E8Vector3fEvRK29SerializationCommandArgumentsR31RuntimeSerializationCommandInfo
oel:__ZN15dense_hashtableINSt3__24pairIK10KeyWrapperINS1_IPKcS4_EEEiEES6_24NamespaceAndNamePairHashN14dense_hash_mapIS6_iS9_NS6_14EqualsComparerI26NamespaceAndNamePairEqualsEENS0_9allocatorIS8_EEE9SelectKeyESD_SF_E14squash_deletedEv
Jbe:__ZNK13TextRendering4Font22GetTypeVirtualInternalEv
M8k:__ZN6il2cpp2vm6Thread16RequestInterruptEP12Il2CppThread
J1g:_TlsStream_get_Position_m3551173234
X$j:_LeaseManager_SetPollTime_m3137304074
yif:_Hashtable_CalcPrime_m1835281409
f:HEAPU32
Jsi:_Physics_RaycastAll_m3928448900
m$j:_SinkProviderData__ctor_m1828480392
Vua:__ZN6prcoreL10inner_flipILj2EEEvPhS1_j
Vai:_TypeBuilder_has_ctor_method_m3449702467
Buc:__ZN9JSONWrite8TransferIbEEvRT_PKc17TransferMetaFlags
R8e:_Array_CreateInstance_m679102425
bfb:__ZN12TLSAllocatorI14StackAllocatorED0Ev
Dzb:__ZN11TimeManager16CheckConsistencyEv
qSc:__ZN5physx3Scb5Scene12addRigidBodyERNS0_4BodyEb
k0d:__ZN19CharacterController23VirtualRedirectTransferER24GenerateTypeTreeTransfer
bZa:__ZN21GfxDeviceAsyncCommand10ArgScratch15ThreadedCleanupEv
SIl:_emscripten_glDeleteTextures__wrapper
u6b:__Z14DoubleToStringd
MQg:_BigInteger_GenerateRandom_m1878468830
kKb:__ZN12NativeBufferI27Converter_UnityEngineObjectE15SetupForWritingER9ArrayInfo
F0e:_Graphic_UpdateGeometry_m2431537946
Ye:_glTexImage3D
NS:__Z20RegisterModule_Audiov
uWg:_TlsCipherSuite__ctor_m2983563913
rFc:__ZNK5physx2Gu17ShrunkConvexHullV10planeShiftEjRKNS_6shdfnd3aos6FloatVE
xKd:__ZN5physx2GuL35fullContactsGenerationCapsuleConvexERKNS0_8CapsuleVERKNS0_11ConvexHullVERKNS_6shdfnd3aos15PsMatTransformVERKNS8_12PsTransformVESE_PNS0_17PersistentContactERjRNS0_13ContactBufferEbRNS0_25PersistentContactManifoldERNS8_5Vec3VERKNS8_6FloatVEb
PYc:__ZNK5physx14PxArticulation19getConcreteTypeNameEv
$Gd:__ZN3MBP17populateNewRegionERK5IAABB
Vn:FUNCTION_TABLE_vifiiiiiiiiiiiii
qhl:__ZN6il2cpp2vm6Object13UnboxNullableEP12Il2CppObjectP11Il2CppClassPv
ff:_JS_SystemInfo_GetCurrentCanvasWidth
mLg:_ReadOnlyCollection_1_System_Collections_IList_Remove_m2668898250_gshared
gcc:__ZL34GetComponentsImplementationRecurseILb1ELi0ELi1EEbR10GameObjectbRK17CompareParametersRK39GetComponentsImplementation_ReturnValue
xqi:_Mesh_SetColors_m3438776703
Vck:_InternalEnumerator_1_System_Collections_IEnumerator_get_Current_m1533037706_AdjustorThunk
_al:__ZN6il2cpp2vm14PlatformInvoke30MarshalCSharpStringToCppStringEP12Il2CppString
_gl:__ZN6il2cpp2vm5Field10IsInstanceEP9FieldInfo
rvh:_Type_GetTypeHandle_m2405042843
GJc:__Z11raycast_boxRKN5physx10PxGeometryERKNS_11PxTransformERKNS_6PxVec3ES8_fNS_7PxFlagsINS_9PxHitFlag4EnumEtEEjPNS_12PxRaycastHitEbPFbRSD_PvESG_
XAb:__ZN10VRSettings8TransferI18StreamedBinaryReadILb0EEEEvRT_
Gw:__ZN22AnimationMixerPlayable12MixerProcessEP35AnimationPlayableEvaluationConstantP32AnimationPlayableEvaluationInputP33AnimationPlayableEvaluationOutputM17AnimationPlayableFvS1_S3_S5_EPFvS1_S3_S5_ESA_PFvS5_S1_S3_S5_PN7mecanim16ValueArrayWeightEfEPFvS1_S3_S5_SD_fE
n8j:_InternalEnumerator_1_System_Collections_IEnumerator_get_Current_m1322273508_AdjustorThunk
APe:_DecoderFallbackException__ctor_m3081822699
f7d:__Z13RegisterClassI11BoxColliderEvv
KNh:__Z145RuntimeInvoker_Void_t1841601450_RuntimeObject_RuntimeObject_RuntimeObject_Int32_t2071877448_Int32_t2071877448_Int32_t2071877448_Int32_t2071877448PFvvEPK10MethodInfoPvPS4_
aub:__ZN6Sprite8TransferI14SafeBinaryReadEEvRT_
XNb:__Z19TransferField_ArrayI19StreamedBinaryWriteILb0EE27Converter_SimpleNativeClassI8GradientEEvRK23StaticTransferFieldInfoR31RuntimeSerializationCommandInfoRT0_
S_f:_FileLoadException_ToString_m319701103
h1f:_NullStream_Seek_m1809916110
lwc:__Z18Transfer_BlittableI8JSONReadLb0E12PropertyNameEvRK29SerializationCommandArgumentsR31RuntimeSerializationCommandInfo
cQc:__ZN5physx6shdfnd4sortIPvNS0_4LessIS2_EENS0_19ReflectionAllocatorINS_2Sc26ActorPairContactReportDataEEEEEvPT_jRKT0_RKT1_j
Auf:_Delegate_SetMulticastInvoke_m361277268
wnh:_EncoderReplacementFallbackBuffer_get_Remaining_m2777488845
Pub:__ZN7SubMesh8TransferI18StreamedBinaryReadILb0EEEEvRT_
EGc:__ZN5physx2Gu14sweepBoxSphereERKNS0_3BoxEfRKNS_6PxVec3ES6_fRfRS4_NS_7PxFlagsINS_9PxHitFlag4EnumEtEE
omb:__ZN15SharedLightData17MainThreadCleanupEv
Sqh:_UTF8Encoding_GetCharCount_m3557355060
T7j:_InternalEnumerator_1_System_Collections_IEnumerator_get_Current_m127456009_gshared
Mf:_emscripten_glIsEnabled
NPb:__ZN18StreamedBinaryReadILb1EE21TransferSTLStyleArrayI13dynamic_arrayIdLj8EEEEvRT_17TransferMetaFlags
Jgc:__Z45Register_UnityEngine_GameObject_get_transformv
a3:__Z29scripting_class_instance_size17ScriptingClassPtr
TLk:_Func_2_Invoke_m2929712329_gshared
u0g:_SslHandshakeHash_initializePad_m4132246594
g9g:_X509CertificateCollection_get_Item_m848456018
hY:__ZN11UnityEngine15CloudWebService19SessionEventManager26ProcessEventQueueJobStaticEPv
Kjk:_AnchorInfo_get_IsUnknownWidth_m3747592836
$Xh:__Z99RuntimeInvoker_Void_t1841601450_Int32_t2071877448_Int32_t2071877448_Int32_t2071877448_RuntimeObjectPFvvEPK10MethodInfoPvPS4_
Nbd:__ZN5physx7NpCloth21removeCollisionSphereEj
_Bl:dynCall_fiff
Cz:__ZN23AnimationPlayableOutputC2EjP13PlayableGraph
cuk:_Texture2D_GetPixelBilinear_m3063031185
Avl:__ZN6il2cpp6icalls8mscorlib6System10Reflection4Emit11DerivedType21create_unmanaged_typeEP20Il2CppReflectionType
cG:__ZN7mecanim12statemachine13GetStateIndexEPKNS0_20StateMachineConstantEj
Vhh:_FormatterConverter_ToInt32_m1004171952
W7e:_Array_System_Collections_IList_set_Item_m4290470392
Egh:_RemotingConfiguration_RegisterActivatedServiceType_m4003543022
Qkc:__Z39Register_UnityEngine_Sprite_get_texturev
nId:__ZN5physx2Cm12DelegateTaskINS_10PxsContextEXadL_ZNS2_23prepareCMDiscreteUpdateEPNS_10PxBaseTaskEEEE11runInternalEv
Q$j:_ConfigHandler_GetNotNull_m2454680251
VMk:__ZL10rescale128PyS_Piiiii
EK:__ZN9AudioClip7WWWSeekEPvjS0_
LUc:__ZN5physx2Sc15ArticulationSimD2Ev
RAf:_Array_InternalArray__ICollection_Contains_TisUInt32_t2149682021_m672455245_gshared
azh:_UIntPtr_System_Runtime_Serialization_ISerializable_GetObjectData_m3481735378
K6:__ZL32StaticInitializeIUnityInterfacesPv
CYa:__Z13CameraProjectRK8Vector3fRK10Matrix4x4fS4_RK5RectTIiERS_b
SCb:__ZN30RuntimeInitializeOnLoadManager15ClassMethodInfo8TransferI19StreamedBinaryWriteILb0EEEEvRT_
J7:__Z22CreateMutexLockedStackv
Yqf:_DateTime_System_IConvertible_ToType_m3821835592
Cch:_IntervalCollection_get_Item_m1667788970
c4d:__ZN5physx7profile8ZoneImplINS_28PxProfileNameProviderForwardEE7releaseEv
Mya:__ZNSt3__27__sort5IRNS_4lessIN22BuiltinResourceManager8ResourceEEEPS3_EEjT0_S7_S7_S7_S7_T_
Coh:_Latin1Encoding_GetByteCount_m2812921286
pUa:__ZN9ShaderLab11ShaderStateD2Ev
ntf:_Decimal_System_IConvertible_ToByte_m3432160840
OJc:__ZN5physxmlERKNS_11PxMeshScaleERKNS_11PxTransformE
Roe:_Ins_DELTAP
u2e:_Image_get_fillCenter_m3441725367
voh:_UTF7Encoding__ctor_m1941256679
pEb:__Z23TransferScriptingObjectI24GenerateTypeTreeTransferEvRT_18ScriptingObjectPtr17ScriptingClassPtrPK15MonoScriptCache
Yhh:_BinaryCommon__cctor_m3619690968
tpk:_X509Chain_FindCertificateRoot_m589250107
DNb:__ZL17Transfer_GUIStyleI19StreamedBinaryWriteILb0EELb0EEvRK29SerializationCommandArgumentsR31RuntimeSerializationCommandInfo
Ivk:_UnityString_Format_m2949645127
eif:_Comparer_GetObjectData_m3370677985
vBk:_UnityEvent_4_GetDelegate_m2704961864_gshared
G$f:_FileStream_WriteInternal_m115274124
yvd:__ZNK5physx2Sc15ArticulationSim10isSleepingEv
Sih:_ObjectManager_RaiseOnDeserializingEvent_m1841526046
tOe:_String_CreateString_m560359261
khe:_UNITY_FT_Init_Class_tt_service_get_cmap_info
Pmh:_DSA_ToXmlString_m1014346120
gxl:___shlim
RGe:_SHA256Managed__ctor_m1410575277
azf:_CompareInfo_internal_index_managed_m859405335
$af:_Boolean_System_IConvertible_ToDateTime_m2613818037_AdjustorThunk
oVk:__ZNSt3__211__tree_nextIPNS_16__tree_node_baseIPvEEEET_S5_
SMg:_ReadOnlyCollection_1_System_Collections_IList_Clear_m2240307498_gshared
Tel:__ZN15dense_hashtableI10KeyWrapperIP18Il2CppGenericClassES3_N6il2cpp8metadata22Il2CppGenericClassHashEN14dense_hash_setIS3_S6_NS3_14EqualsComparerINS5_25Il2CppGenericClassCompareEEENSt3__29allocatorIS3_EEE8IdentityESA_SD_E14squash_deletedEv
Chl:__ZN6il2cpp2vm11MethodStack17GetStackFramesRawEv
Gqa:__ZN6prcoreL17RemapGenericFloatI17TexFormatRGBAHalf17TexFormatRGBFloatEEvPKNS_9InnerInfoE
iih:_BinaryFormatter_NoCheckDeserialize_m1968202401
X0e:_Graphic_CrossFadeAlpha_m4067047552
kWh:__Z92RuntimeInvoker_Void_t1841601450_RuntimeObject_RuntimeObject_Color32_t874517518_RuntimeObjectPFvvEPK10MethodInfoPvPS4_
Ekc:__Z35Sprite_Get_Custom_PropPixelsPerUnitP12Il2CppObject
zyc:__ZN9rapidjson12PrettyWriterI16TempBufferWriterNS_4UTF8IcEES3_13JSONAllocatorE10StartArrayEv
iSk:__ZNSt3__26__sortIRN6il2cpp5utils11collections13ArrayValueMapIPK10Il2CppType17Il2CppInteropData26InteropDataToTypeConverterNS1_8metadata14Il2CppTypeLessENSA_26Il2CppTypeEqualityComparerEE12SortComparerEPS8_EEvT0_SH_T_
_Eb:__ZN11PreloadDataD2Ev
ABe:__ZN15DownloadHandler14ProcessHeadersERK9HeaderMap
Bc:invoke_iifi
iaa:__ZZN15DirectorManager15InitializeClassEvEN44PostLateUpdateDirectorRenderImageRegistrator7ForwardEv
zJd:__ZN5physx2Gu31SinglePersistentContactManifold20refreshContactPointsERKNS_6shdfnd3aos15PsMatTransformVERKNS3_6FloatVES9_
FCi:__ZL79Hashtable_t909839986_CustomAttributesCacheGenerator_Hashtable__ctor_m3742489710P21CustomAttributesCache
Qpi:_Mesh__ctor_m2975981674
bGj:_VertexHelper_AddUIVertexStream_m3599763288
npi:_Mathf_Abs_m1942863256
Xuj:_EqualityComparer_1_System_Collections_IEqualityComparer_Equals_m1565968086_gshared
A8k:__ZN6il2cpp2vmL24thread_cleanup_on_cancelEPv
Hrd:__ZN5physx7NpScene15getRenderBufferEv
oKf:_Array_InternalArray__set_Item_TisSlot_t2022531261_m3811041838_gshared
hwa:__ZN15SharedLightData15UpdateTransformERK9Transform
QEe:_RijndaelTransform__cctor_m1393306207
s0e:_Graphic_get_defaultMaterial_m1022773737
Pke:_UNITY_FT_Init_Class_pscmaps_interface
QDj:_Slider_OnDidApplyAnimationProperties_m3202463395
KPe:_EncoderExceptionFallback__ctor_m3203614411
Q1e:_GridLayoutGroup_SetLayoutVertical_m3233681648
ngc:__Z44Register_UnityEngine_RectOffset_get_verticalv
Uvh:_Type_MakeGenericType_m973683242
bul:__ZN6il2cpp2vm9LastError31InitializeLastErrorThreadStaticEv
V1b:__ZN13ProduceHelperI13RenderTextureLb0EE7ProduceE18MemLabelIdentifier18ObjectCreationMode
fgb:__ZN5Unity9Component8TransferI14SafeBinaryReadEEvRT_
_8h:_FieldBuilder_GetCustomAttributes_m291168515
MPj:_AudioPlayableOutput_INTERNAL_CALL_InternalSetTarget_m3274611424
kei:_MonoGenericCMethod__ctor_m2520666358
Mh:_JS_SystemInfo_GetCurrentCanvasHeight
Wsi:_AudioPlayableGraphExtensions_InternalCreateAudioOutput_m433444197
x5j:_InternalEnumerator_1_System_Collections_IEnumerator_get_Current_m1313308902_gshared
Veh:_ReturnMessage_get_OutArgs_m299904174
cma:__ZNK8Material22GetTypeVirtualInternalEv
Xpc:__Z34GUIStyle_Get_Custom_PropFixedWidthP12Il2CppObject
p9d:__ZN25PostFilteredUserCollector10postFilterERKN5physx12PxFilterDataERKNS0_10PxQueryHitE
zeg:_RSAManaged_get_PublicOnly_m2603845138
Dtf:_Decimal_System_IConvertible_ToSByte_m3745141000_AdjustorThunk
xpd:__ZN5physx2Sc19ShapeInstancePairLL10onActivateEj
ekl:__ZN6il2cpp2gc16GarbageCollector11GetWeakLinkEPPv
G5f:_MonoType_GetMethods_m353342170
UAh:__Z108RuntimeInvoker_Boolean_t3825574718_SByte_t454417549_RuntimeObject_Int32_t2071877448_ExceptionU26_t1467204777PFvvEPK10MethodInfoPvPS4_
nil:__GLOBAL__sub_I_Console_cpp
wqa:__ZN6prcoreL17RemapGenericFloatI14TexFormatRHalf17TexFormatRGBAHalfEEvPKNS_9InnerInfoE
kYk:__ZN6il2cpp2vm7Runtime11InvokeArrayEPK10MethodInfoPvP11Il2CppArrayPP15Il2CppException
TH:__Z71AnimatorControllerPlayable_CUSTOM_INTERNAL_CALL_PlayInFixedTimeInternalR9HPlayableiif
QSf:_GregorianCalendar_get_Eras_m4010603022
$wf:_Enum_System_IConvertible_ToUInt16_m1001858842
_Cc:__ZN5physx2Gu18contactCapsuleMeshERKNS0_13GeometryUnionES3_RKNS_11PxTransformES6_RKfRNS0_5CacheERNS0_13ContactBufferE
Nqj:_Dictionary_2_make_pair_m394533803_gshared
Voe:_Dual_Project
EJ:__ZN9AudioClip23VirtualRedirectTransferER14SafeBinaryRead
cLd:__ZN5physx24PxsParticleSystemBatcherC2ERNS_10PxsContextE
wyd:__ZN5physx11EdgeManagerD0Ev
fKa:__ZN4gles20EnsureTextureCreatedEP7ApiGLESP17RenderSurfaceGLES
J7e:_LayoutRebuilder_U3CRebuildU3Em__2_m3239837417
sZa:__ZN15ReplacementPass13PrepareSubsetEjRK10RenderNodeifRK17ShaderReplaceData
Etf:_Decimal_System_IConvertible_ToSingle_m1736019752
zO:__Z32AudioMeasurement_GetTimeConstantff
Cil:__ZN6il2cpp2os6Thread10RunWrapperEPv
Hkl:__ZN6il2cpp8metadata11FieldLayout12LayoutFieldsEjjjRKNSt3__26vectorIPK10Il2CppTypeNS2_9allocatorIS6_EEEERNS1_15FieldLayoutDataE
d7i:__ZL54ContextMenu_t2283362202_CustomAttributesCacheGeneratorP21CustomAttributesCache
a5a:__ZL27PrepareSceneNodesJobCombineP25ScheduleSceneNodesJobData
yHb:__Z22TransferField_NonArrayI14SafeBinaryRead27Converter_SimpleNativeClassI8GUIStyleEEvRK23StaticTransferFieldInfoR31RuntimeSerializationCommandInfoRT0_
ief:_Char_Parse_m2121403806
Jza:__ZN13GfxDeviceGLESD2Ev
j9:__ZN18AsyncUploadManager13StaticDestroyEPv
j8h:_EnumBuilder_GetConstructorImpl_m331611313
nTb:__ZN6Shader7SetNameEPKc
Zba:__ZN14dense_hash_mapIN4core12basic_stringIcNS0_20StringStorageDefaultIcEEEE13dynamic_arrayI4PPtrI6SpriteELj4EE20StringHash32FunctionIS4_ENSt3__28equal_toIS4_EE13stl_allocatorINSC_4pairIKS4_S9_EEL18MemLabelIdentifier79ELi16EEE13set_empty_keyERSH_
wZe:_DefaultControls_SetParentAndAlign_m3048898502
vab:__ZN19CustomRenderTexture22HandleBoundaryWrappingERKNS_14UpdateZoneInfoEj
kVk:__ZN6il2cpp2vm13MetadataCache32GenerateCustomAttributeTypeCacheEi
v9g:_X509Chain__cctor_m826131835
RQc:__ZN5physx6shdfnd5ArrayIPvNS0_15InlineAllocatorILj256ENS0_19ReflectionAllocatorINS_2Sc24ElementInteractionMarkerEEEEEE15growAndPushBackERKS2_
vA:__ZNK11UnityEngine9Animation30GenericBindingValueArrayUniqueclERKNS0_14GenericBindingES4_
U9e:_ArrayTypeMismatchException__ctor_m1923871345
kmh:_CspParameters__ctor_m3051314030
$Md:__ZN5physx2Sc8ClothSim18addCollisionConvexEPKNS0_8ShapeSimE
_oe:_Direct_Move_Y
Yoe:_Direct_Move_X
E8g:_X509ChainElement_Set_m2634474339
HWj:_Event_get_isKey_m1145918225
Xaf:_Boolean_System_IConvertible_ToByte_m1443044213_AdjustorThunk
fj:_glClearDepthf
I1b:__ZN19SkinnedMeshRenderer7GetMeshEv
EZb:__ZN19RuntimeSceneManager14GetActiveSceneEv
GBl:_memcpy
fAd:__ZN15AABBTreeOverlapIN5physx2Gu14SphereAABBTestEEclEPNS0_2Sq13PrunerPayloadERKNS4_8AABBTreeERKS2_RNS4_14PrunerCallbackE
JXk:__ZN6il2cpp6icalls8mscorlib6SystemL8IsStaticEPK9EventInfo
Yfc:__Z29RectOffset_Set_Custom_PropTopP12Il2CppObjecti
Rlc:__Z57Register_UnityEngine_Transform_INTERNAL_get_localPositionv
Sfg:_X509ExtensionCollection__ctor_m2745210602
x3a:__ZNSt3__27__sort4IR15ReflProbeSorterPP15ReflectionProbeEEjT0_S6_S6_S6_T_
Bmb:__ZN14SafeBinaryRead21TransferSTLStyleArrayI13dynamic_arrayI19LightProbeOcclusionLj4EEEEvRT_17TransferMetaFlags
U7b:__ZN19StreamedBinaryWriteILb0EE4InitE24TransferInstructionFlags20BuildTargetSelection
Exj:_MaskableGraphic_Cull_m3130802047
BSj:_CanvasRenderer_Clear_m2419751129
d$g:_RecordProtocol_MapV2CipherCode_m4064211604
SOe:_ASCIIEncoding_GetByteCount_m2696039881
qGd:__ZN5physx16PxsBroadPhaseMBPD2Ev
S_g:_ReceiveRecordAsyncResult_SetComplete_m2441107665
HSj:_CanvasRenderer_AddUIVertexStream_m1988414477
knb:__ZN20SphericalHarmonicsL28TransferI19StreamedBinaryWriteILb0EEEEvRT_
IXe:_CanvasUpdateRegistry_InternalUnRegisterCanvasElementForLayoutRebuild_m3740187734
R0b:__ZNK28RectTransformPropertyBinding9BindValueER6ObjectRKN11UnityEngine9Animation14GenericBindingERNS3_10BoundCurveE
F7h:_DerivedType_get_AssemblyQualifiedName_m2010127631
Exb:__ZN4Mesh14UploadMeshDataEb
wqd:__ZN5physx7NpScene9addActorsEPKPNS_7PxActorEj
J$f:_FileStream_BeginWrite_m3895959548
qVc:__ZN5physx2Sc8ShapeSimD0Ev
big:_ArgIterator_Equals_m2415994310
EOh:__Z85RuntimeInvoker_Char_t3454481338_RuntimeObject_Int32U26_t455636984_CharU26_t1894467670PFvvEPK10MethodInfoPvPS4_
MDk:_AesManaged_get_KeySize_m2773901127
Z1b:__ZN14RenderSettings12CleanupClassEv
Mkc:__Z43DataUtility_CUSTOM_INTERNAL_CALL_GetPaddingP12Il2CppObjectR8Vector4f
HHa:__ZN18AsyncUploadManager15DoDeCruncherJobEP26FileAssetUploadInstruction
vCa:__ZN9GfxDevice15ImmediateNormalEfff
g3c:__ZN5physx7NpActor7releaseERNS_7PxActorE
Anh:_EncoderReplacementFallbackBuffer_GetNextChar_m1811006007
Dqk:_Vector2__ctor_m3067419446
f9a:__ZN15SerializeTraitsI13dynamic_arrayIN10GameObject13ComponentPairELj4EEE19ResizeSTLStyleArrayERS3_i18MemLabelIdentifier
ULb:__ZN13GUIStyleState8TransferI24GenerateTypeTreeTransferEEvRT_
V4:__ZN20dynamic_block_vectorI14FileIdentifierE22push_back_no_constructEv
Cua:__ZN9Texture3D23VirtualRedirectTransferER14SafeBinaryRead
byk:_Predicate_1_Invoke_m3539717340_gshared
nph:_StringBuilder_Append_m1462406979
WUb:__ZNSt3__26vectorIN9ShaderLab20SerializedSubProgram16TextureParameterENS_9allocatorIS3_EEE8__appendEj
Uqb:__ZN9Texture2D13UploadTextureEi
foh:_Type_GetType_m773255995
Ene:_cff_get_cid_from_glyph_index
J6b:__ZN13PlayableGraph4StopEv
Jyj:_RawImage__ctor_m527845386
VN:__ZN4FMOD6System19setSoftwareChannelsEi
EKf:_Array_InternalArray__set_Item_TisResourceCacheItem_t333236149_m2074358118_gshared
fPd:__ZN5physx38PxsSolverCreateFinalizeConstraintsTask11runInternalEv
bMe:_Single_CompareTo_m2081476257_AdjustorThunk
g7g:_X500DistinguishedName_DecodeRawData_m3640767187
zCj:_Selectable_set_colors_m3015002425
wAf:_Array_InternalArray__ICollection_Contains_TisDouble_t4078015681_m2262383923_gshared
Cbf:_Boolean_System_IConvertible_ToUInt64_m3594533761
NYh:__Z85RuntimeInvoker_Boolean_t3825574718_SpriteStateU26_t1330646292_SpriteState_t1353336012PFvvEPK10MethodInfoPvPS4_
Shc:__Z60Register_UnityEngine_Input_INTERNAL_set_compositionCursorPosv
Qqj:_Dictionary_2_Resize_m2807616086_gshared
V_i:__ZL51Collider_t3497673348_CustomAttributesCacheGeneratorP21CustomAttributesCache
Oji:_GUISettings_Internal_GetCursorFlashSpeed_m3799968572
O9f:_BigInteger_get_Rng_m1268152318
wDl:dynCall_viiiii
z_c:__ZN5physx19NpArticulationJoint20setTargetOrientationERKNS_6PxQuatE
BDl:dynCall_viiiif
Kdi:_MonoEvent_IsDefined_m3151861274
Wje:_Cubic_To
XI:__Z85Register_UnityEngine_Animations_AnimatorControllerPlayable_INTERNAL_CALL_SetTriggerIDv
ZWg:_TlsStream_WriteInt24_m1660453494
Yec:__Z44Register_UnityEngine_Camera_get_farClipPlanev
ZR:__ZNK12AudioManager15GetDSPBlockSizeEv
ZBb:__ZNK17IAnimationBinding30CurveAttributeToSerializedPathERKN11UnityEngine9Animation10BoundCurveE
LUh:__Z87RuntimeInvoker_Color_t2020392075_Color_t2020392075_Color_t2020392075_Single_t2076509932PFvvEPK10MethodInfoPvPS4_
sgl:__ZN6il2cpp2gc16GarbageCollector14GetOrCreateCCWEP12Il2CppObjectRK10Il2CppGuid
wel:__ZN6il2cpp2vm5Image21FromTypeNameParseInfoEPK11Il2CppImageRKNS0_17TypeNameParseInfoEb
$fb:__ZNK5Unity9Component7GetNameEv
AFa:__ZN17BufferManagerGLES13AcquireBufferEjN14DataBufferGLES11BufferUsageEb
mlf:_Console_OpenStandardError_m3676373108
K3f:_UnmanagedMemoryStream_SetLength_m1805321486
bYg:_Context_get_ProtocolNegotiated_m624488778
jc:invoke_viiiifi
Vpg:_List_1_System_Collections_IList_IndexOf_m1671340024_gshared
O9e:_SimpleEnumerator_MoveNext_m1696906961
Oze:__ZN16UnityAdsSettingsD0Ev
QYg:_Context_StartSwitchingSecurityParameters_m373522596
ufi:_MonoProperty_GetRequiredCustomModifiers_m576853384
uGa:__ZNK7ApiGLES10DebugLabelEN2gl10ObjectTypeEjPKc
TFf:_Array_InternalArray__IndexOf_TisInt16_t4041245914_m1619355230_gshared
mpl:_GC_push_marked
_Fd:__ZN3MBP5resetEv
oBl:__ZNK10__cxxabiv121__vmi_class_type_info16search_below_dstEPNS_19__dynamic_cast_infoEPKvib
yXf:_Int64_System_IConvertible_ToDateTime_m1002280174
omd:__ZN5physx20NpRigidActorTemplateINS_13PxRigidStaticEE13setActorFlagsENS_7PxFlagsINS_11PxActorFlag4EnumEtEE
gmf:_Convert_ToByte_m9159597
npk:_X509Store_BuildCertificatesCollection_m4224672591
Nkc:__Z38DataUtility_CUSTOM_Internal_GetMinSizeP12Il2CppObjectP13Vector2fIcall
D6b:__ZN8PlayableC2E17ScriptingClassPtr18DirectorPlayerType
qYj:_ResourceEnumerator_get_Key_m1012797265
d6d:__ZN5physx2Gu12TriangleMesh18setupMeshInterfaceEv
uRf:_NumberFormatter_FormatPercent_m776769918
cZk:_il2cpp_class_has_attribute
Lji:_GUISettings__ctor_m2453724887
ath:_Scheduler_ShrinkIfNeeded_m2186823111
SUg:_Alert_get_IsCloseNotify_m577852330
w3:__Z27FindOrCreateMonoScriptCache17ScriptingClassPtr22InitScriptingCacheTypeP6Objecti
YQb:__Z18Transfer_BlittableI18StreamedBinaryReadILb0EELb1E8Vector3fEvRK29SerializationCommandArgumentsR31RuntimeSerializationCommandInfo
Jni:_GUIUtility__cctor_m46116445
lte:__ZN2UI14CanvasRenderer13SyncVertexPtrER8JobFenceNS0_8SyncFlagE
c9c:__ZN5physx7NpShape23setSimulationFilterDataERKNS_12PxFilterDataE
N3:__Z35scripting_method_get_argument_count18ScriptingMethodPtr
zxa:__ZN18AssetBundleManager18SortPreloadObjectsER13dynamic_arrayIiLj4EEb
pwh:_UInt16_System_IConvertible_ToChar_m4055364664_AdjustorThunk
tOd:__ZN5physx16PxsIslandManager27setWokenPairContactManagersEv
Suk:_Transform_set_rotation_m3411284563
YEj:_Text_set_fontStyle_m1766503514
Vgc:__Z20Gradient_CUSTOM_InitP12Il2CppObject
Vrc:__Z48Register_UnityEngine_GUIUtility_Internal_ExitGUIv
v6k:__ZN14dense_hash_mapI10KeyWrapperINSt3__24pairIPK9FieldInfoP11Il2CppClassEEEj17ReflectionMapHashIS8_ENS9_14EqualsComparerINS1_8equal_toIS8_EEEENS1_9allocatorINS2_IKS9_jEEEEE15set_deleted_keyERSH_
fti:_Playable_GetPlayableType_m2389123558
Cok:_X509Certificate_get_RawData_m1262574599
Ulb:__ZN5Light23VirtualRedirectTransferER19StreamedBinaryWriteILb0EE
lcf:_Byte_System_IConvertible_ToDouble_m4224320007
e5a:__ZL21CullDynamicObjectsJobP14CullingJobDataj
Fre:__ZN2UI15ClearCanvasDataER8JobFenceRNS_10CanvasDataE
Q4g:_IPAddress_ToString_m1462985652
Hnj:_ValueCollection_System_Collections_Generic_ICollectionU3CTValueU3E_Clear_m3471385195_gshared
Zjj:_Enumerator_get_CurrentKey_m1408186928_AdjustorThunk
fbb:__ZN14ManagerContext17InitializeClassesEv
_xj:_MaskUtilities_GetRectMasksForClip_m1540508301
ohb:__ZN19StreamedBinaryWriteILb0EE21TransferSTLStyleArrayINSt3__26vectorI14ConstantStringNS2_9allocatorIS4_EEEEEEvRT_17TransferMetaFlags
av:__ZN7mecanim5human20MaskHasRightFootGoalERKNS_6bitsetILj70EEE
BPb:__ZN18StreamedBinaryReadILb1EE21TransferSTLStyleArrayI31ArrayOfManagedObjectsTransfererEEvRT_17TransferMetaFlags
T6c:__ZN5physx10NpMaterial14onRefCountZeroEv
o5d:__ZN5physx13GuMeshFactory14addHeightFieldEPNS_2Gu11HeightFieldEb
fUc:__ZN5physx6shdfnd8PoolBaseINS_2Cm5BlockIhLj128EEENS0_19ReflectionAllocatorIS4_EEE12allocateSlabEv
kbd:__ZN5physx7NpCloth26setCentrifugalInertiaScaleENS_6PxVec3E
cyd:__ZN5physx11PxcPoolListINS_17PxsContactManagerENS_10PxsContextEE7destroyEv
qAh:_WeakReference_get_Target_m1672141897
tag:_Kernel_DwordDivMod_m4066997639
Bke:_t1_hints_open
xMh:__Z68RuntimeInvoker_Boolean_t3825574718_DateTime_t693205669_RuntimeObjectPFvvEPK10MethodInfoPvPS4_
Wyl:_access
BIe:_X509Certificate_GetCertHash_m2299453268
z0d:__ZN19CharacterController8TransferI24GenerateTypeTreeTransferEEvRT_
UDe:_MD5CryptoServiceProvider__ctor_m457716966
nAf:_Array_InternalArray__ICollection_Contains_TisKeyValuePair_2_t888819835_m3819112676_gshared
lqk:_Transform_get_rotation_m1033555130
lof:_Decimal_s64_m2965457432
Y8b:__Z18TransformPoints3x4RK10Matrix4x4fPK8Vector3fjPS2_ji
_Be:__ZN22UnityWebRequestManager21CreateUnityWebRequestEv
Iqc:__Z38Register_UnityEngine_GUIStyle_InitCopyv
$Sd:__ZN5physx13NpClothFabric4loadERKNS_17PxClothFabricDescE
PM:__ZN4FMOD7Channel11getUserDataEPPv
Bhe:_UNITY_tt_face_load_gasp
dXh:__Z150RuntimeInvoker_RuntimeObject_RuntimeObject_Int32_t2071877448_Int32_t2071877448_Int32_t2071877448_Int32_t2071877448_Int32_t2071877448_Int32_t2071877448PFvvEPK10MethodInfoPvPS4_
Cee:_ft_ansi_stream_close
Jm:_JS_Sound_SetPitch
Fdj:__ZL69InputField_t1631627530_CustomAttributesCacheGenerator_m_TextComponentP21CustomAttributesCache
SZk:_il2cpp_runtime_invoke_convert_args
nxc:__Z19TransferField_ArrayI8JSONRead27Converter_SimpleNativeClassI10RectOffsetEEvRK23StaticTransferFieldInfoR31RuntimeSerializationCommandInfoRT0_
oyf:_CCMath_mod_m3612151074
_Wg:_Context_get_SecurityProtocol_m1600902905
Wbl:__ZN6il2cpp6icalls8mscorlib6System2IO6MonoIO11GetFileStatEP12Il2CppStringPNS3_8FileStatEPi
gmd:__ZN5physx13NpRigidStaticD0Ev
eDa:__ZN9GfxDevice33InsertCustomMarkerCallbackAndDataEPFviPvEiS0_j
uZa:__ZNK9ShaderLab9IntShader6GetTagE11ShaderTagIDb
C2a:__Z25CalculateShadowCasterCullbPK5PlaneRK10Matrix4x4fRK8Vector3fff9LightTypeS7_R16ShadowCasterCullPKb
UIf:_Array_InternalArray__ICollection_CopyTo_TisUIVertex_t1204258818_m3361613612_gshared
t7g:_X509BasicConstraintsExtension_CopyFrom_m1321548708
eDe:_HMAC_HashCore_m1869699062
m4h:_Assembly_GetTypes_m1317253146
pnb:__ZN11Tetrahedron8TransferI19StreamedBinaryWriteILb0EEEEvRT_
BTd:__ZN5physx13NpClothFabric14onRefCountZeroEv
LXf:_Int64_System_IConvertible_ToSByte_m253213816_AdjustorThunk
fue:__ZN2UI14CanvasRenderer11SetMaterialEP8Materiali
eUe:_MouseState_SetButtonState_m2329922363
D_f:_FileStream__ctor_m3815606687
Dol:_GC_freehblk
XPf:_ExecuteEvents_ValidateEventData_TisRuntimeObject_m3838331218_gshared
s0k:__ZN30dense_hashtable_const_iteratorINSt3__24pairIK10KeyWrapperINS1_IPK14Il2CppAssemblyP11Il2CppClassEEEjEES9_17ReflectionMapHashIS8_EN14dense_hash_mapIS9_jSD_NS9_14EqualsComparerINS0_8equal_toIS8_EEEENS0_9allocatorISB_EEE9SelectKeyESI_SK_EppEv
KPg:_ReadOnlyCollection_1_System_Collections_IList_Remove_m2507730234_gshared
knj:_Enumerator_System_Collections_IEnumerator_Reset_m2482663638_gshared
scc:__ZN9Scripting35DestroyObjectFromScriptingImmediateEP6Objectb
$5a:__ZNK6Camera48AreVRStereoViewMatricesWithinSingleCullToleranceEv
R$i:__ZL53Rigidbody2D_t502193897_CustomAttributesCacheGeneratorP21CustomAttributesCache
Zfh:_RemotingServices_GetRemoteObject_m3663391550
zT:__Z64AudioMixerPlayable_CUSTOM_INTERNAL_CALL_SetAutoNormalizeInternalR9HPlayableh
Zyg:_Queue_1_Peek_m1224538505_gshared
